Archive member included because of file (symbol)

/usr/bin/../lib/gcc/arm-none-eabi/4.9.3/../../../../arm-none-eabi/lib/armv7-m/libm.a(lib_a-sf_fpclassify.o)
                              obj/main/NAZE/flight/imu.o (symbol from plugin) (__fpclassifyf)
/usr/bin/../lib/gcc/arm-none-eabi/4.9.3/../../../../arm-none-eabi/lib/armv7-m/libc_nano.a(lib_a-strtok.o)
                              obj/main/NAZE/fc/cli.o (symbol from plugin) (strtok)
/usr/bin/../lib/gcc/arm-none-eabi/4.9.3/../../../../arm-none-eabi/lib/armv7-m/libc_nano.a(lib_a-strtok_r.o)
                              /usr/bin/../lib/gcc/arm-none-eabi/4.9.3/../../../../arm-none-eabi/lib/armv7-m/libc_nano.a(lib_a-strtok.o) (__strtok_r)
/usr/bin/../lib/gcc/arm-none-eabi/4.9.3/../../../../arm-none-eabi/lib/armv7-m/libc_nano.a(lib_a-impure.o)
                              /usr/bin/../lib/gcc/arm-none-eabi/4.9.3/../../../../arm-none-eabi/lib/armv7-m/libc_nano.a(lib_a-strtok.o) (_impure_ptr)
/usr/bin/../lib/gcc/arm-none-eabi/4.9.3/../../../../arm-none-eabi/lib/armv7-m/libc_nano.a(lib_a-malloc.o)
                              /usr/bin/../lib/gcc/arm-none-eabi/4.9.3/../../../../arm-none-eabi/lib/armv7-m/libc_nano.a(lib_a-strtok.o) (malloc)
/usr/bin/../lib/gcc/arm-none-eabi/4.9.3/../../../../arm-none-eabi/lib/armv7-m/libc_nano.a(lib_a-nano-freer.o)
                              /usr/bin/../lib/gcc/arm-none-eabi/4.9.3/../../../../arm-none-eabi/lib/armv7-m/libc_nano.a(lib_a-malloc.o) (_free_r)
/usr/bin/../lib/gcc/arm-none-eabi/4.9.3/../../../../arm-none-eabi/lib/armv7-m/libc_nano.a(lib_a-nano-mallocr.o)
                              /usr/bin/../lib/gcc/arm-none-eabi/4.9.3/../../../../arm-none-eabi/lib/armv7-m/libc_nano.a(lib_a-malloc.o) (_malloc_r)
/usr/bin/../lib/gcc/arm-none-eabi/4.9.3/../../../../arm-none-eabi/lib/armv7-m/libc_nano.a(lib_a-sbrkr.o)
                              /usr/bin/../lib/gcc/arm-none-eabi/4.9.3/../../../../arm-none-eabi/lib/armv7-m/libc_nano.a(lib_a-nano-mallocr.o) (_sbrk_r)
/usr/bin/../lib/gcc/arm-none-eabi/4.9.3/../../../../arm-none-eabi/lib/armv7-m/libc_nano.a(lib_a-reent.o)
                              /usr/bin/../lib/gcc/arm-none-eabi/4.9.3/../../../../arm-none-eabi/lib/armv7-m/libc_nano.a(lib_a-sbrkr.o) (errno)
/usr/bin/../lib/gcc/arm-none-eabi/4.9.3/../../../../arm-none-eabi/lib/armv7-m/libnosys.a(sbrk.o)
                              /usr/bin/../lib/gcc/arm-none-eabi/4.9.3/../../../../arm-none-eabi/lib/armv7-m/libc_nano.a(lib_a-sbrkr.o) (_sbrk)
/usr/bin/../lib/gcc/arm-none-eabi/4.9.3/armv7-m/libgcc.a(_arm_addsubdf3.o)
                              /tmp/ccELukx5.ltrans1.ltrans.o (__aeabi_ul2d)
/usr/bin/../lib/gcc/arm-none-eabi/4.9.3/armv7-m/libgcc.a(_arm_muldivdf3.o)
                              /tmp/ccELukx5.ltrans1.ltrans.o (__aeabi_dmul)
/usr/bin/../lib/gcc/arm-none-eabi/4.9.3/armv7-m/libgcc.a(_arm_truncdfsf2.o)
                              /tmp/ccELukx5.ltrans1.ltrans.o (__aeabi_d2f)
/usr/bin/../lib/gcc/arm-none-eabi/4.9.3/armv7-m/libgcc.a(_arm_addsubsf3.o)
                              /tmp/ccELukx5.ltrans1.ltrans.o (__aeabi_fsub)
/usr/bin/../lib/gcc/arm-none-eabi/4.9.3/armv7-m/libgcc.a(_arm_muldivsf3.o)
                              /tmp/ccELukx5.ltrans0.ltrans.o (__aeabi_fmul)
/usr/bin/../lib/gcc/arm-none-eabi/4.9.3/armv7-m/libgcc.a(_arm_cmpsf2.o)
                              /tmp/ccELukx5.ltrans0.ltrans.o (__aeabi_fcmpeq)
/usr/bin/../lib/gcc/arm-none-eabi/4.9.3/armv7-m/libgcc.a(_arm_fixsfsi.o)
                              /tmp/ccELukx5.ltrans1.ltrans.o (__aeabi_f2iz)
/usr/bin/../lib/gcc/arm-none-eabi/4.9.3/armv7-m/libgcc.a(_arm_fixunssfsi.o)
                              /tmp/ccELukx5.ltrans1.ltrans.o (__aeabi_f2uiz)
/usr/bin/../lib/gcc/arm-none-eabi/4.9.3/armv7-m/libgcc.a(_aeabi_ldivmod.o)
                              /tmp/ccELukx5.ltrans5.ltrans.o (__aeabi_ldivmod)
/usr/bin/../lib/gcc/arm-none-eabi/4.9.3/armv7-m/libgcc.a(_aeabi_uldivmod.o)
                              /tmp/ccELukx5.ltrans9.ltrans.o (__aeabi_uldivmod)
/usr/bin/../lib/gcc/arm-none-eabi/4.9.3/armv7-m/libgcc.a(_popcountsi2.o)
                              /tmp/ccELukx5.ltrans8.ltrans.o (__popcountsi2)
/usr/bin/../lib/gcc/arm-none-eabi/4.9.3/armv7-m/libgcc.a(bpabi.o)
                              /usr/bin/../lib/gcc/arm-none-eabi/4.9.3/armv7-m/libgcc.a(_aeabi_ldivmod.o) (__gnu_ldivmod_helper)
/usr/bin/../lib/gcc/arm-none-eabi/4.9.3/armv7-m/libgcc.a(_dvmd_tls.o)
                              /usr/bin/../lib/gcc/arm-none-eabi/4.9.3/armv7-m/libgcc.a(_aeabi_ldivmod.o) (__aeabi_ldiv0)
/usr/bin/../lib/gcc/arm-none-eabi/4.9.3/armv7-m/libgcc.a(_divdi3.o)
                              /usr/bin/../lib/gcc/arm-none-eabi/4.9.3/armv7-m/libgcc.a(bpabi.o) (__divdi3)
/usr/bin/../lib/gcc/arm-none-eabi/4.9.3/armv7-m/libgcc.a(_udivdi3.o)
                              /usr/bin/../lib/gcc/arm-none-eabi/4.9.3/armv7-m/libgcc.a(bpabi.o) (__udivdi3)
/usr/bin/../lib/gcc/arm-none-eabi/4.9.3/../../../../arm-none-eabi/lib/armv7-m/libg_nano.a(lib_a-memcmp.o)
                              /tmp/ccELukx5.ltrans6.ltrans.o (memcmp)
/usr/bin/../lib/gcc/arm-none-eabi/4.9.3/../../../../arm-none-eabi/lib/armv7-m/libg_nano.a(lib_a-memcpy.o)
                              /tmp/ccELukx5.ltrans8.ltrans.o (memcpy)
/usr/bin/../lib/gcc/arm-none-eabi/4.9.3/../../../../arm-none-eabi/lib/armv7-m/libg_nano.a(lib_a-memmove.o)
                              /tmp/ccELukx5.ltrans9.ltrans.o (memmove)
/usr/bin/../lib/gcc/arm-none-eabi/4.9.3/../../../../arm-none-eabi/lib/armv7-m/libg_nano.a(lib_a-memset.o)
                              /tmp/ccELukx5.ltrans0.ltrans.o (memset)
/usr/bin/../lib/gcc/arm-none-eabi/4.9.3/../../../../arm-none-eabi/lib/armv7-m/libg_nano.a(lib_a-strcat.o)
                              /tmp/ccELukx5.ltrans22.ltrans.o (strcat)
/usr/bin/../lib/gcc/arm-none-eabi/4.9.3/../../../../arm-none-eabi/lib/armv7-m/libg_nano.a(lib_a-strchr.o)
                              /tmp/ccELukx5.ltrans2.ltrans.o (strchr)
/usr/bin/../lib/gcc/arm-none-eabi/4.9.3/../../../../arm-none-eabi/lib/armv7-m/libg_nano.a(lib_a-strcpy.o)
                              /tmp/ccELukx5.ltrans7.ltrans.o (strcpy)
/usr/bin/../lib/gcc/arm-none-eabi/4.9.3/../../../../arm-none-eabi/lib/armv7-m/libg_nano.a(lib_a-strlen.o)
                              /tmp/ccELukx5.ltrans2.ltrans.o (strlen)
/usr/bin/../lib/gcc/arm-none-eabi/4.9.3/../../../../arm-none-eabi/lib/armv7-m/libg_nano.a(lib_a-strncmp.o)
                              /tmp/ccELukx5.ltrans17.ltrans.o (strncmp)
/usr/bin/../lib/gcc/arm-none-eabi/4.9.3/../../../../arm-none-eabi/lib/armv7-m/libg_nano.a(lib_a-strncpy.o)
                              /tmp/ccELukx5.ltrans17.ltrans.o (strncpy)
/usr/bin/../lib/gcc/arm-none-eabi/4.9.3/../../../../arm-none-eabi/lib/armv7-m/libg_nano.a(lib_a-strspn.o)
                              /tmp/ccELukx5.ltrans17.ltrans.o (strspn)
/usr/bin/../lib/gcc/arm-none-eabi/4.9.3/../../../../arm-none-eabi/lib/armv7-m/libg_nano.a(lib_a-strstr.o)
                              /tmp/ccELukx5.ltrans17.ltrans.o (strstr)
/usr/bin/../lib/gcc/arm-none-eabi/4.9.3/../../../../arm-none-eabi/lib/armv7-m/libm.a(lib_a-sf_lrint.o)
                              /tmp/ccELukx5.ltrans1.ltrans.o (lrintf)
/usr/bin/../lib/gcc/arm-none-eabi/4.9.3/../../../../arm-none-eabi/lib/armv7-m/libm.a(lib_a-wf_pow.o)
                              /tmp/ccELukx5.ltrans10.ltrans.o (powf)
/usr/bin/../lib/gcc/arm-none-eabi/4.9.3/../../../../arm-none-eabi/lib/armv7-m/libm.a(lib_a-wf_sqrt.o)
                              /tmp/ccELukx5.ltrans1.ltrans.o (sqrtf)
/usr/bin/../lib/gcc/arm-none-eabi/4.9.3/../../../../arm-none-eabi/lib/armv7-m/libm.a(lib_a-ef_pow.o)
                              /usr/bin/../lib/gcc/arm-none-eabi/4.9.3/../../../../arm-none-eabi/lib/armv7-m/libm.a(lib_a-wf_pow.o) (__ieee754_powf)
/usr/bin/../lib/gcc/arm-none-eabi/4.9.3/../../../../arm-none-eabi/lib/armv7-m/libm.a(lib_a-ef_sqrt.o)
                              /usr/bin/../lib/gcc/arm-none-eabi/4.9.3/../../../../arm-none-eabi/lib/armv7-m/libm.a(lib_a-wf_sqrt.o) (__ieee754_sqrtf)
/usr/bin/../lib/gcc/arm-none-eabi/4.9.3/../../../../arm-none-eabi/lib/armv7-m/libm.a(lib_a-s_lib_ver.o)
                              /usr/bin/../lib/gcc/arm-none-eabi/4.9.3/../../../../arm-none-eabi/lib/armv7-m/libm.a(lib_a-wf_pow.o) (__fdlib_version)
/usr/bin/../lib/gcc/arm-none-eabi/4.9.3/../../../../arm-none-eabi/lib/armv7-m/libm.a(lib_a-s_matherr.o)
                              /usr/bin/../lib/gcc/arm-none-eabi/4.9.3/../../../../arm-none-eabi/lib/armv7-m/libm.a(lib_a-wf_pow.o) (matherr)
/usr/bin/../lib/gcc/arm-none-eabi/4.9.3/../../../../arm-none-eabi/lib/armv7-m/libm.a(lib_a-s_rint.o)
                              /usr/bin/../lib/gcc/arm-none-eabi/4.9.3/../../../../arm-none-eabi/lib/armv7-m/libm.a(lib_a-wf_pow.o) (rint)
/usr/bin/../lib/gcc/arm-none-eabi/4.9.3/../../../../arm-none-eabi/lib/armv7-m/libm.a(lib_a-sf_fabs.o)
                              /usr/bin/../lib/gcc/arm-none-eabi/4.9.3/../../../../arm-none-eabi/lib/armv7-m/libm.a(lib_a-ef_pow.o) (fabsf)
/usr/bin/../lib/gcc/arm-none-eabi/4.9.3/../../../../arm-none-eabi/lib/armv7-m/libm.a(lib_a-sf_finite.o)
                              /usr/bin/../lib/gcc/arm-none-eabi/4.9.3/../../../../arm-none-eabi/lib/armv7-m/libm.a(lib_a-wf_pow.o) (finitef)
/usr/bin/../lib/gcc/arm-none-eabi/4.9.3/../../../../arm-none-eabi/lib/armv7-m/libm.a(lib_a-sf_nan.o)
                              /usr/bin/../lib/gcc/arm-none-eabi/4.9.3/../../../../arm-none-eabi/lib/armv7-m/libm.a(lib_a-ef_pow.o) (nanf)
/usr/bin/../lib/gcc/arm-none-eabi/4.9.3/../../../../arm-none-eabi/lib/armv7-m/libm.a(lib_a-sf_scalbn.o)
                              /usr/bin/../lib/gcc/arm-none-eabi/4.9.3/../../../../arm-none-eabi/lib/armv7-m/libm.a(lib_a-ef_pow.o) (scalbnf)
/usr/bin/../lib/gcc/arm-none-eabi/4.9.3/../../../../arm-none-eabi/lib/armv7-m/libm.a(lib_a-sf_copysign.o)
                              /usr/bin/../lib/gcc/arm-none-eabi/4.9.3/../../../../arm-none-eabi/lib/armv7-m/libm.a(lib_a-sf_scalbn.o) (copysignf)
/usr/bin/../lib/gcc/arm-none-eabi/4.9.3/../../../../arm-none-eabi/lib/armv7-m/libc_nano.a(lib_a-errno.o)
                              /usr/bin/../lib/gcc/arm-none-eabi/4.9.3/../../../../arm-none-eabi/lib/armv7-m/libm.a(lib_a-wf_pow.o) (__errno)
/usr/bin/../lib/gcc/arm-none-eabi/4.9.3/armv7-m/libgcc.a(_arm_cmpdf2.o)
                              /usr/bin/../lib/gcc/arm-none-eabi/4.9.3/../../../../arm-none-eabi/lib/armv7-m/libm.a(lib_a-wf_pow.o) (__aeabi_dcmpeq)

Allocating common symbols
Common symbol       size              file

extiHandlerConfigs  0x8               obj/main/NAZE/drivers/system.o (symbol from plugin)
timerChannelInfo    0xe               obj/main/NAZE/drivers/timer.o (symbol from plugin)
barometerConfig_Copy
                    0x2               obj/main/NAZE/sensors/barometer.o (symbol from plugin)
adcChannelConfig_Copy
                    0x4               obj/main/NAZE/fc/config.o (symbol from plugin)
ubx_nav_status_bits
                    0x1               obj/main/NAZE/io/gps_ublox.o (symbol from plugin)
softSerialPorts     0x4b0             obj/main/NAZE/drivers/serial_softserial.o (symbol from plugin)
errno               0x4               /usr/bin/../lib/gcc/arm-none-eabi/4.9.3/../../../../arm-none-eabi/lib/armv7-m/libc_nano.a(lib_a-reent.o)
rcRaw               0x24              obj/main/NAZE/rx/rx.o (symbol from plugin)
ubx_protocol_bytes  0x1               obj/main/NAZE/io/gps_ublox.o (symbol from plugin)
customMotorMixer_CopyArray
                    0x60              obj/main/NAZE/flight/mixer.o (symbol from plugin)
gpsConfig_Copy      0x6               obj/main/NAZE/io/gps.o (symbol from plugin)
gyroConfig_Copy     0x12              obj/main/NAZE/sensors/gyro.o (symbol from plugin)
gimbalConfig_Copy   0x1               obj/main/NAZE/flight/servos.o (symbol from plugin)
rcStickPositions    0x1               obj/main/NAZE/fc/rc_controls.o (symbol from plugin)
servoConfig_Copy    0xa               obj/main/NAZE/flight/servos.o (symbol from plugin)
accelerometerConfig_Copy
                    0x12              obj/main/NAZE/sensors/acceleration.o (symbol from plugin)
imuConfig_System    0xa               obj/main/NAZE/flight/imu.o (symbol from plugin)
adcChannelConfig_System
                    0x4               obj/main/NAZE/fc/config.o (symbol from plugin)
imuConfig_Copy      0xa               obj/main/NAZE/flight/imu.o (symbol from plugin)
inputSource_e       0x1               obj/main/NAZE/blackbox/blackbox.o (symbol from plugin)
armingConfig_Copy   0x3               obj/main/NAZE/fc/rc_controls.o (symbol from plugin)
timerInfo           0x4               obj/main/NAZE/drivers/timer.o (symbol from plugin)
pidAutotuneConfig_Copy
                    0x8               obj/main/NAZE/flight/pid_autotune.o (symbol from plugin)
rangefinder         0x34              obj/main/NAZE/sensors/rangefinder.o (symbol from plugin)
navActualHeading    0x2               obj/main/NAZE/navigation/navigation.o (symbol from plugin)
blackboxConfig_Copy
                    0x4               obj/main/NAZE/blackbox/blackbox.o (symbol from plugin)
flight3DConfig_Copy
                    0x6               obj/main/NAZE/flight/mixer.o (symbol from plugin)
mpuResetFn          0x4               obj/main/NAZE/drivers/accgyro/accgyro_mpu.o (symbol from plugin)
switchStates        0x6               obj/main/NAZE/io/rcsplit.o (symbol from plugin)
batteryWarningVoltage
                    0x2               obj/main/NAZE/sensors/battery.o (symbol from plugin)
motorConfig_Copy    0xa               obj/main/NAZE/flight/mixer.o (symbol from plugin)
pitot               0x14              obj/main/NAZE/sensors/pitotmeter.o (symbol from plugin)
telemetryConfig_Copy
                    0x14              obj/main/NAZE/telemetry/telemetry.o (symbol from plugin)
modeActivationOperatorConfig_Copy
                    0x1               obj/main/NAZE/fc/rc_modes.o (symbol from plugin)
navConfig_Copy      0x4c              obj/main/NAZE/navigation/navigation.o (symbol from plugin)
pidAutotuneConfig_System
                    0x8               obj/main/NAZE/flight/pid_autotune.o (symbol from plugin)
compassConfig_Copy  0xc               obj/main/NAZE/sensors/compass.o (symbol from plugin)
controlRateProfiles_CopyArray
                    0x1e              obj/main/NAZE/fc/controlrate_profile.o (symbol from plugin)
navDesiredHeading   0x2               obj/main/NAZE/navigation/navigation.o (symbol from plugin)
sectionTimes        0x40              obj/main/NAZE/build/debug.o (symbol from plugin)
rcControlsConfig_Copy
                    0x6               obj/main/NAZE/fc/rc_controls.o (symbol from plugin)
batteryCriticalVoltage
                    0x2               obj/main/NAZE/sensors/battery.o (symbol from plugin)
failsafeConfig_Copy
                    0x10              obj/main/NAZE/flight/failsafe.o (symbol from plugin)
batteryConfig_Copy  0xe               obj/main/NAZE/sensors/battery.o (symbol from plugin)
controlRateProfiles_SystemArray
                    0x1e              obj/main/NAZE/fc/controlrate_profile.o (symbol from plugin)
positionEstimationConfig_Copy
                    0x38              obj/main/NAZE/navigation/navigation_pos_estimator.o (symbol from plugin)
gimbalConfig_System
                    0x1               obj/main/NAZE/flight/servos.o (symbol from plugin)
boardAlignment_Copy
                    0x6               obj/main/NAZE/sensors/boardalignment.o (symbol from plugin)
ubs_nav_fix_type    0x1               obj/main/NAZE/io/gps_ublox.o (symbol from plugin)
modeActivationOperatorConfig_System
                    0x1               obj/main/NAZE/fc/rc_modes.o (symbol from plugin)

Discarded input sections

 .text          0x0000000000000000       0x14 obj/main/NAZE/startup_stm32f10x_md_gcc.o
 .data          0x0000000000000000        0x0 obj/main/NAZE/startup_stm32f10x_md_gcc.o
 .bss           0x0000000000000000        0x0 obj/main/NAZE/startup_stm32f10x_md_gcc.o
 .text          0x0000000000000000        0x0 obj/main/NAZE/drivers/adc_stm32f10x.o (symbol from plugin)
 .text          0x0000000000000000        0x0 /tmp/ccELukx5.ltrans0.ltrans.o
 .data          0x0000000000000000        0x0 /tmp/ccELukx5.ltrans0.ltrans.o
 .data          0x0000000000000000        0x0 /tmp/ccELukx5.ltrans2.ltrans.o
 .data          0x0000000000000000        0x0 /tmp/ccELukx5.ltrans9.ltrans.o
 .data          0x0000000000000000        0x0 /tmp/ccELukx5.ltrans12.ltrans.o
 .data          0x0000000000000000        0x0 /tmp/ccELukx5.ltrans13.ltrans.o
 .data          0x0000000000000000        0x0 /tmp/ccELukx5.ltrans14.ltrans.o
 .data          0x0000000000000000        0x0 /tmp/ccELukx5.ltrans15.ltrans.o
 .data          0x0000000000000000        0x0 /tmp/ccELukx5.ltrans16.ltrans.o
 .bss           0x0000000000000000        0x0 /tmp/ccELukx5.ltrans16.ltrans.o
 .data          0x0000000000000000        0x0 /tmp/ccELukx5.ltrans19.ltrans.o
 .data          0x0000000000000000        0x0 /tmp/ccELukx5.ltrans21.ltrans.o
 .rodata.targetName
                0x0000000000000000        0x4 /tmp/ccELukx5.ltrans21.ltrans.o
 .data          0x0000000000000000        0x0 /tmp/ccELukx5.ltrans22.ltrans.o
 .bss           0x0000000000000000        0x0 /tmp/ccELukx5.ltrans22.ltrans.o
 .data          0x0000000000000000        0x0 /tmp/ccELukx5.ltrans23.ltrans.o
 .bss           0x0000000000000000        0x0 /tmp/ccELukx5.ltrans23.ltrans.o
 .data          0x0000000000000000        0x0 /tmp/ccELukx5.ltrans25.ltrans.o
 .data          0x0000000000000000        0x0 /tmp/ccELukx5.ltrans26.ltrans.o
 .data          0x0000000000000000        0x0 /tmp/ccELukx5.ltrans27.ltrans.o
 .data          0x0000000000000000        0x0 /tmp/ccELukx5.ltrans28.ltrans.o
 .data          0x0000000000000000        0x0 /tmp/ccELukx5.ltrans29.ltrans.o
 .bss           0x0000000000000000        0x0 /tmp/ccELukx5.ltrans29.ltrans.o
 .data          0x0000000000000000        0x0 /tmp/ccELukx5.ltrans30.ltrans.o
 .data          0x0000000000000000        0x0 /tmp/ccELukx5.ltrans31.ltrans.o
 .bss           0x0000000000000000        0x0 /tmp/ccELukx5.ltrans31.ltrans.o
 .data          0x0000000000000000        0x0 /usr/bin/../lib/gcc/arm-none-eabi/4.9.3/armv7-m/libgcc.a(_arm_addsubdf3.o)
 .bss           0x0000000000000000        0x0 /usr/bin/../lib/gcc/arm-none-eabi/4.9.3/armv7-m/libgcc.a(_arm_addsubdf3.o)
 .data          0x0000000000000000        0x0 /usr/bin/../lib/gcc/arm-none-eabi/4.9.3/armv7-m/libgcc.a(_arm_muldivdf3.o)
 .bss           0x0000000000000000        0x0 /usr/bin/../lib/gcc/arm-none-eabi/4.9.3/armv7-m/libgcc.a(_arm_muldivdf3.o)
 .data          0x0000000000000000        0x0 /usr/bin/../lib/gcc/arm-none-eabi/4.9.3/armv7-m/libgcc.a(_arm_truncdfsf2.o)
 .bss           0x0000000000000000        0x0 /usr/bin/../lib/gcc/arm-none-eabi/4.9.3/armv7-m/libgcc.a(_arm_truncdfsf2.o)
 .data          0x0000000000000000        0x0 /usr/bin/../lib/gcc/arm-none-eabi/4.9.3/armv7-m/libgcc.a(_arm_addsubsf3.o)
 .bss           0x0000000000000000        0x0 /usr/bin/../lib/gcc/arm-none-eabi/4.9.3/armv7-m/libgcc.a(_arm_addsubsf3.o)
 .data          0x0000000000000000        0x0 /usr/bin/../lib/gcc/arm-none-eabi/4.9.3/armv7-m/libgcc.a(_arm_muldivsf3.o)
 .bss           0x0000000000000000        0x0 /usr/bin/../lib/gcc/arm-none-eabi/4.9.3/armv7-m/libgcc.a(_arm_muldivsf3.o)
 .data          0x0000000000000000        0x0 /usr/bin/../lib/gcc/arm-none-eabi/4.9.3/armv7-m/libgcc.a(_arm_cmpsf2.o)
 .bss           0x0000000000000000        0x0 /usr/bin/../lib/gcc/arm-none-eabi/4.9.3/armv7-m/libgcc.a(_arm_cmpsf2.o)
 .data          0x0000000000000000        0x0 /usr/bin/../lib/gcc/arm-none-eabi/4.9.3/armv7-m/libgcc.a(_arm_fixsfsi.o)
 .bss           0x0000000000000000        0x0 /usr/bin/../lib/gcc/arm-none-eabi/4.9.3/armv7-m/libgcc.a(_arm_fixsfsi.o)
 .data          0x0000000000000000        0x0 /usr/bin/../lib/gcc/arm-none-eabi/4.9.3/armv7-m/libgcc.a(_arm_fixunssfsi.o)
 .bss           0x0000000000000000        0x0 /usr/bin/../lib/gcc/arm-none-eabi/4.9.3/armv7-m/libgcc.a(_arm_fixunssfsi.o)
 .data          0x0000000000000000        0x0 /usr/bin/../lib/gcc/arm-none-eabi/4.9.3/armv7-m/libgcc.a(_aeabi_ldivmod.o)
 .bss           0x0000000000000000        0x0 /usr/bin/../lib/gcc/arm-none-eabi/4.9.3/armv7-m/libgcc.a(_aeabi_ldivmod.o)
 .data          0x0000000000000000        0x0 /usr/bin/../lib/gcc/arm-none-eabi/4.9.3/armv7-m/libgcc.a(_aeabi_uldivmod.o)
 .bss           0x0000000000000000        0x0 /usr/bin/../lib/gcc/arm-none-eabi/4.9.3/armv7-m/libgcc.a(_aeabi_uldivmod.o)
 .data          0x0000000000000000        0x0 /usr/bin/../lib/gcc/arm-none-eabi/4.9.3/armv7-m/libgcc.a(_popcountsi2.o)
 .bss           0x0000000000000000        0x0 /usr/bin/../lib/gcc/arm-none-eabi/4.9.3/armv7-m/libgcc.a(_popcountsi2.o)
 .data          0x0000000000000000        0x0 /usr/bin/../lib/gcc/arm-none-eabi/4.9.3/armv7-m/libgcc.a(bpabi.o)
 .bss           0x0000000000000000        0x0 /usr/bin/../lib/gcc/arm-none-eabi/4.9.3/armv7-m/libgcc.a(bpabi.o)
 .data          0x0000000000000000        0x0 /usr/bin/../lib/gcc/arm-none-eabi/4.9.3/armv7-m/libgcc.a(_dvmd_tls.o)
 .bss           0x0000000000000000        0x0 /usr/bin/../lib/gcc/arm-none-eabi/4.9.3/armv7-m/libgcc.a(_dvmd_tls.o)
 .data          0x0000000000000000        0x0 /usr/bin/../lib/gcc/arm-none-eabi/4.9.3/armv7-m/libgcc.a(_divdi3.o)
 .bss           0x0000000000000000        0x0 /usr/bin/../lib/gcc/arm-none-eabi/4.9.3/armv7-m/libgcc.a(_divdi3.o)
 .ARM.extab     0x0000000000000000        0x0 /usr/bin/../lib/gcc/arm-none-eabi/4.9.3/armv7-m/libgcc.a(_divdi3.o)
 .data          0x0000000000000000        0x0 /usr/bin/../lib/gcc/arm-none-eabi/4.9.3/armv7-m/libgcc.a(_udivdi3.o)
 .bss           0x0000000000000000        0x0 /usr/bin/../lib/gcc/arm-none-eabi/4.9.3/armv7-m/libgcc.a(_udivdi3.o)
 .ARM.extab     0x0000000000000000        0x0 /usr/bin/../lib/gcc/arm-none-eabi/4.9.3/armv7-m/libgcc.a(_udivdi3.o)
 .text          0x0000000000000000        0x0 /usr/bin/../lib/gcc/arm-none-eabi/4.9.3/../../../../arm-none-eabi/lib/armv7-m/libg_nano.a(lib_a-memcmp.o)
 .data          0x0000000000000000        0x0 /usr/bin/../lib/gcc/arm-none-eabi/4.9.3/../../../../arm-none-eabi/lib/armv7-m/libg_nano.a(lib_a-memcmp.o)
 .bss           0x0000000000000000        0x0 /usr/bin/../lib/gcc/arm-none-eabi/4.9.3/../../../../arm-none-eabi/lib/armv7-m/libg_nano.a(lib_a-memcmp.o)
 .text          0x0000000000000000        0x0 /usr/bin/../lib/gcc/arm-none-eabi/4.9.3/../../../../arm-none-eabi/lib/armv7-m/libg_nano.a(lib_a-memcpy.o)
 .data          0x0000000000000000        0x0 /usr/bin/../lib/gcc/arm-none-eabi/4.9.3/../../../../arm-none-eabi/lib/armv7-m/libg_nano.a(lib_a-memcpy.o)
 .bss           0x0000000000000000        0x0 /usr/bin/../lib/gcc/arm-none-eabi/4.9.3/../../../../arm-none-eabi/lib/armv7-m/libg_nano.a(lib_a-memcpy.o)
 .text          0x0000000000000000        0x0 /usr/bin/../lib/gcc/arm-none-eabi/4.9.3/../../../../arm-none-eabi/lib/armv7-m/libg_nano.a(lib_a-memmove.o)
 .data          0x0000000000000000        0x0 /usr/bin/../lib/gcc/arm-none-eabi/4.9.3/../../../../arm-none-eabi/lib/armv7-m/libg_nano.a(lib_a-memmove.o)
 .bss           0x0000000000000000        0x0 /usr/bin/../lib/gcc/arm-none-eabi/4.9.3/../../../../arm-none-eabi/lib/armv7-m/libg_nano.a(lib_a-memmove.o)
 .text          0x0000000000000000        0x0 /usr/bin/../lib/gcc/arm-none-eabi/4.9.3/../../../../arm-none-eabi/lib/armv7-m/libg_nano.a(lib_a-memset.o)
 .data          0x0000000000000000        0x0 /usr/bin/../lib/gcc/arm-none-eabi/4.9.3/../../../../arm-none-eabi/lib/armv7-m/libg_nano.a(lib_a-memset.o)
 .bss           0x0000000000000000        0x0 /usr/bin/../lib/gcc/arm-none-eabi/4.9.3/../../../../arm-none-eabi/lib/armv7-m/libg_nano.a(lib_a-memset.o)
 .text          0x0000000000000000        0x0 /usr/bin/../lib/gcc/arm-none-eabi/4.9.3/../../../../arm-none-eabi/lib/armv7-m/libg_nano.a(lib_a-strcat.o)
 .data          0x0000000000000000        0x0 /usr/bin/../lib/gcc/arm-none-eabi/4.9.3/../../../../arm-none-eabi/lib/armv7-m/libg_nano.a(lib_a-strcat.o)
 .bss           0x0000000000000000        0x0 /usr/bin/../lib/gcc/arm-none-eabi/4.9.3/../../../../arm-none-eabi/lib/armv7-m/libg_nano.a(lib_a-strcat.o)
 .text          0x0000000000000000        0x0 /usr/bin/../lib/gcc/arm-none-eabi/4.9.3/../../../../arm-none-eabi/lib/armv7-m/libg_nano.a(lib_a-strchr.o)
 .data          0x0000000000000000        0x0 /usr/bin/../lib/gcc/arm-none-eabi/4.9.3/../../../../arm-none-eabi/lib/armv7-m/libg_nano.a(lib_a-strchr.o)
 .bss           0x0000000000000000        0x0 /usr/bin/../lib/gcc/arm-none-eabi/4.9.3/../../../../arm-none-eabi/lib/armv7-m/libg_nano.a(lib_a-strchr.o)
 .text          0x0000000000000000        0x0 /usr/bin/../lib/gcc/arm-none-eabi/4.9.3/../../../../arm-none-eabi/lib/armv7-m/libg_nano.a(lib_a-strcpy.o)
 .data          0x0000000000000000        0x0 /usr/bin/../lib/gcc/arm-none-eabi/4.9.3/../../../../arm-none-eabi/lib/armv7-m/libg_nano.a(lib_a-strcpy.o)
 .bss           0x0000000000000000        0x0 /usr/bin/../lib/gcc/arm-none-eabi/4.9.3/../../../../arm-none-eabi/lib/armv7-m/libg_nano.a(lib_a-strcpy.o)
 .text          0x0000000000000000        0x0 /usr/bin/../lib/gcc/arm-none-eabi/4.9.3/../../../../arm-none-eabi/lib/armv7-m/libg_nano.a(lib_a-strlen.o)
 .data          0x0000000000000000        0x0 /usr/bin/../lib/gcc/arm-none-eabi/4.9.3/../../../../arm-none-eabi/lib/armv7-m/libg_nano.a(lib_a-strlen.o)
 .bss           0x0000000000000000        0x0 /usr/bin/../lib/gcc/arm-none-eabi/4.9.3/../../../../arm-none-eabi/lib/armv7-m/libg_nano.a(lib_a-strlen.o)
 .text          0x0000000000000000        0x0 /usr/bin/../lib/gcc/arm-none-eabi/4.9.3/../../../../arm-none-eabi/lib/armv7-m/libg_nano.a(lib_a-strncmp.o)
 .data          0x0000000000000000        0x0 /usr/bin/../lib/gcc/arm-none-eabi/4.9.3/../../../../arm-none-eabi/lib/armv7-m/libg_nano.a(lib_a-strncmp.o)
 .bss           0x0000000000000000        0x0 /usr/bin/../lib/gcc/arm-none-eabi/4.9.3/../../../../arm-none-eabi/lib/armv7-m/libg_nano.a(lib_a-strncmp.o)
 .text          0x0000000000000000        0x0 /usr/bin/../lib/gcc/arm-none-eabi/4.9.3/../../../../arm-none-eabi/lib/armv7-m/libg_nano.a(lib_a-strncpy.o)
 .data          0x0000000000000000        0x0 /usr/bin/../lib/gcc/arm-none-eabi/4.9.3/../../../../arm-none-eabi/lib/armv7-m/libg_nano.a(lib_a-strncpy.o)
 .bss           0x0000000000000000        0x0 /usr/bin/../lib/gcc/arm-none-eabi/4.9.3/../../../../arm-none-eabi/lib/armv7-m/libg_nano.a(lib_a-strncpy.o)
 .text          0x0000000000000000        0x0 /usr/bin/../lib/gcc/arm-none-eabi/4.9.3/../../../../arm-none-eabi/lib/armv7-m/libg_nano.a(lib_a-strspn.o)
 .data          0x0000000000000000        0x0 /usr/bin/../lib/gcc/arm-none-eabi/4.9.3/../../../../arm-none-eabi/lib/armv7-m/libg_nano.a(lib_a-strspn.o)
 .bss           0x0000000000000000        0x0 /usr/bin/../lib/gcc/arm-none-eabi/4.9.3/../../../../arm-none-eabi/lib/armv7-m/libg_nano.a(lib_a-strspn.o)
 .text          0x0000000000000000        0x0 /usr/bin/../lib/gcc/arm-none-eabi/4.9.3/../../../../arm-none-eabi/lib/armv7-m/libg_nano.a(lib_a-strstr.o)
 .data          0x0000000000000000        0x0 /usr/bin/../lib/gcc/arm-none-eabi/4.9.3/../../../../arm-none-eabi/lib/armv7-m/libg_nano.a(lib_a-strstr.o)
 .bss           0x0000000000000000        0x0 /usr/bin/../lib/gcc/arm-none-eabi/4.9.3/../../../../arm-none-eabi/lib/armv7-m/libg_nano.a(lib_a-strstr.o)
 .text          0x0000000000000000        0x0 obj/main/NAZE/drivers/bus_i2c_stm32f10x.o (symbol from plugin)
 .text          0x0000000000000000        0x0 obj/main/NAZE/drivers/dma.o (symbol from plugin)
 .text          0x0000000000000000        0x0 obj/main/NAZE/drivers/gpio_stm32f10x.o (symbol from plugin)
 .text          0x0000000000000000        0x0 obj/main/NAZE/drivers/inverter.o (symbol from plugin)
 .text          0x0000000000000000        0x0 obj/main/NAZE/drivers/serial_softserial.o (symbol from plugin)
 .text          0x0000000000000000        0x0 obj/main/NAZE/drivers/serial_uart_stm32f10x.o (symbol from plugin)
 .text          0x0000000000000000        0x0 obj/main/NAZE/drivers/system_stm32f10x.o (symbol from plugin)
 .text          0x0000000000000000        0x0 obj/main/NAZE/drivers/timer_stm32f10x.o (symbol from plugin)
 .text          0x0000000000000000        0x0 obj/main/NAZE/drivers/accgyro/accgyro_mpu.o (symbol from plugin)
 .text          0x0000000000000000        0x0 obj/main/NAZE/drivers/accgyro/accgyro_mpu6050.o (symbol from plugin)
 .text          0x0000000000000000        0x0 obj/main/NAZE/drivers/accgyro/accgyro_mpu6500.o (symbol from plugin)
 .text          0x0000000000000000        0x0 obj/main/NAZE/drivers/accgyro/accgyro_spi_mpu6500.o (symbol from plugin)
 .text          0x0000000000000000        0x0 obj/main/NAZE/drivers/barometer/barometer_bmp280.o (symbol from plugin)
 .text          0x0000000000000000        0x0 obj/main/NAZE/drivers/barometer/barometer_ms56xx.o (symbol from plugin)
 .text          0x0000000000000000        0x0 obj/main/NAZE/drivers/compass/compass_hmc5883l.o (symbol from plugin)
 .text          0x0000000000000000        0x0 obj/main/NAZE/drivers/compass/compass_qmc5883l.o (symbol from plugin)
 .text          0x0000000000000000        0x0 obj/main/NAZE/drivers/flash_m25p16.o (symbol from plugin)
 .text          0x0000000000000000        0x0 obj/main/NAZE/drivers/light_ws2811strip.o (symbol from plugin)
 .text          0x0000000000000000        0x0 obj/main/NAZE/drivers/light_ws2811strip_stdperiph.o (symbol from plugin)
 .text          0x0000000000000000        0x0 obj/main/NAZE/io/flashfs.o (symbol from plugin)
 .text          0x0000000000000000        0x0 obj/main/NAZE/hardware_revision.o (symbol from plugin)
 .text          0x0000000000000000        0x0 obj/main/NAZE/blackbox/blackbox.o (symbol from plugin)
 .text          0x0000000000000000        0x0 obj/main/NAZE/blackbox/blackbox_encoding.o (symbol from plugin)
 .text          0x0000000000000000        0x0 obj/main/NAZE/blackbox/blackbox_io.o (symbol from plugin)
 .text          0x0000000000000000        0x0 obj/main/NAZE/cms/cms.o (symbol from plugin)
 .text          0x0000000000000000        0x0 obj/main/NAZE/cms/cms_menu_blackbox.o (symbol from plugin)
 .text          0x0000000000000000        0x0 obj/main/NAZE/cms/cms_menu_builtin.o (symbol from plugin)
 .text          0x0000000000000000        0x0 obj/main/NAZE/cms/cms_menu_imu.o (symbol from plugin)
 .text          0x0000000000000000        0x0 obj/main/NAZE/cms/cms_menu_ledstrip.o (symbol from plugin)
 .text          0x0000000000000000        0x0 obj/main/NAZE/cms/cms_menu_misc.o (symbol from plugin)
 .text          0x0000000000000000        0x0 obj/main/NAZE/cms/cms_menu_osd.o (symbol from plugin)
 .text          0x0000000000000000        0x0 obj/main/NAZE/common/colorconversion.o (symbol from plugin)
 .text          0x0000000000000000        0x0 obj/main/NAZE/common/gps_conversion.o (symbol from plugin)
 .text          0x0000000000000000        0x0 obj/main/NAZE/drivers/display_ug2864hsweg01.o (symbol from plugin)
 .text          0x0000000000000000        0x0 obj/main/NAZE/drivers/rangefinder_hcsr04.o (symbol from plugin)
 .text          0x0000000000000000        0x0 obj/main/NAZE/drivers/rangefinder_hcsr04_i2c.o (symbol from plugin)
 .text          0x0000000000000000        0x0 obj/main/NAZE/drivers/rangefinder_srf10.o (symbol from plugin)
 .text          0x0000000000000000        0x0 obj/main/NAZE/drivers/rangefinder_vl53l0x.o (symbol from plugin)
 .text          0x0000000000000000        0x0 obj/main/NAZE/io/dashboard.o (symbol from plugin)
 .text          0x0000000000000000        0x0 obj/main/NAZE/io/displayport_max7456.o (symbol from plugin)
 .text          0x0000000000000000        0x0 obj/main/NAZE/io/displayport_msp.o (symbol from plugin)
 .text          0x0000000000000000        0x0 obj/main/NAZE/io/displayport_oled.o (symbol from plugin)
 .text          0x0000000000000000        0x0 obj/main/NAZE/io/gps.o (symbol from plugin)
 .text          0x0000000000000000        0x0 obj/main/NAZE/io/gps_ublox.o (symbol from plugin)
 .text          0x0000000000000000        0x0 obj/main/NAZE/io/gps_nmea.o (symbol from plugin)
 .text          0x0000000000000000        0x0 obj/main/NAZE/io/gps_naza.o (symbol from plugin)
 .text          0x0000000000000000        0x0 obj/main/NAZE/io/gps_i2cnav.o (symbol from plugin)
 .text          0x0000000000000000        0x0 obj/main/NAZE/io/ledstrip.o (symbol from plugin)
 .text          0x0000000000000000        0x0 obj/main/NAZE/io/osd.o (symbol from plugin)
 .text          0x0000000000000000        0x0 obj/main/NAZE/navigation/navigation.o (symbol from plugin)
 .text          0x0000000000000000        0x0 obj/main/NAZE/navigation/navigation_fixedwing.o (symbol from plugin)
 .text          0x0000000000000000        0x0 obj/main/NAZE/navigation/navigation_fw_launch.o (symbol from plugin)
 .text          0x0000000000000000        0x0 obj/main/NAZE/navigation/navigation_geo.o (symbol from plugin)
 .text          0x0000000000000000        0x0 obj/main/NAZE/navigation/navigation_multicopter.o (symbol from plugin)
 .text          0x0000000000000000        0x0 obj/main/NAZE/navigation/navigation_pos_estimator.o (symbol from plugin)
 .text          0x0000000000000000        0x0 obj/main/NAZE/sensors/barometer.o (symbol from plugin)
 .text          0x0000000000000000        0x0 obj/main/NAZE/sensors/pitotmeter.o (symbol from plugin)
 .text          0x0000000000000000        0x0 obj/main/NAZE/sensors/rangefinder.o (symbol from plugin)
 .text          0x0000000000000000        0x0 obj/main/NAZE/telemetry/crsf.o (symbol from plugin)
 .text          0x0000000000000000        0x0 obj/main/NAZE/telemetry/frsky.o (symbol from plugin)
 .text          0x0000000000000000        0x0 obj/main/NAZE/telemetry/hott.o (symbol from plugin)
 .text          0x0000000000000000        0x0 obj/main/NAZE/telemetry/ibus_shared.o (symbol from plugin)
 .text          0x0000000000000000        0x0 obj/main/NAZE/telemetry/ibus.o (symbol from plugin)
 .text          0x0000000000000000        0x0 obj/main/NAZE/telemetry/ltm.o (symbol from plugin)
 .text          0x0000000000000000        0x0 obj/main/NAZE/telemetry/mavlink.o (symbol from plugin)
 .text          0x0000000000000000        0x0 obj/main/NAZE/telemetry/smartport.o (symbol from plugin)
 .text          0x0000000000000000        0x0 obj/main/NAZE/telemetry/telemetry.o (symbol from plugin)
 .text          0x0000000000000000        0x0 obj/main/NAZE/target.o (symbol from plugin)
 .text          0x0000000000000000        0x0 obj/main/NAZE/main.o (symbol from plugin)
 .text          0x0000000000000000        0x0 obj/main/NAZE/build/assert.o (symbol from plugin)
 .text          0x0000000000000000        0x0 obj/main/NAZE/build/build_config.o (symbol from plugin)
 .text          0x0000000000000000        0x0 obj/main/NAZE/build/debug.o (symbol from plugin)
 .text          0x0000000000000000        0x0 obj/main/NAZE/build/version.o (symbol from plugin)
 .text          0x0000000000000000        0x0 obj/main/NAZE/common/bitarray.o (symbol from plugin)
 .text          0x0000000000000000        0x0 obj/main/NAZE/common/crc.o (symbol from plugin)
 .text          0x0000000000000000        0x0 obj/main/NAZE/common/encoding.o (symbol from plugin)
 .text          0x0000000000000000        0x0 obj/main/NAZE/common/filter.o (symbol from plugin)
 .text          0x0000000000000000        0x0 obj/main/NAZE/common/maths.o (symbol from plugin)
 .text          0x0000000000000000        0x0 obj/main/NAZE/common/printf.o (symbol from plugin)
 .text          0x0000000000000000        0x0 obj/main/NAZE/common/streambuf.o (symbol from plugin)
 .text          0x0000000000000000        0x0 obj/main/NAZE/common/typeconversion.o (symbol from plugin)
 .text          0x0000000000000000        0x0 obj/main/NAZE/common/string_light.o (symbol from plugin)
 .text          0x0000000000000000        0x0 obj/main/NAZE/config/config_eeprom.o (symbol from plugin)
 .text          0x0000000000000000        0x0 obj/main/NAZE/config/config_streamer.o (symbol from plugin)
 .text          0x0000000000000000        0x0 obj/main/NAZE/config/feature.o (symbol from plugin)
 .text          0x0000000000000000        0x0 obj/main/NAZE/config/parameter_group.o (symbol from plugin)
 .text          0x0000000000000000        0x0 obj/main/NAZE/drivers/adc.o (symbol from plugin)
 .text          0x0000000000000000        0x0 obj/main/NAZE/drivers/buf_writer.o (symbol from plugin)
 .text          0x0000000000000000        0x0 obj/main/NAZE/drivers/bus_i2c_soft.o (symbol from plugin)
 .text          0x0000000000000000        0x0 obj/main/NAZE/drivers/bus_spi.o (symbol from plugin)
 .text          0x0000000000000000        0x0 obj/main/NAZE/drivers/bus_spi_soft.o (symbol from plugin)
 .text          0x0000000000000000        0x0 obj/main/NAZE/drivers/display.o (symbol from plugin)
 .text          0x0000000000000000        0x0 obj/main/NAZE/drivers/exti.o (symbol from plugin)
 .text          0x0000000000000000        0x0 obj/main/NAZE/drivers/gps_i2cnav.o (symbol from plugin)
 .text          0x0000000000000000        0x0 obj/main/NAZE/drivers/gyro_sync.o (symbol from plugin)
 .text          0x0000000000000000        0x0 obj/main/NAZE/drivers/io.o (symbol from plugin)
 .text          0x0000000000000000        0x0 obj/main/NAZE/drivers/io_pca9685.o (symbol from plugin)
 .text          0x0000000000000000        0x0 obj/main/NAZE/drivers/light_led.o (symbol from plugin)
 .text          0x0000000000000000        0x0 obj/main/NAZE/drivers/logging.o (symbol from plugin)
 .text          0x0000000000000000        0x0 obj/main/NAZE/drivers/rx_nrf24l01.o (symbol from plugin)
 .text          0x0000000000000000        0x0 obj/main/NAZE/drivers/rx_spi.o (symbol from plugin)
 .text          0x0000000000000000        0x0 obj/main/NAZE/drivers/rx_xn297.o (symbol from plugin)
 .text          0x0000000000000000        0x0 obj/main/NAZE/drivers/pitotmeter_adc.o (symbol from plugin)
 .text          0x0000000000000000        0x0 obj/main/NAZE/drivers/pwm_esc_detect.o (symbol from plugin)
 .text          0x0000000000000000        0x0 obj/main/NAZE/drivers/pwm_mapping.o (symbol from plugin)
 .text          0x0000000000000000        0x0 obj/main/NAZE/drivers/pwm_output.o (symbol from plugin)
 .text          0x0000000000000000        0x0 obj/main/NAZE/drivers/rcc.o (symbol from plugin)
 .text          0x0000000000000000        0x0 obj/main/NAZE/drivers/rx_pwm.o (symbol from plugin)
 .text          0x0000000000000000        0x0 obj/main/NAZE/drivers/serial.o (symbol from plugin)
 .text          0x0000000000000000        0x0 obj/main/NAZE/drivers/serial_uart.o (symbol from plugin)
 .text          0x0000000000000000        0x0 obj/main/NAZE/drivers/sound_beeper.o (symbol from plugin)
 .text          0x0000000000000000        0x0 obj/main/NAZE/drivers/stack_check.o (symbol from plugin)
 .text          0x0000000000000000        0x0 obj/main/NAZE/drivers/system.o (symbol from plugin)
 .text          0x0000000000000000        0x0 obj/main/NAZE/drivers/timer.o (symbol from plugin)
 .text          0x0000000000000000        0x0 obj/main/NAZE/fc/cli.o (symbol from plugin)
 .text          0x0000000000000000        0x0 obj/main/NAZE/fc/config.o (symbol from plugin)
 .text          0x0000000000000000        0x0 obj/main/NAZE/fc/controlrate_profile.o (symbol from plugin)
 .text          0x0000000000000000        0x0 obj/main/NAZE/fc/fc_core.o (symbol from plugin)
 .text          0x0000000000000000        0x0 obj/main/NAZE/fc/fc_init.o (symbol from plugin)
 .text          0x0000000000000000        0x0 obj/main/NAZE/fc/fc_tasks.o (symbol from plugin)
 .text          0x0000000000000000        0x0 obj/main/NAZE/fc/fc_hardfaults.o (symbol from plugin)
 .text          0x0000000000000000        0x0 obj/main/NAZE/fc/fc_msp.o (symbol from plugin)
 .text          0x0000000000000000        0x0 obj/main/NAZE/fc/rc_adjustments.o (symbol from plugin)
 .text          0x0000000000000000        0x0 obj/main/NAZE/fc/rc_controls.o (symbol from plugin)
 .text          0x0000000000000000        0x0 obj/main/NAZE/fc/rc_curves.o (symbol from plugin)
 .text          0x0000000000000000        0x0 obj/main/NAZE/fc/rc_modes.o (symbol from plugin)
 .text          0x0000000000000000        0x0 obj/main/NAZE/fc/runtime_config.o (symbol from plugin)
 .text          0x0000000000000000        0x0 obj/main/NAZE/fc/settings.o (symbol from plugin)
 .text          0x0000000000000000        0x0 obj/main/NAZE/fc/stats.o (symbol from plugin)
 .text          0x0000000000000000        0x0 obj/main/NAZE/flight/failsafe.o (symbol from plugin)
 .text          0x0000000000000000        0x0 obj/main/NAZE/flight/hil.o (symbol from plugin)
 .text          0x0000000000000000        0x0 obj/main/NAZE/flight/imu.o (symbol from plugin)
 .text          0x0000000000000000        0x0 obj/main/NAZE/flight/mixer.o (symbol from plugin)
 .text          0x0000000000000000        0x0 obj/main/NAZE/flight/pid.o (symbol from plugin)
 .text          0x0000000000000000        0x0 obj/main/NAZE/flight/pid_autotune.o (symbol from plugin)
 .text          0x0000000000000000        0x0 obj/main/NAZE/flight/servos.o (symbol from plugin)
 .text          0x0000000000000000        0x0 obj/main/NAZE/io/beeper.o (symbol from plugin)
 .text          0x0000000000000000        0x0 obj/main/NAZE/io/pwmdriver_i2c.o (symbol from plugin)
 .text          0x0000000000000000        0x0 obj/main/NAZE/io/serial.o (symbol from plugin)
 .text          0x0000000000000000        0x0 obj/main/NAZE/io/serial_4way.o (symbol from plugin)
 .text          0x0000000000000000        0x0 obj/main/NAZE/io/serial_4way_avrootloader.o (symbol from plugin)
 .text          0x0000000000000000        0x0 obj/main/NAZE/io/serial_4way_stk500v2.o (symbol from plugin)
 .text          0x0000000000000000        0x0 obj/main/NAZE/io/statusindicator.o (symbol from plugin)
 .text          0x0000000000000000        0x0 obj/main/NAZE/io/rcsplit.o (symbol from plugin)
 .text          0x0000000000000000        0x0 obj/main/NAZE/msp/msp_serial.o (symbol from plugin)
 .text          0x0000000000000000        0x0 obj/main/NAZE/rx/ibus.o (symbol from plugin)
 .text          0x0000000000000000        0x0 obj/main/NAZE/rx/jetiexbus.o (symbol from plugin)
 .text          0x0000000000000000        0x0 obj/main/NAZE/rx/msp.o (symbol from plugin)
 .text          0x0000000000000000        0x0 obj/main/NAZE/rx/nrf24_cx10.o (symbol from plugin)
 .text          0x0000000000000000        0x0 obj/main/NAZE/rx/nrf24_inav.o (symbol from plugin)
 .text          0x0000000000000000        0x0 obj/main/NAZE/rx/nrf24_h8_3d.o (symbol from plugin)
 .text          0x0000000000000000        0x0 obj/main/NAZE/rx/nrf24_syma.o (symbol from plugin)
 .text          0x0000000000000000        0x0 obj/main/NAZE/rx/nrf24_v202.o (symbol from plugin)
 .text          0x0000000000000000        0x0 obj/main/NAZE/rx/pwm.o (symbol from plugin)
 .text          0x0000000000000000        0x0 obj/main/NAZE/rx/rx.o (symbol from plugin)
 .text          0x0000000000000000        0x0 obj/main/NAZE/rx/rx_spi.o (symbol from plugin)
 .text          0x0000000000000000        0x0 obj/main/NAZE/rx/crsf.o (symbol from plugin)
 .text          0x0000000000000000        0x0 obj/main/NAZE/rx/sbus.o (symbol from plugin)
 .text          0x0000000000000000        0x0 obj/main/NAZE/rx/spektrum.o (symbol from plugin)
 .text          0x0000000000000000        0x0 obj/main/NAZE/rx/sumd.o (symbol from plugin)
 .text          0x0000000000000000        0x0 obj/main/NAZE/rx/sumh.o (symbol from plugin)
 .text          0x0000000000000000        0x0 obj/main/NAZE/rx/xbus.o (symbol from plugin)
 .text          0x0000000000000000        0x0 obj/main/NAZE/rx/eleres.o (symbol from plugin)
 .text          0x0000000000000000        0x0 obj/main/NAZE/scheduler/scheduler.o (symbol from plugin)
 .text          0x0000000000000000        0x0 obj/main/NAZE/sensors/acceleration.o (symbol from plugin)
 .text          0x0000000000000000        0x0 obj/main/NAZE/sensors/battery.o (symbol from plugin)
 .text          0x0000000000000000        0x0 obj/main/NAZE/sensors/boardalignment.o (symbol from plugin)
 .text          0x0000000000000000        0x0 obj/main/NAZE/sensors/compass.o (symbol from plugin)
 .text          0x0000000000000000        0x0 obj/main/NAZE/sensors/diagnostics.o (symbol from plugin)
 .text          0x0000000000000000        0x0 obj/main/NAZE/sensors/gyro.o (symbol from plugin)
 .text          0x0000000000000000        0x0 obj/main/NAZE/sensors/initialisation.o (symbol from plugin)
 .text          0x0000000000000000        0x0 obj/main/NAZE/system_stm32f10x.o (symbol from plugin)
 .text          0x0000000000000000        0x0 obj/main/NAZE/misc.o (symbol from plugin)
 .text          0x0000000000000000        0x0 obj/main/NAZE/stm32f10x_adc.o (symbol from plugin)
 .text          0x0000000000000000        0x0 obj/main/NAZE/stm32f10x_bkp.o (symbol from plugin)
 .text          0x0000000000000000        0x0 obj/main/NAZE/stm32f10x_dac.o (symbol from plugin)
 .text          0x0000000000000000        0x0 obj/main/NAZE/stm32f10x_dbgmcu.o (symbol from plugin)
 .text          0x0000000000000000        0x0 obj/main/NAZE/stm32f10x_dma.o (symbol from plugin)
 .text          0x0000000000000000        0x0 obj/main/NAZE/stm32f10x_exti.o (symbol from plugin)
 .text          0x0000000000000000        0x0 obj/main/NAZE/stm32f10x_flash.o (symbol from plugin)
 .text          0x0000000000000000        0x0 obj/main/NAZE/stm32f10x_fsmc.o (symbol from plugin)
 .text          0x0000000000000000        0x0 obj/main/NAZE/stm32f10x_gpio.o (symbol from plugin)
 .text          0x0000000000000000        0x0 obj/main/NAZE/stm32f10x_i2c.o (symbol from plugin)
 .text          0x0000000000000000        0x0 obj/main/NAZE/stm32f10x_iwdg.o (symbol from plugin)
 .text          0x0000000000000000        0x0 obj/main/NAZE/stm32f10x_pwr.o (symbol from plugin)
 .text          0x0000000000000000        0x0 obj/main/NAZE/stm32f10x_rcc.o (symbol from plugin)
 .text          0x0000000000000000        0x0 obj/main/NAZE/stm32f10x_rtc.o (symbol from plugin)
 .text          0x0000000000000000        0x0 obj/main/NAZE/stm32f10x_sdio.o (symbol from plugin)
 .text          0x0000000000000000        0x0 obj/main/NAZE/stm32f10x_spi.o (symbol from plugin)
 .text          0x0000000000000000        0x0 obj/main/NAZE/stm32f10x_tim.o (symbol from plugin)
 .text          0x0000000000000000        0x0 obj/main/NAZE/stm32f10x_usart.o (symbol from plugin)
 .text          0x0000000000000000        0x0 obj/main/NAZE/stm32f10x_wwdg.o (symbol from plugin)
 .text          0x0000000000000000        0x0 /usr/bin/../lib/gcc/arm-none-eabi/4.9.3/../../../../arm-none-eabi/lib/armv7-m/libm.a(lib_a-sf_fpclassify.o)
 .data          0x0000000000000000        0x0 /usr/bin/../lib/gcc/arm-none-eabi/4.9.3/../../../../arm-none-eabi/lib/armv7-m/libm.a(lib_a-sf_fpclassify.o)
 .bss           0x0000000000000000        0x0 /usr/bin/../lib/gcc/arm-none-eabi/4.9.3/../../../../arm-none-eabi/lib/armv7-m/libm.a(lib_a-sf_fpclassify.o)
 .text          0x0000000000000000        0x0 /usr/bin/../lib/gcc/arm-none-eabi/4.9.3/../../../../arm-none-eabi/lib/armv7-m/libc_nano.a(lib_a-strtok.o)
 .data          0x0000000000000000        0x0 /usr/bin/../lib/gcc/arm-none-eabi/4.9.3/../../../../arm-none-eabi/lib/armv7-m/libc_nano.a(lib_a-strtok.o)
 .bss           0x0000000000000000        0x0 /usr/bin/../lib/gcc/arm-none-eabi/4.9.3/../../../../arm-none-eabi/lib/armv7-m/libc_nano.a(lib_a-strtok.o)
 .text          0x0000000000000000        0x0 /usr/bin/../lib/gcc/arm-none-eabi/4.9.3/../../../../arm-none-eabi/lib/armv7-m/libc_nano.a(lib_a-strtok_r.o)
 .data          0x0000000000000000        0x0 /usr/bin/../lib/gcc/arm-none-eabi/4.9.3/../../../../arm-none-eabi/lib/armv7-m/libc_nano.a(lib_a-strtok_r.o)
 .bss           0x0000000000000000        0x0 /usr/bin/../lib/gcc/arm-none-eabi/4.9.3/../../../../arm-none-eabi/lib/armv7-m/libc_nano.a(lib_a-strtok_r.o)
 .text          0x0000000000000000        0x0 /usr/bin/../lib/gcc/arm-none-eabi/4.9.3/../../../../arm-none-eabi/lib/armv7-m/libc_nano.a(lib_a-impure.o)
 .data          0x0000000000000000        0x0 /usr/bin/../lib/gcc/arm-none-eabi/4.9.3/../../../../arm-none-eabi/lib/armv7-m/libc_nano.a(lib_a-impure.o)
 .bss           0x0000000000000000        0x0 /usr/bin/../lib/gcc/arm-none-eabi/4.9.3/../../../../arm-none-eabi/lib/armv7-m/libc_nano.a(lib_a-impure.o)
 .rodata._global_impure_ptr
                0x0000000000000000        0x4 /usr/bin/../lib/gcc/arm-none-eabi/4.9.3/../../../../arm-none-eabi/lib/armv7-m/libc_nano.a(lib_a-impure.o)
 .text          0x0000000000000000        0x0 /usr/bin/../lib/gcc/arm-none-eabi/4.9.3/../../../../arm-none-eabi/lib/armv7-m/libc_nano.a(lib_a-malloc.o)
 .data          0x0000000000000000        0x0 /usr/bin/../lib/gcc/arm-none-eabi/4.9.3/../../../../arm-none-eabi/lib/armv7-m/libc_nano.a(lib_a-malloc.o)
 .bss           0x0000000000000000        0x0 /usr/bin/../lib/gcc/arm-none-eabi/4.9.3/../../../../arm-none-eabi/lib/armv7-m/libc_nano.a(lib_a-malloc.o)
 .text.free     0x0000000000000000       0x10 /usr/bin/../lib/gcc/arm-none-eabi/4.9.3/../../../../arm-none-eabi/lib/armv7-m/libc_nano.a(lib_a-malloc.o)
 .text          0x0000000000000000        0x0 /usr/bin/../lib/gcc/arm-none-eabi/4.9.3/../../../../arm-none-eabi/lib/armv7-m/libc_nano.a(lib_a-nano-freer.o)
 .data          0x0000000000000000        0x0 /usr/bin/../lib/gcc/arm-none-eabi/4.9.3/../../../../arm-none-eabi/lib/armv7-m/libc_nano.a(lib_a-nano-freer.o)
 .bss           0x0000000000000000        0x0 /usr/bin/../lib/gcc/arm-none-eabi/4.9.3/../../../../arm-none-eabi/lib/armv7-m/libc_nano.a(lib_a-nano-freer.o)
 .text._free_r  0x0000000000000000       0x88 /usr/bin/../lib/gcc/arm-none-eabi/4.9.3/../../../../arm-none-eabi/lib/armv7-m/libc_nano.a(lib_a-nano-freer.o)
 .debug_frame   0x0000000000000000       0x2c /usr/bin/../lib/gcc/arm-none-eabi/4.9.3/../../../../arm-none-eabi/lib/armv7-m/libc_nano.a(lib_a-nano-freer.o)
 .ARM.attributes
                0x0000000000000000       0x2d /usr/bin/../lib/gcc/arm-none-eabi/4.9.3/../../../../arm-none-eabi/lib/armv7-m/libc_nano.a(lib_a-nano-freer.o)
 .text          0x0000000000000000        0x0 /usr/bin/../lib/gcc/arm-none-eabi/4.9.3/../../../../arm-none-eabi/lib/armv7-m/libc_nano.a(lib_a-nano-mallocr.o)
 .data          0x0000000000000000        0x0 /usr/bin/../lib/gcc/arm-none-eabi/4.9.3/../../../../arm-none-eabi/lib/armv7-m/libc_nano.a(lib_a-nano-mallocr.o)
 .bss           0x0000000000000000        0x0 /usr/bin/../lib/gcc/arm-none-eabi/4.9.3/../../../../arm-none-eabi/lib/armv7-m/libc_nano.a(lib_a-nano-mallocr.o)
 .text          0x0000000000000000        0x0 /usr/bin/../lib/gcc/arm-none-eabi/4.9.3/../../../../arm-none-eabi/lib/armv7-m/libc_nano.a(lib_a-sbrkr.o)
 .data          0x0000000000000000        0x0 /usr/bin/../lib/gcc/arm-none-eabi/4.9.3/../../../../arm-none-eabi/lib/armv7-m/libc_nano.a(lib_a-sbrkr.o)
 .bss           0x0000000000000000        0x0 /usr/bin/../lib/gcc/arm-none-eabi/4.9.3/../../../../arm-none-eabi/lib/armv7-m/libc_nano.a(lib_a-sbrkr.o)
 .text          0x0000000000000000        0x0 /usr/bin/../lib/gcc/arm-none-eabi/4.9.3/../../../../arm-none-eabi/lib/armv7-m/libc_nano.a(lib_a-reent.o)
 .data          0x0000000000000000        0x0 /usr/bin/../lib/gcc/arm-none-eabi/4.9.3/../../../../arm-none-eabi/lib/armv7-m/libc_nano.a(lib_a-reent.o)
 .bss           0x0000000000000000        0x0 /usr/bin/../lib/gcc/arm-none-eabi/4.9.3/../../../../arm-none-eabi/lib/armv7-m/libc_nano.a(lib_a-reent.o)
 .text.cleanup_glue
                0x0000000000000000       0x1a /usr/bin/../lib/gcc/arm-none-eabi/4.9.3/../../../../arm-none-eabi/lib/armv7-m/libc_nano.a(lib_a-reent.o)
 .text._reclaim_reent
                0x0000000000000000       0xb4 /usr/bin/../lib/gcc/arm-none-eabi/4.9.3/../../../../arm-none-eabi/lib/armv7-m/libc_nano.a(lib_a-reent.o)
 .text          0x0000000000000000        0x0 /usr/bin/../lib/gcc/arm-none-eabi/4.9.3/../../../../arm-none-eabi/lib/armv7-m/libnosys.a(sbrk.o)
 .data          0x0000000000000000        0x0 /usr/bin/../lib/gcc/arm-none-eabi/4.9.3/../../../../arm-none-eabi/lib/armv7-m/libnosys.a(sbrk.o)
 .bss           0x0000000000000000        0x0 /usr/bin/../lib/gcc/arm-none-eabi/4.9.3/../../../../arm-none-eabi/lib/armv7-m/libnosys.a(sbrk.o)
 .text          0x0000000000000000        0x0 /usr/bin/../lib/gcc/arm-none-eabi/4.9.3/../../../../arm-none-eabi/lib/armv7-m/libm.a(lib_a-sf_lrint.o)
 .data          0x0000000000000000        0x0 /usr/bin/../lib/gcc/arm-none-eabi/4.9.3/../../../../arm-none-eabi/lib/armv7-m/libm.a(lib_a-sf_lrint.o)
 .bss           0x0000000000000000        0x0 /usr/bin/../lib/gcc/arm-none-eabi/4.9.3/../../../../arm-none-eabi/lib/armv7-m/libm.a(lib_a-sf_lrint.o)
 .text          0x0000000000000000        0x0 /usr/bin/../lib/gcc/arm-none-eabi/4.9.3/../../../../arm-none-eabi/lib/armv7-m/libm.a(lib_a-wf_pow.o)
 .data          0x0000000000000000        0x0 /usr/bin/../lib/gcc/arm-none-eabi/4.9.3/../../../../arm-none-eabi/lib/armv7-m/libm.a(lib_a-wf_pow.o)
 .bss           0x0000000000000000        0x0 /usr/bin/../lib/gcc/arm-none-eabi/4.9.3/../../../../arm-none-eabi/lib/armv7-m/libm.a(lib_a-wf_pow.o)
 .text          0x0000000000000000        0x0 /usr/bin/../lib/gcc/arm-none-eabi/4.9.3/../../../../arm-none-eabi/lib/armv7-m/libm.a(lib_a-wf_sqrt.o)
 .data          0x0000000000000000        0x0 /usr/bin/../lib/gcc/arm-none-eabi/4.9.3/../../../../arm-none-eabi/lib/armv7-m/libm.a(lib_a-wf_sqrt.o)
 .bss           0x0000000000000000        0x0 /usr/bin/../lib/gcc/arm-none-eabi/4.9.3/../../../../arm-none-eabi/lib/armv7-m/libm.a(lib_a-wf_sqrt.o)
 .text          0x0000000000000000        0x0 /usr/bin/../lib/gcc/arm-none-eabi/4.9.3/../../../../arm-none-eabi/lib/armv7-m/libm.a(lib_a-ef_pow.o)
 .data          0x0000000000000000        0x0 /usr/bin/../lib/gcc/arm-none-eabi/4.9.3/../../../../arm-none-eabi/lib/armv7-m/libm.a(lib_a-ef_pow.o)
 .bss           0x0000000000000000        0x0 /usr/bin/../lib/gcc/arm-none-eabi/4.9.3/../../../../arm-none-eabi/lib/armv7-m/libm.a(lib_a-ef_pow.o)
 .text          0x0000000000000000        0x0 /usr/bin/../lib/gcc/arm-none-eabi/4.9.3/../../../../arm-none-eabi/lib/armv7-m/libm.a(lib_a-ef_sqrt.o)
 .data          0x0000000000000000        0x0 /usr/bin/../lib/gcc/arm-none-eabi/4.9.3/../../../../arm-none-eabi/lib/armv7-m/libm.a(lib_a-ef_sqrt.o)
 .bss           0x0000000000000000        0x0 /usr/bin/../lib/gcc/arm-none-eabi/4.9.3/../../../../arm-none-eabi/lib/armv7-m/libm.a(lib_a-ef_sqrt.o)
 .text          0x0000000000000000        0x0 /usr/bin/../lib/gcc/arm-none-eabi/4.9.3/../../../../arm-none-eabi/lib/armv7-m/libm.a(lib_a-s_lib_ver.o)
 .data          0x0000000000000000        0x0 /usr/bin/../lib/gcc/arm-none-eabi/4.9.3/../../../../arm-none-eabi/lib/armv7-m/libm.a(lib_a-s_lib_ver.o)
 .bss           0x0000000000000000        0x0 /usr/bin/../lib/gcc/arm-none-eabi/4.9.3/../../../../arm-none-eabi/lib/armv7-m/libm.a(lib_a-s_lib_ver.o)
 .text          0x0000000000000000        0x0 /usr/bin/../lib/gcc/arm-none-eabi/4.9.3/../../../../arm-none-eabi/lib/armv7-m/libm.a(lib_a-s_matherr.o)
 .data          0x0000000000000000        0x0 /usr/bin/../lib/gcc/arm-none-eabi/4.9.3/../../../../arm-none-eabi/lib/armv7-m/libm.a(lib_a-s_matherr.o)
 .bss           0x0000000000000000        0x0 /usr/bin/../lib/gcc/arm-none-eabi/4.9.3/../../../../arm-none-eabi/lib/armv7-m/libm.a(lib_a-s_matherr.o)
 .text          0x0000000000000000        0x0 /usr/bin/../lib/gcc/arm-none-eabi/4.9.3/../../../../arm-none-eabi/lib/armv7-m/libm.a(lib_a-s_rint.o)
 .data          0x0000000000000000        0x0 /usr/bin/../lib/gcc/arm-none-eabi/4.9.3/../../../../arm-none-eabi/lib/armv7-m/libm.a(lib_a-s_rint.o)
 .bss           0x0000000000000000        0x0 /usr/bin/../lib/gcc/arm-none-eabi/4.9.3/../../../../arm-none-eabi/lib/armv7-m/libm.a(lib_a-s_rint.o)
 .text          0x0000000000000000        0x0 /usr/bin/../lib/gcc/arm-none-eabi/4.9.3/../../../../arm-none-eabi/lib/armv7-m/libm.a(lib_a-sf_fabs.o)
 .data          0x0000000000000000        0x0 /usr/bin/../lib/gcc/arm-none-eabi/4.9.3/../../../../arm-none-eabi/lib/armv7-m/libm.a(lib_a-sf_fabs.o)
 .bss           0x0000000000000000        0x0 /usr/bin/../lib/gcc/arm-none-eabi/4.9.3/../../../../arm-none-eabi/lib/armv7-m/libm.a(lib_a-sf_fabs.o)
 .text          0x0000000000000000        0x0 /usr/bin/../lib/gcc/arm-none-eabi/4.9.3/../../../../arm-none-eabi/lib/armv7-m/libm.a(lib_a-sf_finite.o)
 .data          0x0000000000000000        0x0 /usr/bin/../lib/gcc/arm-none-eabi/4.9.3/../../../../arm-none-eabi/lib/armv7-m/libm.a(lib_a-sf_finite.o)
 .bss           0x0000000000000000        0x0 /usr/bin/../lib/gcc/arm-none-eabi/4.9.3/../../../../arm-none-eabi/lib/armv7-m/libm.a(lib_a-sf_finite.o)
 .text          0x0000000000000000        0x0 /usr/bin/../lib/gcc/arm-none-eabi/4.9.3/../../../../arm-none-eabi/lib/armv7-m/libm.a(lib_a-sf_nan.o)
 .data          0x0000000000000000        0x0 /usr/bin/../lib/gcc/arm-none-eabi/4.9.3/../../../../arm-none-eabi/lib/armv7-m/libm.a(lib_a-sf_nan.o)
 .bss           0x0000000000000000        0x0 /usr/bin/../lib/gcc/arm-none-eabi/4.9.3/../../../../arm-none-eabi/lib/armv7-m/libm.a(lib_a-sf_nan.o)
 .text          0x0000000000000000        0x0 /usr/bin/../lib/gcc/arm-none-eabi/4.9.3/../../../../arm-none-eabi/lib/armv7-m/libm.a(lib_a-sf_scalbn.o)
 .data          0x0000000000000000        0x0 /usr/bin/../lib/gcc/arm-none-eabi/4.9.3/../../../../arm-none-eabi/lib/armv7-m/libm.a(lib_a-sf_scalbn.o)
 .bss           0x0000000000000000        0x0 /usr/bin/../lib/gcc/arm-none-eabi/4.9.3/../../../../arm-none-eabi/lib/armv7-m/libm.a(lib_a-sf_scalbn.o)
 .text          0x0000000000000000        0x0 /usr/bin/../lib/gcc/arm-none-eabi/4.9.3/../../../../arm-none-eabi/lib/armv7-m/libm.a(lib_a-sf_copysign.o)
 .data          0x0000000000000000        0x0 /usr/bin/../lib/gcc/arm-none-eabi/4.9.3/../../../../arm-none-eabi/lib/armv7-m/libm.a(lib_a-sf_copysign.o)
 .bss           0x0000000000000000        0x0 /usr/bin/../lib/gcc/arm-none-eabi/4.9.3/../../../../arm-none-eabi/lib/armv7-m/libm.a(lib_a-sf_copysign.o)
 .text          0x0000000000000000        0x0 /usr/bin/../lib/gcc/arm-none-eabi/4.9.3/../../../../arm-none-eabi/lib/armv7-m/libc_nano.a(lib_a-errno.o)
 .data          0x0000000000000000        0x0 /usr/bin/../lib/gcc/arm-none-eabi/4.9.3/../../../../arm-none-eabi/lib/armv7-m/libc_nano.a(lib_a-errno.o)
 .bss           0x0000000000000000        0x0 /usr/bin/../lib/gcc/arm-none-eabi/4.9.3/../../../../arm-none-eabi/lib/armv7-m/libc_nano.a(lib_a-errno.o)
 .data          0x0000000000000000        0x0 /usr/bin/../lib/gcc/arm-none-eabi/4.9.3/armv7-m/libgcc.a(_arm_cmpdf2.o)
 .bss           0x0000000000000000        0x0 /usr/bin/../lib/gcc/arm-none-eabi/4.9.3/armv7-m/libgcc.a(_arm_cmpdf2.o)

Memory Configuration

Name             Origin             Length             Attributes
FLASH            0x0000000008000000 0x000000000001f800 xr
FLASH_CONFIG     0x000000000801f800 0x0000000000000800 r
RAM              0x0000000020000000 0x0000000000005000 xrw
MEMORY_B1        0x0000000060000000 0x0000000000000000 xr
*default*        0x0000000000000000 0xffffffffffffffff

Linker script and memory map

LOAD obj/main/NAZE/startup_stm32f10x_md_gcc.o
LOAD obj/main/NAZE/drivers/adc_stm32f10x.o
LOAD /tmp/ccELukx5.ltrans0.ltrans.o
LOAD /tmp/ccELukx5.ltrans1.ltrans.o
LOAD /tmp/ccELukx5.ltrans2.ltrans.o
LOAD /tmp/ccELukx5.ltrans3.ltrans.o
LOAD /tmp/ccELukx5.ltrans4.ltrans.o
LOAD /tmp/ccELukx5.ltrans5.ltrans.o
LOAD /tmp/ccELukx5.ltrans6.ltrans.o
LOAD /tmp/ccELukx5.ltrans7.ltrans.o
LOAD /tmp/ccELukx5.ltrans8.ltrans.o
LOAD /tmp/ccELukx5.ltrans9.ltrans.o
LOAD /tmp/ccELukx5.ltrans10.ltrans.o
LOAD /tmp/ccELukx5.ltrans11.ltrans.o
LOAD /tmp/ccELukx5.ltrans12.ltrans.o
LOAD /tmp/ccELukx5.ltrans13.ltrans.o
LOAD /tmp/ccELukx5.ltrans14.ltrans.o
LOAD /tmp/ccELukx5.ltrans15.ltrans.o
LOAD /tmp/ccELukx5.ltrans16.ltrans.o
LOAD /tmp/ccELukx5.ltrans17.ltrans.o
LOAD /tmp/ccELukx5.ltrans18.ltrans.o
LOAD /tmp/ccELukx5.ltrans19.ltrans.o
LOAD /tmp/ccELukx5.ltrans20.ltrans.o
LOAD /tmp/ccELukx5.ltrans21.ltrans.o
LOAD /tmp/ccELukx5.ltrans22.ltrans.o
LOAD /tmp/ccELukx5.ltrans23.ltrans.o
LOAD /tmp/ccELukx5.ltrans24.ltrans.o
LOAD /tmp/ccELukx5.ltrans25.ltrans.o
LOAD /tmp/ccELukx5.ltrans26.ltrans.o
LOAD /tmp/ccELukx5.ltrans27.ltrans.o
LOAD /tmp/ccELukx5.ltrans28.ltrans.o
LOAD /tmp/ccELukx5.ltrans29.ltrans.o
LOAD /tmp/ccELukx5.ltrans30.ltrans.o
LOAD /tmp/ccELukx5.ltrans31.ltrans.o
LOAD /usr/bin/../lib/gcc/arm-none-eabi/4.9.3/armv7-m/libgcc.a
LOAD /usr/bin/../lib/gcc/arm-none-eabi/4.9.3/../../../../arm-none-eabi/lib/armv7-m/libg_nano.a
LOAD /usr/bin/../lib/gcc/arm-none-eabi/4.9.3/../../../../arm-none-eabi/lib/armv7-m/libc_nano.a
LOAD /usr/bin/../lib/gcc/arm-none-eabi/4.9.3/armv7-m/libgcc.a
LOAD /usr/bin/../lib/gcc/arm-none-eabi/4.9.3/../../../../arm-none-eabi/lib/armv7-m/libc_nano.a
LOAD obj/main/NAZE/drivers/bus_i2c_stm32f10x.o
LOAD obj/main/NAZE/drivers/dma.o
LOAD obj/main/NAZE/drivers/gpio_stm32f10x.o
LOAD obj/main/NAZE/drivers/inverter.o
LOAD obj/main/NAZE/drivers/serial_softserial.o
LOAD obj/main/NAZE/drivers/serial_uart_stm32f10x.o
LOAD obj/main/NAZE/drivers/system_stm32f10x.o
LOAD obj/main/NAZE/drivers/timer_stm32f10x.o
LOAD obj/main/NAZE/drivers/accgyro/accgyro_mpu.o
LOAD obj/main/NAZE/drivers/accgyro/accgyro_mpu6050.o
LOAD obj/main/NAZE/drivers/accgyro/accgyro_mpu6500.o
LOAD obj/main/NAZE/drivers/accgyro/accgyro_spi_mpu6500.o
LOAD obj/main/NAZE/drivers/barometer/barometer_bmp280.o
LOAD obj/main/NAZE/drivers/barometer/barometer_ms56xx.o
LOAD obj/main/NAZE/drivers/compass/compass_hmc5883l.o
LOAD obj/main/NAZE/drivers/compass/compass_qmc5883l.o
LOAD obj/main/NAZE/drivers/flash_m25p16.o
LOAD obj/main/NAZE/drivers/light_ws2811strip.o
LOAD obj/main/NAZE/drivers/light_ws2811strip_stdperiph.o
LOAD obj/main/NAZE/io/flashfs.o
LOAD obj/main/NAZE/hardware_revision.o
LOAD obj/main/NAZE/blackbox/blackbox.o
LOAD obj/main/NAZE/blackbox/blackbox_encoding.o
LOAD obj/main/NAZE/blackbox/blackbox_io.o
LOAD obj/main/NAZE/cms/cms.o
LOAD obj/main/NAZE/cms/cms_menu_blackbox.o
LOAD obj/main/NAZE/cms/cms_menu_builtin.o
LOAD obj/main/NAZE/cms/cms_menu_imu.o
LOAD obj/main/NAZE/cms/cms_menu_ledstrip.o
LOAD obj/main/NAZE/cms/cms_menu_misc.o
LOAD obj/main/NAZE/cms/cms_menu_osd.o
LOAD obj/main/NAZE/common/colorconversion.o
LOAD obj/main/NAZE/common/gps_conversion.o
LOAD obj/main/NAZE/drivers/display_ug2864hsweg01.o
LOAD obj/main/NAZE/drivers/rangefinder_hcsr04.o
LOAD obj/main/NAZE/drivers/rangefinder_hcsr04_i2c.o
LOAD obj/main/NAZE/drivers/rangefinder_srf10.o
LOAD obj/main/NAZE/drivers/rangefinder_vl53l0x.o
LOAD obj/main/NAZE/io/dashboard.o
LOAD obj/main/NAZE/io/displayport_max7456.o
LOAD obj/main/NAZE/io/displayport_msp.o
LOAD obj/main/NAZE/io/displayport_oled.o
LOAD obj/main/NAZE/io/gps.o
LOAD obj/main/NAZE/io/gps_ublox.o
LOAD obj/main/NAZE/io/gps_nmea.o
LOAD obj/main/NAZE/io/gps_naza.o
LOAD obj/main/NAZE/io/gps_i2cnav.o
LOAD obj/main/NAZE/io/ledstrip.o
LOAD obj/main/NAZE/io/osd.o
LOAD obj/main/NAZE/navigation/navigation.o
LOAD obj/main/NAZE/navigation/navigation_fixedwing.o
LOAD obj/main/NAZE/navigation/navigation_fw_launch.o
LOAD obj/main/NAZE/navigation/navigation_geo.o
LOAD obj/main/NAZE/navigation/navigation_multicopter.o
LOAD obj/main/NAZE/navigation/navigation_pos_estimator.o
LOAD obj/main/NAZE/sensors/barometer.o
LOAD obj/main/NAZE/sensors/pitotmeter.o
LOAD obj/main/NAZE/sensors/rangefinder.o
LOAD obj/main/NAZE/telemetry/crsf.o
LOAD obj/main/NAZE/telemetry/frsky.o
LOAD obj/main/NAZE/telemetry/hott.o
LOAD obj/main/NAZE/telemetry/ibus_shared.o
LOAD obj/main/NAZE/telemetry/ibus.o
LOAD obj/main/NAZE/telemetry/ltm.o
LOAD obj/main/NAZE/telemetry/mavlink.o
LOAD obj/main/NAZE/telemetry/smartport.o
LOAD obj/main/NAZE/telemetry/telemetry.o
LOAD obj/main/NAZE/target.o
LOAD obj/main/NAZE/main.o
LOAD obj/main/NAZE/build/assert.o
LOAD obj/main/NAZE/build/build_config.o
LOAD obj/main/NAZE/build/debug.o
LOAD obj/main/NAZE/build/version.o
LOAD obj/main/NAZE/common/bitarray.o
LOAD obj/main/NAZE/common/crc.o
LOAD obj/main/NAZE/common/encoding.o
LOAD obj/main/NAZE/common/filter.o
LOAD obj/main/NAZE/common/maths.o
LOAD obj/main/NAZE/common/printf.o
LOAD obj/main/NAZE/common/streambuf.o
LOAD obj/main/NAZE/common/typeconversion.o
LOAD obj/main/NAZE/common/string_light.o
LOAD obj/main/NAZE/config/config_eeprom.o
LOAD obj/main/NAZE/config/config_streamer.o
LOAD obj/main/NAZE/config/feature.o
LOAD obj/main/NAZE/config/parameter_group.o
LOAD obj/main/NAZE/drivers/adc.o
LOAD obj/main/NAZE/drivers/buf_writer.o
LOAD obj/main/NAZE/drivers/bus_i2c_soft.o
LOAD obj/main/NAZE/drivers/bus_spi.o
LOAD obj/main/NAZE/drivers/bus_spi_soft.o
LOAD obj/main/NAZE/drivers/display.o
LOAD obj/main/NAZE/drivers/exti.o
LOAD obj/main/NAZE/drivers/gps_i2cnav.o
LOAD obj/main/NAZE/drivers/gyro_sync.o
LOAD obj/main/NAZE/drivers/io.o
LOAD obj/main/NAZE/drivers/io_pca9685.o
LOAD obj/main/NAZE/drivers/light_led.o
LOAD obj/main/NAZE/drivers/logging.o
LOAD obj/main/NAZE/drivers/rx_nrf24l01.o
LOAD obj/main/NAZE/drivers/rx_spi.o
LOAD obj/main/NAZE/drivers/rx_xn297.o
LOAD obj/main/NAZE/drivers/pitotmeter_adc.o
LOAD obj/main/NAZE/drivers/pwm_esc_detect.o
LOAD obj/main/NAZE/drivers/pwm_mapping.o
LOAD obj/main/NAZE/drivers/pwm_output.o
LOAD obj/main/NAZE/drivers/rcc.o
LOAD obj/main/NAZE/drivers/rx_pwm.o
LOAD obj/main/NAZE/drivers/serial.o
LOAD obj/main/NAZE/drivers/serial_uart.o
LOAD obj/main/NAZE/drivers/sound_beeper.o
LOAD obj/main/NAZE/drivers/stack_check.o
LOAD obj/main/NAZE/drivers/system.o
LOAD obj/main/NAZE/drivers/timer.o
LOAD obj/main/NAZE/fc/cli.o
LOAD obj/main/NAZE/fc/config.o
LOAD obj/main/NAZE/fc/controlrate_profile.o
LOAD obj/main/NAZE/fc/fc_core.o
LOAD obj/main/NAZE/fc/fc_init.o
LOAD obj/main/NAZE/fc/fc_tasks.o
LOAD obj/main/NAZE/fc/fc_hardfaults.o
LOAD obj/main/NAZE/fc/fc_msp.o
LOAD obj/main/NAZE/fc/rc_adjustments.o
LOAD obj/main/NAZE/fc/rc_controls.o
LOAD obj/main/NAZE/fc/rc_curves.o
LOAD obj/main/NAZE/fc/rc_modes.o
LOAD obj/main/NAZE/fc/runtime_config.o
LOAD obj/main/NAZE/fc/settings.o
LOAD obj/main/NAZE/fc/stats.o
LOAD obj/main/NAZE/flight/failsafe.o
LOAD obj/main/NAZE/flight/hil.o
LOAD obj/main/NAZE/flight/imu.o
LOAD obj/main/NAZE/flight/mixer.o
LOAD obj/main/NAZE/flight/pid.o
LOAD obj/main/NAZE/flight/pid_autotune.o
LOAD obj/main/NAZE/flight/servos.o
LOAD obj/main/NAZE/io/beeper.o
LOAD obj/main/NAZE/io/pwmdriver_i2c.o
LOAD obj/main/NAZE/io/serial.o
LOAD obj/main/NAZE/io/serial_4way.o
LOAD obj/main/NAZE/io/serial_4way_avrootloader.o
LOAD obj/main/NAZE/io/serial_4way_stk500v2.o
LOAD obj/main/NAZE/io/statusindicator.o
LOAD obj/main/NAZE/io/rcsplit.o
LOAD obj/main/NAZE/msp/msp_serial.o
LOAD obj/main/NAZE/rx/ibus.o
LOAD obj/main/NAZE/rx/jetiexbus.o
LOAD obj/main/NAZE/rx/msp.o
LOAD obj/main/NAZE/rx/nrf24_cx10.o
LOAD obj/main/NAZE/rx/nrf24_inav.o
LOAD obj/main/NAZE/rx/nrf24_h8_3d.o
LOAD obj/main/NAZE/rx/nrf24_syma.o
LOAD obj/main/NAZE/rx/nrf24_v202.o
LOAD obj/main/NAZE/rx/pwm.o
LOAD obj/main/NAZE/rx/rx.o
LOAD obj/main/NAZE/rx/rx_spi.o
LOAD obj/main/NAZE/rx/crsf.o
LOAD obj/main/NAZE/rx/sbus.o
LOAD obj/main/NAZE/rx/spektrum.o
LOAD obj/main/NAZE/rx/sumd.o
LOAD obj/main/NAZE/rx/sumh.o
LOAD obj/main/NAZE/rx/xbus.o
LOAD obj/main/NAZE/rx/eleres.o
LOAD obj/main/NAZE/scheduler/scheduler.o
LOAD obj/main/NAZE/sensors/acceleration.o
LOAD obj/main/NAZE/sensors/battery.o
LOAD obj/main/NAZE/sensors/boardalignment.o
LOAD obj/main/NAZE/sensors/compass.o
LOAD obj/main/NAZE/sensors/diagnostics.o
LOAD obj/main/NAZE/sensors/gyro.o
LOAD obj/main/NAZE/sensors/initialisation.o
LOAD obj/main/NAZE/system_stm32f10x.o
LOAD obj/main/NAZE/misc.o
LOAD obj/main/NAZE/stm32f10x_adc.o
LOAD obj/main/NAZE/stm32f10x_bkp.o
LOAD obj/main/NAZE/stm32f10x_dac.o
LOAD obj/main/NAZE/stm32f10x_dbgmcu.o
LOAD obj/main/NAZE/stm32f10x_dma.o
LOAD obj/main/NAZE/stm32f10x_exti.o
LOAD obj/main/NAZE/stm32f10x_flash.o
LOAD obj/main/NAZE/stm32f10x_fsmc.o
LOAD obj/main/NAZE/stm32f10x_gpio.o
LOAD obj/main/NAZE/stm32f10x_i2c.o
LOAD obj/main/NAZE/stm32f10x_iwdg.o
LOAD obj/main/NAZE/stm32f10x_pwr.o
LOAD obj/main/NAZE/stm32f10x_rcc.o
LOAD obj/main/NAZE/stm32f10x_rtc.o
LOAD obj/main/NAZE/stm32f10x_sdio.o
LOAD obj/main/NAZE/stm32f10x_spi.o
LOAD obj/main/NAZE/stm32f10x_tim.o
LOAD obj/main/NAZE/stm32f10x_usart.o
LOAD obj/main/NAZE/stm32f10x_wwdg.o
LOAD /usr/bin/../lib/gcc/arm-none-eabi/4.9.3/../../../../arm-none-eabi/lib/armv7-m/libm.a
LOAD /usr/bin/../lib/gcc/arm-none-eabi/4.9.3/../../../../arm-none-eabi/lib/armv7-m/libc_nano.a
LOAD /usr/bin/../lib/gcc/arm-none-eabi/4.9.3/../../../../arm-none-eabi/lib/armv7-m/libnosys.a
START GROUP
LOAD /usr/bin/../lib/gcc/arm-none-eabi/4.9.3/armv7-m/libgcc.a
LOAD /usr/bin/../lib/gcc/arm-none-eabi/4.9.3/../../../../arm-none-eabi/lib/armv7-m/libg_nano.a
LOAD /usr/bin/../lib/gcc/arm-none-eabi/4.9.3/../../../../arm-none-eabi/lib/armv7-m/libc_nano.a
END GROUP
START GROUP
LOAD /usr/bin/../lib/gcc/arm-none-eabi/4.9.3/armv7-m/libgcc.a
LOAD /usr/bin/../lib/gcc/arm-none-eabi/4.9.3/../../../../arm-none-eabi/lib/armv7-m/libc_nano.a
END GROUP
                0x0000000020005000                _estack = (ORIGIN (STACKRAM) + 0x5000)
                0x000000000801f800                __config_start = ORIGIN (FLASH_CONFIG)
                0x0000000008020000                __config_end = (ORIGIN (FLASH_CONFIG) + 0x800)
                0x0000000000000000                _Min_Heap_Size = 0x0
                0x0000000000000800                _Min_Stack_Size = 0x800

.isr_vector     0x0000000008000000      0x10c
                0x0000000008000000                . = ALIGN (0x4)
                0x0000000008000000                PROVIDE (isr_vector_table_base, .)
 *(.isr_vector)
 .isr_vector    0x0000000008000000      0x10c obj/main/NAZE/startup_stm32f10x_md_gcc.o
                0x0000000008000000                g_pfnVectors
                0x000000000800010c                . = ALIGN (0x4)

.text           0x0000000008000110    0x1ec10
                0x0000000008000110                . = ALIGN (0x4)
 *(.text)
 .text          0x0000000008000110     0x28b8 /tmp/ccELukx5.ltrans1.ltrans.o
                0x0000000008000110                taskMainPidLoop
 .text          0x00000000080029c8     0x1868 /tmp/ccELukx5.ltrans2.ltrans.o
                0x00000000080029c8                taskHandleSerial
 .text          0x0000000008004230     0x123c /tmp/ccELukx5.ltrans3.ltrans.o
                0x0000000008004230                mspFcProcessOutCommand.lto_priv.235
 *fill*         0x000000000800546c        0x4 
 .text          0x0000000008005470      0xeb4 /tmp/ccELukx5.ltrans4.ltrans.o
                0x0000000008005470                taskUpdateRxMain
 .text          0x0000000008006324      0xecc /tmp/ccELukx5.ltrans5.ltrans.o
                0x0000000008006324                hmc5883_extiHandler.lto_priv.487
                0x0000000008006326                ms5611_calculate.lto_priv.390
                0x00000000080064e4                bmp280_calculate.lto_priv.395
                0x00000000080066ac                bmp280_get_ut.lto_priv.391
                0x00000000080066ae                bmp280_start_ut.lto_priv.392
                0x00000000080066b0                mpu6500AccInit
                0x00000000080066b8                mpu6050AccInit.lto_priv.385
                0x00000000080066d0                mpuCheckDataReady
                0x00000000080066e8                mpuGyroRead
                0x000000000800672c                mpuAccRead
                0x00000000080068a6                hmc5883lRead.lto_priv.398
                0x0000000008006950                ms56xx_get_up.lto_priv.389
                0x0000000008006960                ms56xx_get_ut.lto_priv.387
                0x0000000008006970                bmp280_get_up.lto_priv.394
                0x00000000080069d0                mpuReadRegisterI2C
                0x00000000080069d6                ms56xx_start_up.lto_priv.388
                0x00000000080069e0                ms56xx_start_ut.lto_priv.386
                0x00000000080069ea                bmp280_start_up.lto_priv.393
                0x00000000080069f4                mpuWriteRegisterI2C
                0x0000000008006a3c                mpu6050GyroInit.lto_priv.403
                0x0000000008006c5e                systemTimekeepingSetup.lto_priv.435
                0x0000000008006cd4                USART2_IRQHandler
                0x0000000008006cdc                USART1_IRQHandler
                0x0000000008006ce4                openSoftSerial
                0x0000000008006e8a                gpioInit
                0x0000000008006eee                mpu6500GyroInit
                0x0000000008006fe0                DMA1_Channel7_IRQHandler
                0x0000000008006ff4                DMA1_Channel6_IRQHandler
                0x0000000008007008                DMA1_Channel5_IRQHandler
                0x0000000008007018                DMA1_Channel4_IRQHandler
                0x0000000008007028                DMA1_Channel3_IRQHandler
                0x0000000008007038                DMA1_Channel2_IRQHandler
                0x0000000008007048                DMA1_Channel1_IRQHandler
                0x0000000008007058                i2cInit.part.1.lto_priv.142
 .text          0x00000000080071f0      0xf58 /tmp/ccELukx5.ltrans6.ltrans.o
                0x0000000008007274                qmc5883Read.lto_priv.400
                0x00000000080072de                qmc5883Init.lto_priv.399
                0x00000000080072fc                hmc5883lInit.lto_priv.397
                0x00000000080074b0                sendFieldDefinition.lto_priv.279
                0x000000000800760c                loadMainState.lto_priv.477
                0x00000000080077c4                writeGPSFrame.lto_priv.476
                0x0000000008007854                writeSlowFrameIfNeeded.lto_priv.478
                0x00000000080078d8                blackboxWriteMainStateArrayUsingAveragePredictor.lto_priv.479
                0x000000000800791c                pidBank.lto_priv.304
                0x0000000008007938                blackboxWriteSysinfo.lto_priv.278
                0x0000000008007ddc                flashfsAdvanceTailInBuffer.lto_priv.467
                0x0000000008007e0c                flashfsGetDirtyDataBuffers.lto_priv.465
                0x0000000008007e44                flashfsGetOffset
                0x0000000008007e64                flashfsTransmitBufferUsed.lto_priv.280
                0x0000000008007e84                m25p16_isReady
                0x0000000008007ef0                flashfsWriteBuffers.lto_priv.466
                0x0000000008008040                flashfsFlushSync
                0x0000000008008078                flashfsFlushAsync
                0x00000000080080bc                flashfsEraseCompletely
                0x00000000080080f8                m25p16_readBytes
 .text          0x0000000008008148     0x12e8 /tmp/ccELukx5.ltrans7.ltrans.o
                0x0000000008008174                pidBank.lto_priv.176
                0x0000000008008190                writeMotors
                0x00000000080081c4                stopMotors
                0x0000000008008204                mixerResetDisarmedMotors
                0x0000000008008238                findMixer
                0x000000000800825c                mixerUpdateStateFlags
                0x00000000080082b0                isImuHeadingValid
                0x00000000080082e8                isImuReady
                0x000000000800830c                imuTransformVectorEarthToBody
                0x00000000080083bc                imuComputeRotationMatrix.lto_priv.433
                0x00000000080084e0                imuCalculateEstimatedAttitude.lto_priv.287
                0x000000000800909c                failsafeRequiresAngleMode
                0x00000000080090cc                clivalue_get_pgn
                0x000000000800910c                clivalue_get_name
                0x0000000008009158                sensorsSet
                0x0000000008009168                disableFlightMode
                0x0000000008009188                enableFlightMode
                0x00000000080091a8                failsafeActivate.lto_priv.253
                0x00000000080091e4                isRangeActive.part.0.lto_priv.252
                0x000000000800922c                isModeActivationConditionPresent
                0x0000000008009254                updateUsedModeActivationConditionFlags
                0x00000000080092c8                IS_RC_MODE_ACTIVE
                0x00000000080092ec                generateThrottleCurve
                0x000000000800938c                calculateThrottleStatus
                0x00000000080093d0                blackboxLogInflightAdjustmentEvent.lto_priv.249
                0x00000000080093f8                pidBankMutable.lto_priv.250
                0x0000000008009414                pidBank.lto_priv.251
 .text          0x0000000008009430      0xbb0 /tmp/ccELukx5.ltrans8.ltrans.o
                0x0000000008009430                pwmOverflowCallback.lto_priv.415
                0x0000000008009458                ppmEdgeCallback.lto_priv.416
                0x00000000080095ec                ppmOverflowCallback.lto_priv.417
                0x000000000800962c                pwmWriteStandard.lto_priv.413
                0x000000000800963c                pwmWriteBrushed.lto_priv.409
                0x0000000008009660                pwmWriteMultiShot.lto_priv.412
                0x0000000008009694                pwmWriteOneShot42.lto_priv.411
                0x00000000080096c0                pwmWriteOneShot125.lto_priv.410
                0x0000000008009720                serialWrite
                0x0000000008009726                serialWriteBuf
                0x0000000008009760                pwmICConfig
                0x000000000800979c                pwmEdgeCallback.lto_priv.414
                0x0000000008009808                pwmWriteServo
                0x0000000008009824                ledToggle
                0x0000000008009840                IOGetByTag
                0x0000000008009888                IOConfigGPIO
                0x0000000008009948                IOLo
                0x0000000008009952                pwmOutConfigMotor.lto_priv.434
                0x0000000008009ca4                IOHi
                0x0000000008009cae                IOWrite
                0x0000000008009cc2                ledSet
                0x0000000008009cec                EXTI15_10_IRQHandler
                0x0000000008009cee                EXTI9_5_IRQHandler
                0x0000000008009cf0                EXTI4_IRQHandler
                0x0000000008009cf2                EXTI3_IRQHandler
                0x0000000008009cf4                EXTI2_IRQHandler
                0x0000000008009cf6                EXTI1_IRQHandler
                0x0000000008009cf8                EXTI0_IRQHandler
                0x0000000008009cfa                bufWriterFlush
                0x0000000008009d12                pgActivateProfile
                0x0000000008009d48                pgResetInstance.lto_priv.237
                0x0000000008009d90                pgReset
                0x0000000008009da8                pgFind
                0x0000000008009dd0                featureClear
                0x0000000008009de0                write_word.lto_priv.307
                0x0000000008009eb4                config_streamer_write
                0x0000000008009eea                updateCRC.lto_priv.306
                0x0000000008009f16                isEEPROMContentValid.part.4.lto_priv.305
                0x0000000008009f70                sl_strncasecmp
                0x0000000008009fa4                fastA2I
 .text          0x0000000008009fe0      0xe00 /tmp/ccELukx5.ltrans9.ltrans.o
                0x0000000008009fe0                pgResetFn_serialConfig
                0x000000000800a184                findSerialPortConfig
                0x000000000800a1b4                beeperSilence
                0x000000000800a1dc                beeper
                0x000000000800a240                beeperUpdate
                0x000000000800a36c                beeperConfirmationBeeps
                0x000000000800a3a4                loadCustomServoMixer
                0x000000000800a414                determineServoMiddleOrForwardFromChannel
                0x000000000800a44c                pidController
                0x000000000800ad4c                pidAngleToRcCommand
                0x000000000800adbc                pidResetErrorAccumulators
 .text          0x000000000800ade0      0x960 /tmp/ccELukx5.ltrans10.ltrans.o
                0x000000000800ade0                taskTelemetry
                0x000000000800b51c                taskUpdateBaro
 .text          0x000000000800b740     0x11c0 /tmp/ccELukx5.ltrans11.ltrans.o
                0x000000000800b7f0                telemetryCheckRxPortShared
                0x000000000800b80a                checkLtmTelemetryState
                0x000000000800b8f0                ltm_finalise.lto_priv.190
                0x000000000800b92c                ltm_initialise_packet.lto_priv.191
                0x000000000800b94c                checkFrSkyTelemetryState
                0x000000000800b9e0                serialize16.lto_priv.193
                0x000000000800b9f4                sendTelemetryTail.lto_priv.192
                0x000000000800ba04                sendDataHead.lto_priv.194
                0x000000000800ba24                sendLatLong.lto_priv.195
                0x000000000800ba9c                updateEstimatedTopic.lto_priv.284
                0x000000000800c1f8                shouldResetReferenceAltitude.lto_priv.196
                0x000000000800c230                onNewGPSData
 .text          0x000000000800c900      0xca0 /tmp/ccELukx5.ltrans12.ltrans.o
                0x000000000800c900                navOnEnteringState_NAV_STATE_RTH_FINISHED.lto_priv.162
                0x000000000800c924                navOnEnteringState_NAV_STATE_RTH_FINISHING.lto_priv.161
                0x000000000800c93c                navOnEnteringState_NAV_STATE_RTH_LANDING.lto_priv.160
                0x000000000800cbf4                navOnEnteringState_NAV_STATE_RTH_HOVER_PRIOR_TO_LANDING.lto_priv.159
                0x000000000800cc64                navOnEnteringState_NAV_STATE_RTH_HEAD_HOME.lto_priv.158
                0x000000000800ccdc                navOnEnteringState_NAV_STATE_RTH_CLIMB_TO_SAFE_ALT.lto_priv.157
                0x000000000800cdf0                navOnEnteringState_NAV_STATE_IDLE.lto_priv.149
                0x000000000800ce18                navOnEnteringState_NAV_STATE_RTH_INITIALIZE.lto_priv.156
                0x000000000800cf44                navOnEnteringState_NAV_STATE_POSHOLD_3D_INITIALIZE.lto_priv.154
                0x000000000800cfbc                navOnEnteringState_NAV_STATE_POSHOLD_2D_IN_PROGRESS.lto_priv.153
                0x000000000800cfe4                navOnEnteringState_NAV_STATE_POSHOLD_2D_INITIALIZE.lto_priv.152
                0x000000000800d02c                navOnEnteringState_NAV_STATE_ALTHOLD_INITIALIZE.lto_priv.150
                0x000000000800d074                navOnEnteringState_NAV_STATE_POSHOLD_3D_IN_PROGRESS.lto_priv.155
                0x000000000800d0cc                navOnEnteringState_NAV_STATE_ALTHOLD_IN_PROGRESS.lto_priv.151
                0x000000000800d134                gpsHandleUBLOX
 .text          0x000000000800d5a0      0xe64 /tmp/ccELukx5.ltrans13.ltrans.o
                0x000000000800d5fc                applyFixedWingNavigationController
                0x000000000800dffc                navigationUsePIDs
                0x000000000800e1c4                navigationRequiresAngleMode
                0x000000000800e1fc                selectNavEventFromBoxModeInput.lto_priv.255
                0x000000000800e32c                calcualteAndSetActiveWaypointToLocalPosition.lto_priv.454
                0x000000000800e358                resetGCSFlags
                0x000000000800e368                resetPositionController.lto_priv.455
                0x000000000800e37c                setupAltitudeController.lto_priv.456
                0x000000000800e3f0                resetAltitudeController.lto_priv.453
 .text          0x000000000800e404      0xa58 /tmp/ccELukx5.ltrans14.ltrans.o
                0x000000000800e4ee                isEmpty.lto_priv.349
                0x000000000800e4fe                nextArg.lto_priv.352
                0x000000000800e516                processChannelRangeArgs.lto_priv.353
                0x000000000800e566                getValuePointer.lto_priv.348
                0x000000000800e580                cliPrintf.lto_priv.345
                0x000000000800e5b0                cliWrite.lto_priv.239
                0x000000000800e5d4                cliPrint.lto_priv.238
                0x000000000800e600                cliPrompt.lto_priv.233
                0x000000000800e61c                cliPrintLinefeed.lto_priv.240
                0x000000000800e648                cliPrintLinef.lto_priv.328
                0x000000000800e662                cliPrintVarRange.lto_priv.346
                0x000000000800e7e0                cliPrintVar.lto_priv.347
                0x000000000800e7f6                dumpAllValues.lto_priv.329
                0x000000000800e8e8                cliDefaultPrintLinef.lto_priv.338
                0x000000000800e918                cliDumpPrintLinef.lto_priv.335
                0x000000000800e93c                printSerial.lto_priv.333
                0x000000000800ea24                printAux.lto_priv.332
                0x000000000800ead4                cliAux.lto_priv.204
                0x000000000800eb80                cliPrintLine.lto_priv.234
                0x000000000800eb8c                cliShowParseError.lto_priv.350
                0x000000000800eb94                TIM4_IRQHandler
                0x000000000800eba4                TIM3_IRQHandler
                0x000000000800ebb4                TIM2_IRQHandler
                0x000000000800ebc0                TIM1_UP_IRQHandler
                0x000000000800ebd0                TIM1_CC_IRQHandler
                0x000000000800ebe0                timerChConfigCallbacks
                0x000000000800ecbc                configTimeBase
                0x000000000800ed64                timerConfigure
                0x000000000800edd4                failureMode
 .text          0x000000000800ee5c      0x948 /tmp/ccELukx5.ltrans15.ltrans.o
                0x000000000800ee7c                mwDisarm
                0x000000000800eeec                getAxisRcCommand
                0x000000000800ef68                isCalibrating
                0x000000000800efb0                updateArmingStatus.lto_priv.286
                0x000000000800f1f8                mwArm
                0x000000000800f578                setConfigProfile
                0x000000000800f5b4                writeEEPROM
                0x000000000800f770                setConfigProfileAndWriteEEPROM
                0x000000000800f78e                saveConfigAndNotify
 .text          0x000000000800f7a4      0xcd8 /tmp/ccELukx5.ltrans16.ltrans.o
                0x000000000800f7a4                cliFeature.lto_priv.211
                0x000000000800f8a4                cliFlashErase.lto_priv.212
                0x000000000800f8d0                cliFlashInfo.lto_priv.213
                0x000000000800f908                cliSerial.lto_priv.225
                0x000000000800fa00                printServoMix.lto_priv.334
                0x000000000800faa8                cliServoMix.lto_priv.228
                0x000000000800fd00                printServo.lto_priv.336
                0x000000000800fe04                cliServo.lto_priv.226
                0x000000000800fee4                printRxRange.lto_priv.330
                0x000000000800ff54                cliRxRange.lto_priv.223
                0x0000000008010018                printMotorMix.lto_priv.337
                0x000000000801011c                cliMotorMix.lto_priv.219
                0x0000000008010298                printAdjustmentRange.lto_priv.331
                0x000000000801037c                cliAdjustmentRange.lto_priv.203
 .text          0x000000000801047c      0xa04 /tmp/ccELukx5.ltrans17.ltrans.o
                0x000000000801047c                cliStatus.lto_priv.229
                0x0000000008010648                cliMixer.lto_priv.218
                0x00000000080106e4                cliBeeper.lto_priv.205
                0x000000000801082c                cliGet.lto_priv.214
                0x0000000008010890                cliSet.lto_priv.227
                0x0000000008010ab0                cliProfile.lto_priv.222
                0x0000000008010af0                cliName.lto_priv.221
                0x0000000008010b54                cliMotor.lto_priv.220
                0x0000000008010bfc                cliGpsPassthrough.lto_priv.215
                0x0000000008010cf8                cliSave.lto_priv.224
                0x0000000008010d10                cliExit.lto_priv.210
                0x0000000008010d48                cliDfu.lto_priv.207
                0x0000000008010d4c                cliMap.lto_priv.217
                0x0000000008010de0                cliDumpProfile.lto_priv.327
                0x0000000008010e18                checkCommand.lto_priv.339
                0x0000000008010e52                cliDefaults.lto_priv.206
 .text          0x0000000008010e80      0xc54 /tmp/ccELukx5.ltrans18.ltrans.o
                0x0000000008010ecc                spektrumReadRawRC.lto_priv.378
                0x0000000008010ef0                spektrumFrameStatus
                0x0000000008010fb8                sbusReadRawRC.lto_priv.382
                0x0000000008010fe8                sbusFrameStatus
                0x000000000801115c                nullFrameStatus.lto_priv.369
                0x0000000008011160                nullReadRawRC.lto_priv.368
                0x000000000801117c                ppmReadRawRC.lto_priv.373
                0x000000000801118c                pwmReadRawRC.lto_priv.372
                0x000000000801119c                spektrumDataReceive.lto_priv.379
                0x00000000080111f0                sbusDataReceive.lto_priv.383
                0x0000000008011248                FLASH_GetBank1Status
                0x0000000008011270                DMA_DeInit
                0x0000000008011360                SystemInit
                0x00000000080113ac                getHwGPSStatus
                0x00000000080113d8                getHwBarometerStatus
                0x00000000080113fc                getHwAccelerometerStatus
                0x0000000008011420                compassIsHealthy
                0x0000000008011444                getHwCompassStatus
                0x0000000008011474                isHardwareHealthy
                0x00000000080114b6                alignSensors
                0x00000000080115e0                initBoardAlignment
                0x0000000008011740                accInitFilters
                0x0000000008011774                queueAdd.lto_priv.432
                0x00000000080117e0                setTaskEnabled
                0x000000000801184c                parseRcChannels
                0x0000000008011888                resumeRxSignal
                0x00000000080118b0                suspendRxSignal
                0x00000000080118e8                warningLedRefresh
                0x0000000008011928                waitForSerialPortToFinishTransmitting
                0x000000000801193e                closeSerialPort
                0x0000000008011964                mspSerialReleasePortIfAllocated
                0x0000000008011990                openSerialPort
                0x0000000008011a20                mspSerialAllocatePorts
                0x0000000008011ac0                determinePortSharing
 .text          0x0000000008011ad4      0x5b0 /tmp/ccELukx5.ltrans19.ltrans.o
                0x0000000008011d04                serialWriteBufShim
                0x0000000008011d08                micros
                0x0000000008011d8c                delayMicroseconds
                0x0000000008011dae                delay
                0x0000000008011dc4                SysTick_Handler
                0x0000000008011df4                systemBeep
                0x0000000008011e18                uartOpen
                0x0000000008012064                serialSetMode
                0x000000000801206a                isSerialTransmitBufferEmpty
                0x0000000008012070                serialRead
                0x0000000008012076                serialTxBytesFree
                0x000000000801207c                serialRxBytesWaiting
 .text          0x0000000008012084      0x5a0 /tmp/ccELukx5.ltrans20.ltrans.o
                0x00000000080124f8                i2cWrite.constprop.130
                0x0000000008012538                i2cRead.constprop.129
                0x000000000801256c                NVIC_Init.part.0.constprop.126
                0x00000000080125a8                timerChConfigIC.constprop.120
                0x00000000080125da                timerGetByTag.constprop.119
                0x0000000008012600                EXTIEnable.constprop.115
 .text          0x0000000008012624      0x9d8 /tmp/ccELukx5.ltrans21.ltrans.o
                0x0000000008012624                cliHelp.lto_priv.216
                0x0000000008012644                cliVersion.lto_priv.230
                0x0000000008012680                readEEPROM
                0x0000000008012ad0                resetConfigs
                0x0000000008012f38                cliDiff.lto_priv.208
                0x0000000008012f3c                cliDump.lto_priv.209
                0x0000000008012f40                applyAndSaveBoardAlignmentDelta
 .text          0x0000000008012ffc      0xbf4 /tmp/ccELukx5.ltrans22.ltrans.o
                0x0000000008013114                biquadFilterApply
                0x000000000801316c                nullFilterApply
                0x0000000008013170                _putc.lto_priv.428
                0x000000000801317c                fastA2F
                0x00000000080132a8                ftoa
                0x000000000801337c                a2d
                0x00000000080133a6                sbufReadU32
                0x00000000080133d2                sbufReadU16
                0x00000000080133e8                sbufReadU8
                0x00000000080133f2                sbufWriteData
                0x0000000008013406                sbufWriteU32
                0x000000000801342e                sbufWriteU16
                0x0000000008013442                tfp_format
                0x00000000080135fe                sensorCalibration_SolveLGS.lto_priv.288
                0x0000000008013762                sensorCalibrationSolveForOffset
                0x0000000008013798                sensorCalibrationPushSampleForOffsetCalculation
                0x00000000080138e8                sensorCalibrationResetState
                0x0000000008013904                applyDeadband
                0x0000000008013922                wrap_18000
                0x0000000008013944                atan2_approx
                0x0000000008013a48                sin_approx
                0x0000000008013b30                cos_approx
                0x0000000008013b44                pt1FilterApply4
                0x0000000008013ba8                crc8_dvb_s2
                0x0000000008013bc2                crc8_dvb_s2_update
                0x0000000008013bd8                bitArraySet
 .text          0x0000000008013bf0      0x8c4 /tmp/ccELukx5.ltrans23.ltrans.o
                0x0000000008013bf0                blackboxAdvanceIterationTimers.lto_priv.276
                0x0000000008013c38                blackboxLogEvent
                0x0000000008013ce8                blackboxLogIteration.lto_priv.277
 .text          0x00000000080144b4      0x88c /tmp/ccELukx5.ltrans24.ltrans.o
                0x00000000080144c8                EXTIConfig.constprop.112
                0x0000000008014598                spiTransfer.constprop.91
                0x0000000008014604                spiTransferByte.constprop.89
                0x0000000008014644                blackboxWriteSignedVBArray.constprop.83
                0x000000000801465e                arraySubInt32.constprop.82
                0x0000000008014678                geoConvertGeodeticToLocal.constprop.74
                0x00000000080146ec                configureNAV5.constprop.68
                0x0000000008014738                geoConvertLocalToGeodetic.constprop.66
                0x00000000080147ac                navPidApply3.constprop.65
                0x00000000080148c4                biquadFilterInit.constprop.49
                0x00000000080149a8                findNextSharedSerialPort.constprop.11
                0x0000000008014a08                TIM_ICInit
                0x0000000008014c30                RCC_GetClocksFreq
                0x0000000008014cd0                I2C_GetFlagStatus
                0x0000000008014d04                I2C_CheckEvent
                0x0000000008014d1c                FLASH_WaitForLastOperation
 .text          0x0000000008014d40      0xa54 /tmp/ccELukx5.ltrans25.ltrans.o
                0x0000000008014dec                navOnEnteringState_NAV_STATE_LAUNCH_IN_PROGRESS.lto_priv.175
                0x0000000008014e00                navOnEnteringState_NAV_STATE_EMERGENCY_LANDING_FINISHED.lto_priv.172
                0x0000000008014e04                navOnEnteringState_NAV_STATE_EMERGENCY_LANDING_IN_PROGRESS.lto_priv.171
                0x0000000008014e08                navOnEnteringState_NAV_STATE_WAYPOINT_NEXT.lto_priv.167
                0x0000000008014e3c                navOnEnteringState_NAV_STATE_WAYPOINT_REACHED.lto_priv.166
                0x0000000008014e68                navOnEnteringState_NAV_STATE_WAYPOINT_RTH_LAND.lto_priv.169
                0x0000000008014e84                navOnEnteringState_NAV_STATE_LAUNCH_WAIT.lto_priv.174
                0x0000000008014ea8                navOnEnteringState_NAV_STATE_LAUNCH_INITIALIZE.lto_priv.173
                0x0000000008014ed4                navOnEnteringState_NAV_STATE_EMERGENCY_LANDING_INITIALIZE.lto_priv.170
                0x0000000008014ede                navOnEnteringState_NAV_STATE_WAYPOINT_INITIALIZE.lto_priv.163
                0x0000000008014f0c                updateClimbRateToAltitudeController
                0x000000000801500c                resetLandingDetector
                0x0000000008015044                calculateInitialHoldPosition
                0x0000000008015064                setDesiredSurfaceOffset
                0x00000000080150d0                updateHomePositionCompatibility.lto_priv.285
                0x0000000008015104                setHomePosition
                0x0000000008015164                calculateBearingToDestination
                0x00000000080151c0                setDesiredPosition
                0x0000000008015250                calculateDistanceToDestination
                0x0000000008015298                validateRTHSanityChecker
                0x0000000008015314                initializeRTHSanityChecker
                0x0000000008015344                navOnEnteringState_NAV_STATE_WAYPOINT_PRE_ACTION.lto_priv.164
                0x0000000008015394                isWaypointReached
                0x00000000080153f0                updateActualAltitudeAndClimbRate
                0x000000000801545c                updateActualHorizontalPositionAndVelocity
                0x000000000801550c                checkForPositionSensorTimeout
                0x0000000008015544                navOnEnteringState_NAV_STATE_WAYPOINT_FINISHED.lto_priv.168
                0x0000000008015568                navOnEnteringState_NAV_STATE_WAYPOINT_IN_PROGRESS.lto_priv.165
                0x00000000080155dc                navPidInit
                0x0000000008015640                navProcessFSMEvents.lto_priv.254
 .text          0x0000000008015794      0x4d4 /tmp/ccELukx5.ltrans26.ltrans.o
                0x0000000008015794                gpsMagRead
                0x00000000080157ac                gpsMagInit
                0x00000000080157b0                sendConfigMessageUBLOX.lto_priv.143
                0x0000000008015804                gpsResetSolution.lto_priv.198
                0x0000000008015820                gpsHandleProtocol.lto_priv.197
                0x00000000080158a0                gpsSetState
                0x00000000080158b4                blackboxDeviceReserveBufferSpace
                0x0000000008015910                isBlackboxDeviceFull
                0x000000000801593c                blackboxDeviceFlushForce
                0x0000000008015960                blackboxPrint
                0x0000000008015a34                blackboxWrite
                0x0000000008015a88                blackboxWriteTag2_3S32
                0x0000000008015ba6                blackboxWriteUnsignedVB
                0x0000000008015bc4                blackboxWriteSignedVB
                0x0000000008015bcc                blackboxWriteSigned16VBArray
                0x0000000008015be6                blackboxPrintfHeaderLine
                0x0000000008015c44                blackboxPrintf
 .text          0x0000000008015c68      0x4fc /tmp/ccELukx5.ltrans27.ltrans.o
                0x0000000008015c68                taskUpdateCompass
                0x0000000008015e48                taskProcessGPS
                0x0000000008016050                taskUpdateBattery
 .text          0x0000000008016164      0x5b4 /tmp/ccELukx5.ltrans28.ltrans.o
                0x0000000008016164                inavFilterCorrectPos.lto_priv.443
                0x00000000080161b4                inavFilterPredict.lto_priv.444
                0x0000000008016218                calculateMulticopterInitialHoldPosition
                0x0000000008016258                updatePositionVelocityController_MC.lto_priv.281
                0x000000000801647c                resetMulticopterPositionController
                0x00000000080164c0                resetMulticopterAltitudeController
                0x0000000008016540                updateAltitudeThrottleController_MC.lto_priv.282
                0x00000000080165dc                updateAltitudeVelocityController_MC.lto_priv.283
                0x00000000080166e0                applyFixedWingLaunchIdleLogic.lto_priv.451
 .text          0x0000000008016718      0x2a0 /tmp/ccELukx5.ltrans29.ltrans.o
                0x0000000008016718                mspRebootFn.lto_priv.182
                0x0000000008016758                packBoxModeFlags.lto_priv.185
                0x0000000008016958                pidBankMutable.lto_priv.236
                0x0000000008016974                pidBank.lto_priv.184
                0x0000000008016990                HardFault_Handler
 .text          0x00000000080169b8       0xe8 /tmp/ccELukx5.ltrans30.ltrans.o
                0x00000000080169b8                taskUpdateRxCheck
 .text          0x0000000008016aa0       0x3c /tmp/ccELukx5.ltrans31.ltrans.o
                0x0000000008016aa0                RCC_ClockCmd.constprop.138
 .text          0x0000000008016adc      0x370 /usr/bin/../lib/gcc/arm-none-eabi/4.9.3/armv7-m/libgcc.a(_arm_addsubdf3.o)
                0x0000000008016adc                __aeabi_drsub
                0x0000000008016ae4                __aeabi_dsub
                0x0000000008016ae4                __subdf3
                0x0000000008016ae8                __adddf3
                0x0000000008016ae8                __aeabi_dadd
                0x0000000008016d60                __aeabi_ui2d
                0x0000000008016d60                __floatunsidf
                0x0000000008016d80                __floatsidf
                0x0000000008016d80                __aeabi_i2d
                0x0000000008016da4                __extendsfdf2
                0x0000000008016da4                __aeabi_f2d
                0x0000000008016de0                __aeabi_ul2d
                0x0000000008016de0                __floatundidf
                0x0000000008016df0                __floatdidf
                0x0000000008016df0                __aeabi_l2d
 .text          0x0000000008016e4c      0x424 /usr/bin/../lib/gcc/arm-none-eabi/4.9.3/armv7-m/libgcc.a(_arm_muldivdf3.o)
                0x0000000008016e4c                __aeabi_dmul
                0x0000000008016e4c                __muldf3
                0x00000000080170a0                __aeabi_ddiv
                0x00000000080170a0                __divdf3
 .text          0x0000000008017270       0xa0 /usr/bin/../lib/gcc/arm-none-eabi/4.9.3/armv7-m/libgcc.a(_arm_truncdfsf2.o)
                0x0000000008017270                __aeabi_d2f
                0x0000000008017270                __truncdfsf2
 .text          0x0000000008017310      0x21c /usr/bin/../lib/gcc/arm-none-eabi/4.9.3/armv7-m/libgcc.a(_arm_addsubsf3.o)
                0x0000000008017310                __aeabi_frsub
                0x0000000008017318                __subsf3
                0x0000000008017318                __aeabi_fsub
                0x000000000801731c                __aeabi_fadd
                0x000000000801731c                __addsf3
                0x000000000801747c                __aeabi_ui2f
                0x000000000801747c                __floatunsisf
                0x0000000008017484                __aeabi_i2f
                0x0000000008017484                __floatsisf
                0x00000000080174a0                __floatundisf
                0x00000000080174a0                __aeabi_ul2f
                0x00000000080174b0                __floatdisf
                0x00000000080174b0                __aeabi_l2f
 .text          0x000000000801752c      0x2a0 /usr/bin/../lib/gcc/arm-none-eabi/4.9.3/armv7-m/libgcc.a(_arm_muldivsf3.o)
                0x000000000801752c                __mulsf3
                0x000000000801752c                __aeabi_fmul
                0x0000000008017694                __divsf3
                0x0000000008017694                __aeabi_fdiv
 .text          0x00000000080177cc       0xec /usr/bin/../lib/gcc/arm-none-eabi/4.9.3/armv7-m/libgcc.a(_arm_cmpsf2.o)
                0x00000000080177cc                __gtsf2
                0x00000000080177cc                __gesf2
                0x00000000080177d4                __lesf2
                0x00000000080177d4                __ltsf2
                0x00000000080177dc                __nesf2
                0x00000000080177dc                __eqsf2
                0x00000000080177dc                __cmpsf2
                0x000000000801783c                __aeabi_cfrcmple
                0x0000000008017844                __aeabi_cfcmple
                0x0000000008017844                __aeabi_cfcmpeq
                0x0000000008017854                __aeabi_fcmpeq
                0x0000000008017868                __aeabi_fcmplt
                0x000000000801787c                __aeabi_fcmple
                0x0000000008017890                __aeabi_fcmpge
                0x00000000080178a4                __aeabi_fcmpgt
 .text          0x00000000080178b8       0x4c /usr/bin/../lib/gcc/arm-none-eabi/4.9.3/armv7-m/libgcc.a(_arm_fixsfsi.o)
                0x00000000080178b8                __fixsfsi
                0x00000000080178b8                __aeabi_f2iz
 .text          0x0000000008017904       0x40 /usr/bin/../lib/gcc/arm-none-eabi/4.9.3/armv7-m/libgcc.a(_arm_fixunssfsi.o)
                0x0000000008017904                __aeabi_f2uiz
                0x0000000008017904                __fixunssfsi
 .text          0x0000000008017944       0x38 /usr/bin/../lib/gcc/arm-none-eabi/4.9.3/armv7-m/libgcc.a(_aeabi_ldivmod.o)
                0x0000000008017944                __aeabi_ldivmod
 .text          0x000000000801797c       0x30 /usr/bin/../lib/gcc/arm-none-eabi/4.9.3/armv7-m/libgcc.a(_aeabi_uldivmod.o)
                0x000000000801797c                __aeabi_uldivmod
 .text          0x00000000080179ac       0x28 /usr/bin/../lib/gcc/arm-none-eabi/4.9.3/armv7-m/libgcc.a(_popcountsi2.o)
                0x00000000080179ac                __popcountsi2
 .text          0x00000000080179d4       0x60 /usr/bin/../lib/gcc/arm-none-eabi/4.9.3/armv7-m/libgcc.a(bpabi.o)
                0x00000000080179d4                __gnu_ldivmod_helper
                0x0000000008017a04                __gnu_uldivmod_helper
 .text          0x0000000008017a34        0x4 /usr/bin/../lib/gcc/arm-none-eabi/4.9.3/armv7-m/libgcc.a(_dvmd_tls.o)
                0x0000000008017a34                __aeabi_ldiv0
                0x0000000008017a34                __aeabi_idiv0
 .text          0x0000000008017a38      0x2ac /usr/bin/../lib/gcc/arm-none-eabi/4.9.3/armv7-m/libgcc.a(_divdi3.o)
                0x0000000008017a38                __divdi3
 .text          0x0000000008017ce4      0x270 /usr/bin/../lib/gcc/arm-none-eabi/4.9.3/armv7-m/libgcc.a(_udivdi3.o)
                0x0000000008017ce4                __udivdi3
 .text          0x0000000008017f54      0x110 /usr/bin/../lib/gcc/arm-none-eabi/4.9.3/armv7-m/libgcc.a(_arm_cmpdf2.o)
                0x0000000008017f54                __gtdf2
                0x0000000008017f54                __gedf2
                0x0000000008017f5c                __ltdf2
                0x0000000008017f5c                __ledf2
                0x0000000008017f64                __cmpdf2
                0x0000000008017f64                __eqdf2
                0x0000000008017f64                __nedf2
                0x0000000008017fe0                __aeabi_cdrcmple
                0x0000000008017ff0                __aeabi_cdcmple
                0x0000000008017ff0                __aeabi_cdcmpeq
                0x0000000008018000                __aeabi_dcmpeq
                0x0000000008018014                __aeabi_dcmplt
                0x0000000008018028                __aeabi_dcmple
                0x000000000801803c                __aeabi_dcmpge
                0x0000000008018050                __aeabi_dcmpgt
 *(.text*)
 .text.Reset_Handler
                0x0000000008018064       0xb8 obj/main/NAZE/startup_stm32f10x_md_gcc.o
                0x0000000008018064                Reset_Handler
 .text.Default_Handler
                0x000000000801811c        0x2 obj/main/NAZE/startup_stm32f10x_md_gcc.o
                0x000000000801811c                DebugMon_Handler
                0x000000000801811c                PVD_IRQHandler
                0x000000000801811c                PendSV_Handler
                0x000000000801811c                NMI_Handler
                0x000000000801811c                I2C2_EV_IRQHandler
                0x000000000801811c                UsageFault_Handler
                0x000000000801811c                ADC1_2_IRQHandler
                0x000000000801811c                SPI1_IRQHandler
                0x000000000801811c                TAMPER_IRQHandler
                0x000000000801811c                USART3_IRQHandler
                0x000000000801811c                RTC_IRQHandler
                0x000000000801811c                CAN1_RX1_IRQHandler
                0x000000000801811c                I2C1_EV_IRQHandler
                0x000000000801811c                RCC_IRQHandler
                0x000000000801811c                TIM1_TRG_COM_IRQHandler
                0x000000000801811c                Default_Handler
                0x000000000801811c                SPI2_IRQHandler
                0x000000000801811c                MemManage_Handler
                0x000000000801811c                SVC_Handler
                0x000000000801811c                USB_LP_CAN1_RX0_IRQHandler
                0x000000000801811c                USB_HP_CAN1_TX_IRQHandler
                0x000000000801811c                WWDG_IRQHandler
                0x000000000801811c                TIM1_BRK_IRQHandler
                0x000000000801811c                RTCAlarm_IRQHandler
                0x000000000801811c                I2C2_ER_IRQHandler
                0x000000000801811c                CAN1_SCE_IRQHandler
                0x000000000801811c                FLASH_IRQHandler
                0x000000000801811c                BusFault_Handler
                0x000000000801811c                I2C1_ER_IRQHandler
                0x000000000801811c                USBWakeUp_IRQHandler
 *fill*         0x000000000801811e        0x2 
 .text.startup  0x0000000008018120     0x205c /tmp/ccELukx5.ltrans0.ltrans.o
                0x0000000008018120                main
 .text.memcmp   0x000000000801a17c       0x20 /usr/bin/../lib/gcc/arm-none-eabi/4.9.3/../../../../arm-none-eabi/lib/armv7-m/libg_nano.a(lib_a-memcmp.o)
                0x000000000801a17c                memcmp
 .text.memcpy   0x000000000801a19c       0x16 /usr/bin/../lib/gcc/arm-none-eabi/4.9.3/../../../../arm-none-eabi/lib/armv7-m/libg_nano.a(lib_a-memcpy.o)
                0x000000000801a19c                memcpy
 .text.memmove  0x000000000801a1b2       0x36 /usr/bin/../lib/gcc/arm-none-eabi/4.9.3/../../../../arm-none-eabi/lib/armv7-m/libg_nano.a(lib_a-memmove.o)
                0x000000000801a1b2                memmove
 .text.memset   0x000000000801a1e8       0x10 /usr/bin/../lib/gcc/arm-none-eabi/4.9.3/../../../../arm-none-eabi/lib/armv7-m/libg_nano.a(lib_a-memset.o)
                0x000000000801a1e8                memset
 .text.strcat   0x000000000801a1f8       0x1e /usr/bin/../lib/gcc/arm-none-eabi/4.9.3/../../../../arm-none-eabi/lib/armv7-m/libg_nano.a(lib_a-strcat.o)
                0x000000000801a1f8                strcat
 .text.strchr   0x000000000801a216       0x1c /usr/bin/../lib/gcc/arm-none-eabi/4.9.3/../../../../arm-none-eabi/lib/armv7-m/libg_nano.a(lib_a-strchr.o)
                0x000000000801a216                strchr
 .text.strcpy   0x000000000801a232       0x10 /usr/bin/../lib/gcc/arm-none-eabi/4.9.3/../../../../arm-none-eabi/lib/armv7-m/libg_nano.a(lib_a-strcpy.o)
                0x000000000801a232                strcpy
 .text.strlen   0x000000000801a242       0x10 /usr/bin/../lib/gcc/arm-none-eabi/4.9.3/../../../../arm-none-eabi/lib/armv7-m/libg_nano.a(lib_a-strlen.o)
                0x000000000801a242                strlen
 .text.strncmp  0x000000000801a252       0x32 /usr/bin/../lib/gcc/arm-none-eabi/4.9.3/../../../../arm-none-eabi/lib/armv7-m/libg_nano.a(lib_a-strncmp.o)
                0x000000000801a252                strncmp
 .text.strncpy  0x000000000801a284       0x24 /usr/bin/../lib/gcc/arm-none-eabi/4.9.3/../../../../arm-none-eabi/lib/armv7-m/libg_nano.a(lib_a-strncpy.o)
                0x000000000801a284                strncpy
 .text.strspn   0x000000000801a2a8       0x1e /usr/bin/../lib/gcc/arm-none-eabi/4.9.3/../../../../arm-none-eabi/lib/armv7-m/libg_nano.a(lib_a-strspn.o)
                0x000000000801a2a8                strspn
 .text.strstr   0x000000000801a2c6       0x30 /usr/bin/../lib/gcc/arm-none-eabi/4.9.3/../../../../arm-none-eabi/lib/armv7-m/libg_nano.a(lib_a-strstr.o)
                0x000000000801a2c6                strstr
 *fill*         0x000000000801a2f6        0x2 
 .text.__fpclassifyf
                0x000000000801a2f8       0x34 /usr/bin/../lib/gcc/arm-none-eabi/4.9.3/../../../../arm-none-eabi/lib/armv7-m/libm.a(lib_a-sf_fpclassify.o)
                0x000000000801a2f8                __fpclassifyf
 .text.strtok   0x000000000801a32c       0x64 /usr/bin/../lib/gcc/arm-none-eabi/4.9.3/../../../../arm-none-eabi/lib/armv7-m/libc_nano.a(lib_a-strtok.o)
                0x000000000801a32c                strtok
 .text.__strtok_r
                0x000000000801a390       0x56 /usr/bin/../lib/gcc/arm-none-eabi/4.9.3/../../../../arm-none-eabi/lib/armv7-m/libc_nano.a(lib_a-strtok_r.o)
                0x000000000801a390                __strtok_r
 .text.strtok_r
                0x000000000801a3e6        0x6 /usr/bin/../lib/gcc/arm-none-eabi/4.9.3/../../../../arm-none-eabi/lib/armv7-m/libc_nano.a(lib_a-strtok_r.o)
                0x000000000801a3e6                strtok_r
 .text.malloc   0x000000000801a3ec       0x10 /usr/bin/../lib/gcc/arm-none-eabi/4.9.3/../../../../arm-none-eabi/lib/armv7-m/libc_nano.a(lib_a-malloc.o)
                0x000000000801a3ec                malloc
 .text._malloc_r
                0x000000000801a3fc       0xac /usr/bin/../lib/gcc/arm-none-eabi/4.9.3/../../../../arm-none-eabi/lib/armv7-m/libc_nano.a(lib_a-nano-mallocr.o)
                0x000000000801a3fc                _malloc_r
 .text._sbrk_r  0x000000000801a4a8       0x20 /usr/bin/../lib/gcc/arm-none-eabi/4.9.3/../../../../arm-none-eabi/lib/armv7-m/libc_nano.a(lib_a-sbrkr.o)
                0x000000000801a4a8                _sbrk_r
 .text._sbrk    0x000000000801a4c8       0x1c /usr/bin/../lib/gcc/arm-none-eabi/4.9.3/../../../../arm-none-eabi/lib/armv7-m/libnosys.a(sbrk.o)
                0x000000000801a4c8                _sbrk
 .text.lrintf   0x000000000801a4e4       0x78 /usr/bin/../lib/gcc/arm-none-eabi/4.9.3/../../../../arm-none-eabi/lib/armv7-m/libm.a(lib_a-sf_lrint.o)
                0x000000000801a4e4                lrintf
 .text.powf     0x000000000801a55c      0x314 /usr/bin/../lib/gcc/arm-none-eabi/4.9.3/../../../../arm-none-eabi/lib/armv7-m/libm.a(lib_a-wf_pow.o)
                0x000000000801a55c                powf
 .text.sqrtf    0x000000000801a870       0x9c /usr/bin/../lib/gcc/arm-none-eabi/4.9.3/../../../../arm-none-eabi/lib/armv7-m/libm.a(lib_a-wf_sqrt.o)
                0x000000000801a870                sqrtf
 .text.__ieee754_powf
                0x000000000801a90c      0x6ec /usr/bin/../lib/gcc/arm-none-eabi/4.9.3/../../../../arm-none-eabi/lib/armv7-m/libm.a(lib_a-ef_pow.o)
                0x000000000801a90c                __ieee754_powf
 .text.__ieee754_sqrtf
                0x000000000801aff8       0xa8 /usr/bin/../lib/gcc/arm-none-eabi/4.9.3/../../../../arm-none-eabi/lib/armv7-m/libm.a(lib_a-ef_sqrt.o)
                0x000000000801aff8                __ieee754_sqrtf
 .text.matherr  0x000000000801b0a0        0x4 /usr/bin/../lib/gcc/arm-none-eabi/4.9.3/../../../../arm-none-eabi/lib/armv7-m/libm.a(lib_a-s_matherr.o)
                0x000000000801b0a0                matherr
 .text.rint     0x000000000801b0a4      0x11c /usr/bin/../lib/gcc/arm-none-eabi/4.9.3/../../../../arm-none-eabi/lib/armv7-m/libm.a(lib_a-s_rint.o)
                0x000000000801b0a4                rint
 .text.fabsf    0x000000000801b1c0        0x8 /usr/bin/../lib/gcc/arm-none-eabi/4.9.3/../../../../arm-none-eabi/lib/armv7-m/libm.a(lib_a-sf_fabs.o)
                0x000000000801b1c0                fabsf
 .text.finitef  0x000000000801b1c8       0x10 /usr/bin/../lib/gcc/arm-none-eabi/4.9.3/../../../../arm-none-eabi/lib/armv7-m/libm.a(lib_a-sf_finite.o)
                0x000000000801b1c8                finitef
 .text.nanf     0x000000000801b1d8        0x8 /usr/bin/../lib/gcc/arm-none-eabi/4.9.3/../../../../arm-none-eabi/lib/armv7-m/libm.a(lib_a-sf_nan.o)
                0x000000000801b1d8                nanf
 .text.scalbnf  0x000000000801b1e0       0xb0 /usr/bin/../lib/gcc/arm-none-eabi/4.9.3/../../../../arm-none-eabi/lib/armv7-m/libm.a(lib_a-sf_scalbn.o)
                0x000000000801b1e0                scalbnf
 .text.copysignf
                0x000000000801b290        0xc /usr/bin/../lib/gcc/arm-none-eabi/4.9.3/../../../../arm-none-eabi/lib/armv7-m/libm.a(lib_a-sf_copysign.o)
                0x000000000801b290                copysignf
 .text.__errno  0x000000000801b29c        0xc /usr/bin/../lib/gcc/arm-none-eabi/4.9.3/../../../../arm-none-eabi/lib/armv7-m/libc_nano.a(lib_a-errno.o)
                0x000000000801b29c                __errno
 *(.rodata)
 .rodata        0x000000000801b2a8       0x12 /tmp/ccELukx5.ltrans0.ltrans.o
 *fill*         0x000000000801b2ba        0x2 
 .rodata        0x000000000801b2bc      0x444 /tmp/ccELukx5.ltrans1.ltrans.o
 .rodata        0x000000000801b700       0xf3 /tmp/ccELukx5.ltrans2.ltrans.o
                0x000000000801b700                cmdTable
 *fill*         0x000000000801b7f3        0x1 
 .rodata        0x000000000801b7f4      0x1cc /tmp/ccELukx5.ltrans3.ltrans.o
                0x000000000801b824                boxes.lto_priv.201
                0x000000000801b9b0                vbat
                0x000000000801b9b4                shortGitRevision
                0x000000000801b9b8                buildTime
                0x000000000801b9bc                buildDate
 .rodata        0x000000000801b9c0       0x3c /tmp/ccELukx5.ltrans4.ltrans.o
 .rodata        0x000000000801b9fc       0x28 /tmp/ccELukx5.ltrans5.ltrans.o
 .rodata        0x000000000801ba24       0x18 /tmp/ccELukx5.ltrans6.ltrans.o
 .rodata        0x000000000801ba3c      0xe10 /tmp/ccELukx5.ltrans7.ltrans.o
                0x000000000801baa8                failsafeProcedureLogic.lto_priv.272
                0x000000000801babc                cliValueTable
 .rodata        0x000000000801c84c       0x16 /tmp/ccELukx5.ltrans8.ltrans.o
                0x000000000801c84c                leds.lto_priv.425
                0x000000000801c858                ioDefUsedMask.lto_priv.427
                0x000000000801c861                ledOffset.lto_priv.424
 *fill*         0x000000000801c862        0x2 
 .rodata        0x000000000801c864      0x39b /tmp/ccELukx5.ltrans9.ltrans.o
                0x000000000801c870                navFSM.lto_priv.246
                0x000000000801cb9c                beep_launchModeBeep.lto_priv.326
                0x000000000801cba1                beep_armedBeep.lto_priv.325
                0x000000000801cba6                beep_disarmRepeatBeep.lto_priv.324
                0x000000000801cbaa                beep_readyBeep.lto_priv.323
                0x000000000801cbb9                beep_2longerBeeps.lto_priv.322
                0x000000000801cbbe                beep_2shortBeeps.lto_priv.321
                0x000000000801cbc3                beep_shortBeep.lto_priv.320
                0x000000000801cbc6                beep_lowBatteryBeep.lto_priv.318
                0x000000000801cbc9                beep_critBatteryBeep.lto_priv.317
                0x000000000801cbcc                beep_armedGpsFix.lto_priv.316
                0x000000000801cbd5                beep_armingBeep.lto_priv.315
                0x000000000801cbda                beep_disarmBeep.lto_priv.314
                0x000000000801cbdf                beep_sos.lto_priv.313
                0x000000000801cbf2                beep_txLostBeep.lto_priv.312
                0x000000000801cbf5                beep_hardwareFailure.lto_priv.311
                0x000000000801cbf8                beep_runtimeCalibrationDone.lto_priv.310
 *fill*         0x000000000801cbff        0x1 
 .rodata        0x000000000801cc00        0x8 /tmp/ccELukx5.ltrans10.ltrans.o
 .rodata        0x000000000801cc08      0x1e1 /tmp/ccELukx5.ltrans11.ltrans.o
 *fill*         0x000000000801cde9        0x3 
 .rodata        0x000000000801cdec       0x2c /tmp/ccELukx5.ltrans12.ltrans.o
 .rodata        0x000000000801ce18        0xc /tmp/ccELukx5.ltrans15.ltrans.o
                0x000000000801ce22                vbatLatestADC
 .rodata        0x000000000801ce24       0xfc /tmp/ccELukx5.ltrans16.ltrans.o
                0x000000000801ce24                servoMixers
                0x000000000801cef4                servoMixerAirplane.lto_priv.431
                0x000000000801cf0c                servoMixerFlyingWing.lto_priv.430
                0x000000000801cf1c                servoMixerTri.lto_priv.429
 .rodata        0x000000000801cf20      0x22c /tmp/ccELukx5.ltrans17.ltrans.o
                0x000000000801cf74                cliValueMinMaxTable
                0x000000000801d06c                cliLookupTables
 .rodata        0x000000000801d14c       0x4c /tmp/ccELukx5.ltrans18.ltrans.o
                0x000000000801d154                baudRates
 .rodata        0x000000000801d198       0x28 /tmp/ccELukx5.ltrans19.ltrans.o
 .rodata        0x000000000801d1c0       0xf8 /tmp/ccELukx5.ltrans21.ltrans.o
                0x000000000801d1d4                mixerNames.lto_priv.340
                0x000000000801d23c                featureNames.lto_priv.351
 .rodata        0x000000000801d2b8       0x4f /tmp/ccELukx5.ltrans24.ltrans.o
 *fill*         0x000000000801d307        0x1 
 .rodata        0x000000000801d308       0x48 /tmp/ccELukx5.ltrans27.ltrans.o
                0x000000000801d308                gpsProviders.lto_priv.367
 *(.rodata*)
 .rodata.str1.1
                0x000000000801d350      0x1c0 /tmp/ccELukx5.ltrans1.ltrans.o
                                        0x1c8 (size before relaxing)
 .rodata.str1.1
                0x000000000801d510       0xcb /tmp/ccELukx5.ltrans2.ltrans.o
                                         0xf1 (size before relaxing)
 .rodata.str1.1
                0x000000000801d5db      0x183 /tmp/ccELukx5.ltrans3.ltrans.o
 .rodata.str1.1
                0x000000000801d75e      0x2cf /tmp/ccELukx5.ltrans6.ltrans.o
                                        0x31b (size before relaxing)
 .rodata.str1.1
                0x000000000801da2d      0x4ce /tmp/ccELukx5.ltrans7.ltrans.o
                                        0x5dc (size before relaxing)
 *fill*         0x000000000801defb        0x1 
 .rodata.cliValuePgn
                0x000000000801defc       0x36 /tmp/ccELukx5.ltrans7.ltrans.o
 .rodata.ioPortDefs
                0x000000000801df32        0x7 /tmp/ccELukx5.ltrans8.ltrans.o
 *fill*         0x000000000801df39        0x3 
 .rodata.beeperTable
                0x000000000801df3c      0x108 /tmp/ccELukx5.ltrans9.ltrans.o
                0x000000000801df3c                beeperTable
 .rodata.serialPortIdentifiers
                0x000000000801e044        0x4 /tmp/ccELukx5.ltrans9.ltrans.o
                0x000000000801e044                serialPortIdentifiers
 .rodata.str1.1
                0x000000000801e048       0xe9 /tmp/ccELukx5.ltrans9.ltrans.o
                                         0xf0 (size before relaxing)
 .rodata.str1.1
                0x000000000801e131       0xaa /tmp/ccELukx5.ltrans12.ltrans.o
 .rodata.str1.1
                0x000000000801e1db       0xb5 /tmp/ccELukx5.ltrans14.ltrans.o
                                         0xcf (size before relaxing)
 .rodata.timerDefinitions
                0x000000000801e290       0x20 /tmp/ccELukx5.ltrans14.ltrans.o
                0x000000000801e290                timerDefinitions
 .rodata.str1.1
                0x000000000801e2b0      0x150 /tmp/ccELukx5.ltrans16.ltrans.o
                                        0x191 (size before relaxing)
 .rodata.str1.1
                0x000000000801e400      0x558 /tmp/ccELukx5.ltrans17.ltrans.o
                                        0x5cf (size before relaxing)
 .rodata.rcChannelLetters
                0x000000000801e958       0x15 /tmp/ccELukx5.ltrans18.ltrans.o
                0x000000000801e958                rcChannelLetters
 .rodata.str1.1
                0x000000000801e96d       0x34 /tmp/ccELukx5.ltrans18.ltrans.o
                                         0x44 (size before relaxing)
 *fill*         0x000000000801e9a1        0x3 
 .rodata.timerHardware
                0x000000000801e9a4       0xa8 /tmp/ccELukx5.ltrans20.ltrans.o
                0x000000000801e9a4                timerHardware
 .rodata.str1.1
                0x000000000801ea4c      0x250 /tmp/ccELukx5.ltrans21.ltrans.o
                                        0x2ba (size before relaxing)
 .rodata.str1.1
                0x000000000801ec9c       0x25 /tmp/ccELukx5.ltrans22.ltrans.o
                                         0x27 (size before relaxing)
 .rodata.str1.1
                0x000000000801ecc1       0x1e /tmp/ccELukx5.ltrans23.ltrans.o
 .rodata.str1.1
                0x0000000000000000        0x0 /usr/bin/../lib/gcc/arm-none-eabi/4.9.3/../../../../arm-none-eabi/lib/armv7-m/libc_nano.a(lib_a-impure.o)
                                          0x2 (size before relaxing)
 *fill*         0x000000000801ecdf        0x1 
 .rodata.TWO23  0x000000000801ece0        0x8 /usr/bin/../lib/gcc/arm-none-eabi/4.9.3/../../../../arm-none-eabi/lib/armv7-m/libm.a(lib_a-sf_lrint.o)
 .rodata.str1.4
                0x000000000801ece8        0x5 /usr/bin/../lib/gcc/arm-none-eabi/4.9.3/../../../../arm-none-eabi/lib/armv7-m/libm.a(lib_a-wf_pow.o)
 *fill*         0x000000000801eced        0x3 
 .rodata.str1.4
                0x000000000801ecf0        0x6 /usr/bin/../lib/gcc/arm-none-eabi/4.9.3/../../../../arm-none-eabi/lib/armv7-m/libm.a(lib_a-wf_sqrt.o)
 *fill*         0x000000000801ecf6        0x2 
 .rodata.dp_h   0x000000000801ecf8        0x8 /usr/bin/../lib/gcc/arm-none-eabi/4.9.3/../../../../arm-none-eabi/lib/armv7-m/libm.a(lib_a-ef_pow.o)
 .rodata.dp_l   0x000000000801ed00        0x8 /usr/bin/../lib/gcc/arm-none-eabi/4.9.3/../../../../arm-none-eabi/lib/armv7-m/libm.a(lib_a-ef_pow.o)
 .rodata.bp     0x000000000801ed08        0x8 /usr/bin/../lib/gcc/arm-none-eabi/4.9.3/../../../../arm-none-eabi/lib/armv7-m/libm.a(lib_a-ef_pow.o)
 .rodata.str1.4
                0x0000000000000000        0x8 /usr/bin/../lib/gcc/arm-none-eabi/4.9.3/../../../../arm-none-eabi/lib/armv7-m/libm.a(lib_a-ef_pow.o)
                                          0x1 (size before relaxing)
 .rodata.TWO52  0x000000000801ed10       0x10 /usr/bin/../lib/gcc/arm-none-eabi/4.9.3/../../../../arm-none-eabi/lib/armv7-m/libm.a(lib_a-s_rint.o)
 *(.glue_7)
 .glue_7        0x0000000000000000        0x0 linker stubs
 *(.glue_7t)
 .glue_7t       0x0000000000000000        0x0 linker stubs
 *(.eh_frame)
 *(.init)
 *(.fini)
                0x000000000801ed20                . = ALIGN (0x4)
                0x000000000801ed20                _etext = .

.vfp11_veneer   0x000000000801ed20        0x0
 .vfp11_veneer  0x0000000000000000        0x0 linker stubs

.v4_bx          0x000000000801ed20        0x0
 .v4_bx         0x0000000000000000        0x0 linker stubs

.iplt           0x000000000801ed20        0x0
 .iplt          0x0000000000000000        0x0 obj/main/NAZE/startup_stm32f10x_md_gcc.o

.ARM.extab
 *(.ARM.extab* .gnu.linkonce.armextab.*)

.ARM            0x000000000801ed20        0x8
                0x000000000801ed20                __exidx_start = .
 *(.ARM.exidx*)
 .ARM.exidx     0x000000000801ed20        0x8 /usr/bin/../lib/gcc/arm-none-eabi/4.9.3/armv7-m/libgcc.a(_divdi3.o)
 .ARM.exidx     0x000000000801ed28        0x0 /usr/bin/../lib/gcc/arm-none-eabi/4.9.3/armv7-m/libgcc.a(_udivdi3.o)
                                          0x8 (size before relaxing)
                0x000000000801ed28                __exidx_end = .

.preinit_array  0x000000000801ed28        0x0
                0x000000000801ed28                PROVIDE (__preinit_array_start, .)
 *(.preinit_array*)
                0x000000000801ed28                PROVIDE (__preinit_array_end, .)

.init_array     0x000000000801ed28        0x0
                0x000000000801ed28                PROVIDE (__init_array_start, .)
 *(SORT(.init_array.*))
 *(.init_array*)
                0x000000000801ed28                PROVIDE (__init_array_end, .)

.fini_array     0x000000000801ed28        0x0
                0x000000000801ed28                PROVIDE (__fini_array_start, .)
 *(.fini_array*)
 *(SORT(.fini_array.*))
                0x000000000801ed28                PROVIDE (__fini_array_end, .)

.pg_registry    0x000000000801ed28      0x2d0
                0x000000000801ed28                PROVIDE (__pg_registry_start, .)
 *(.pg_registry)
 .pg_registry   0x000000000801ed28       0x14 /tmp/ccELukx5.ltrans1.ltrans.o
                0x000000000801ed28                gimbalConfig_Registry
 .pg_registry   0x000000000801ed3c      0x104 /tmp/ccELukx5.ltrans3.ltrans.o
                0x000000000801ed3c                systemConfig_Registry
                0x000000000801ed50                featureConfig_Registry
                0x000000000801ed64                positionEstimationConfig_Registry
                0x000000000801ed78                navConfig_Registry
                0x000000000801ed8c                barometerConfig_Registry
                0x000000000801eda0                servoConfig_Registry
                0x000000000801edb4                blackboxConfig_Registry
                0x000000000801edc8                compassConfig_Registry
                0x000000000801eddc                gpsConfig_Registry
                0x000000000801edf0                adjustmentRanges_Registry
                0x000000000801ee04                gyroConfig_Registry
                0x000000000801ee18                armingConfig_Registry
                0x000000000801ee2c                batteryConfig_Registry
 .pg_registry   0x000000000801ee40       0x14 /tmp/ccELukx5.ltrans4.ltrans.o
                0x000000000801ee40                modeActivationOperatorConfig_Registry
 .pg_registry   0x000000000801ee54       0x28 /tmp/ccELukx5.ltrans5.ltrans.o
                0x000000000801ee54                adcChannelConfig_Registry
                0x000000000801ee68                pidAutotuneConfig_Registry
 .pg_registry   0x000000000801ee7c       0x78 /tmp/ccELukx5.ltrans7.ltrans.o
                0x000000000801ee7c                rcControlsConfig_Registry
                0x000000000801ee90                modeActivationConditions_Registry
                0x000000000801eea4                failsafeConfig_Registry
                0x000000000801eeb8                mixerConfig_Registry
                0x000000000801eecc                motorConfig_Registry
                0x000000000801eee0                flight3DConfig_Registry
 .pg_registry   0x000000000801eef4       0x50 /tmp/ccELukx5.ltrans9.ltrans.o
                0x000000000801eef4                pidProfile_Registry
                0x000000000801ef08                servoParams_Registry
                0x000000000801ef1c                customServoMixers_Registry
                0x000000000801ef30                beeperConfig_Registry
 .pg_registry   0x000000000801ef44       0x14 /tmp/ccELukx5.ltrans10.ltrans.o
                0x000000000801ef44                telemetryConfig_Registry
 .pg_registry   0x000000000801ef58       0x14 /tmp/ccELukx5.ltrans15.ltrans.o
                0x000000000801ef58                controlRateProfiles_Registry
 .pg_registry   0x000000000801ef6c       0x50 /tmp/ccELukx5.ltrans18.ltrans.o
                0x000000000801ef6c                rxChannelRangeConfigs_Registry
                0x000000000801ef80                rxConfig_Registry
                0x000000000801ef94                accelerometerConfig_Registry
                0x000000000801efa8                boardAlignment_Registry
 .pg_registry   0x000000000801efbc       0x28 /tmp/ccELukx5.ltrans21.ltrans.o
                0x000000000801efbc                customMotorMixer_Registry
                0x000000000801efd0                imuConfig_Registry
 .pg_registry   0x000000000801efe4       0x14 /tmp/ccELukx5.ltrans24.ltrans.o
                0x000000000801efe4                serialConfig_Registry
 *(SORT(.pg_registry.*))
                0x000000000801eff8                PROVIDE (__pg_registry_end, .)

.pg_resetdata   0x000000000801eff8      0x1ca
                0x000000000801eff8                PROVIDE (__pg_resetdata_start, .)
 *(.pg_resetdata)
 .pg_resetdata  0x000000000801eff8       0xea /tmp/ccELukx5.ltrans3.ltrans.o
                0x000000000801eff8                pgResetTemplate_systemConfig
                0x000000000801f014                pgResetTemplate_featureConfig
                0x000000000801f018                pgResetTemplate_positionEstimationConfig
                0x000000000801f050                pgResetTemplate_navConfig
                0x000000000801f09c                pgResetTemplate_barometerConfig
                0x000000000801f09e                pgResetTemplate_servoConfig
                0x000000000801f0a8                pgResetTemplate_blackboxConfig
                0x000000000801f0ac                pgResetTemplate_compassConfig
                0x000000000801f0b8                pgResetTemplate_gpsConfig
                0x000000000801f0be                pgResetTemplate_gyroConfig
                0x000000000801f0d0                pgResetTemplate_armingConfig
                0x000000000801f0d4                pgResetTemplate_batteryConfig
 .pg_resetdata  0x000000000801f0e2        0xc /tmp/ccELukx5.ltrans5.ltrans.o
                0x000000000801f0e2                pgResetTemplate_adcChannelConfig
                0x000000000801f0e6                pgResetTemplate_pidAutotuneConfig
 .pg_resetdata  0x000000000801f0ee       0x2a /tmp/ccELukx5.ltrans7.ltrans.o
                0x000000000801f0ee                pgResetTemplate_rcControlsConfig
                0x000000000801f0f4                pgResetTemplate_failsafeConfig
                0x000000000801f104                pgResetTemplate_mixerConfig
                0x000000000801f108                pgResetTemplate_motorConfig
                0x000000000801f112                pgResetTemplate_flight3DConfig
 .pg_resetdata  0x000000000801f118       0x68 /tmp/ccELukx5.ltrans9.ltrans.o
                0x000000000801f118                pgResetTemplate_pidProfile
 .pg_resetdata  0x000000000801f180       0x14 /tmp/ccELukx5.ltrans10.ltrans.o
                0x000000000801f180                pgResetTemplate_telemetryConfig
 .pg_resetdata  0x000000000801f194       0x24 /tmp/ccELukx5.ltrans18.ltrans.o
                0x000000000801f194                pgResetTemplate_rxConfig
 .pg_resetdata  0x000000000801f1b8        0xa /tmp/ccELukx5.ltrans21.ltrans.o
                0x000000000801f1b8                pgResetTemplate_imuConfig
                0x000000000801f1c2                PROVIDE (__pg_resetdata_end, .)
                0x000000000801f1c2                _sidata = .

.rel.dyn        0x000000000801f1c4        0x0
 .rel.iplt      0x0000000000000000        0x0 obj/main/NAZE/startup_stm32f10x_md_gcc.o

.data           0x0000000020000000      0x5e8 load address 0x000000000801f1c2
                0x0000000020000000                . = ALIGN (0x4)
                0x0000000020000000                _sdata = .
 *(.data)
 .data          0x0000000020000000        0x8 /tmp/ccELukx5.ltrans1.ltrans.o
                0x0000000020000000                altHoldThrottleRCZero.lto_priv.449
 .data          0x0000000020000008       0x10 /tmp/ccELukx5.ltrans3.ltrans.o
                0x0000000020000008                geometry.lto_priv.202
 .data          0x0000000020000018        0x2 /tmp/ccELukx5.ltrans4.ltrans.o
                0x0000000020000018                rxIsInFailsafeMode.lto_priv.259
                0x0000000020000019                rxIsInFailsafeModeNotDataDriven.lto_priv.258
 *fill*         0x000000002000001a        0x2 
 .data          0x000000002000001c       0xc4 /tmp/ccELukx5.ltrans5.ltrans.o
 .data          0x00000000200000e0       0x20 /tmp/ccELukx5.ltrans6.ltrans.o
                0x00000000200000e0                magGain.lto_priv.488
 .data          0x0000000020000100        0x5 /tmp/ccELukx5.ltrans7.ltrans.o
                0x0000000020000104                isUsingSticksToArm.lto_priv.244
 .data          0x0000000020000105        0x1 /tmp/ccELukx5.ltrans8.ltrans.o
                0x0000000020000105                ppmCountDivisor.lto_priv.418
 *fill*         0x0000000020000106        0x2 
 .data          0x0000000020000108        0x4 /tmp/ccELukx5.ltrans10.ltrans.o
 .data          0x000000002000010c       0x1f /tmp/ccELukx5.ltrans11.ltrans.o
 *fill*         0x000000002000012b        0x1 
 .data          0x000000002000012c      0x1d0 /tmp/ccELukx5.ltrans17.ltrans.o
                0x000000002000012c                table_serial_rx
                0x0000000020000154                table_reset_altitude
                0x0000000020000160                table_off_on
                0x0000000020000168                table_nav_user_control_mode
                0x0000000020000170                table_nav_rth_alt_mode
                0x0000000020000184                table_motor_pwm_protocol
                0x0000000020000198                table_ltm_rates
                0x00000000200001a4                table_i2c_speed
                0x00000000200001b4                table_gyro_lpf
                0x00000000200001cc                table_gps_sbas_mode
                0x00000000200001e4                table_gps_provider
                0x00000000200001fc                table_gps_dyn_model
                0x0000000020000208                table_gimbal_mode
                0x0000000020000210                table_frsky_unit
                0x0000000020000218                table_failsafe_procedure
                0x0000000020000228                table_debug_modes
                0x0000000020000248                table_current_sensor
                0x0000000020000254                table_blackbox_device
                0x0000000020000260                table_aux_operator
                0x0000000020000268                table_alignment
                0x000000002000028c                table_mag_hardware
                0x00000000200002b4                table_baro_hardware
                0x00000000200002d0                table_acc_hardware
 *fill*         0x00000000200002fc        0x4 
 .data          0x0000000020000300      0x238 /tmp/ccELukx5.ltrans18.ltrans.o
                0x0000000020000308                cfTasks
 .data          0x0000000020000538       0x10 /tmp/ccELukx5.ltrans20.ltrans.o
                0x0000000020000538                i2cHardwareMap.lto_priv.426
 .data          0x0000000020000548       0x24 /tmp/ccELukx5.ltrans24.ltrans.o
                0x0000000020000548                spiHardwareMap.lto_priv.404
                0x0000000020000568                hse_value
 *(.data*)
 .data.gpsToSerialBaudRate
                0x000000002000056c        0x5 /tmp/ccELukx5.ltrans0.ltrans.o
                0x000000002000056c                gpsToSerialBaudRate
 .data.batteryCellCount
                0x0000000020000571        0x1 /tmp/ccELukx5.ltrans9.ltrans.o
                0x0000000020000571                batteryCellCount
 *fill*         0x0000000020000572        0x2 
 .data.SystemCoreClock
                0x0000000020000574        0x4 /tmp/ccELukx5.ltrans17.ltrans.o
                0x0000000020000574                SystemCoreClock
 .data.requestedSensors
                0x0000000020000578        0x6 /tmp/ccELukx5.ltrans18.ltrans.o
                0x0000000020000578                requestedSensors
 *fill*         0x000000002000057e        0x2 
 .data.impure_data
                0x0000000020000580       0x60 /usr/bin/../lib/gcc/arm-none-eabi/4.9.3/../../../../arm-none-eabi/lib/armv7-m/libc_nano.a(lib_a-impure.o)
 .data._impure_ptr
                0x00000000200005e0        0x4 /usr/bin/../lib/gcc/arm-none-eabi/4.9.3/../../../../arm-none-eabi/lib/armv7-m/libc_nano.a(lib_a-impure.o)
                0x00000000200005e0                _impure_ptr
 .data.__fdlib_version
                0x00000000200005e4        0x1 /usr/bin/../lib/gcc/arm-none-eabi/4.9.3/../../../../arm-none-eabi/lib/armv7-m/libm.a(lib_a-s_lib_ver.o)
                0x00000000200005e4                __fdlib_version
                0x00000000200005e8                . = ALIGN (0x4)
 *fill*         0x00000000200005e5        0x3 
                0x00000000200005e8                _edata = .

.igot.plt       0x00000000200005e8        0x0 load address 0x000000000801f7aa
 .igot.plt      0x0000000000000000        0x0 obj/main/NAZE/startup_stm32f10x_md_gcc.o
                0x00000000200005e8                . = ALIGN (0x4)

.bss            0x00000000200005e8     0x3cd4 load address 0x000000000801f7aa
                0x00000000200005e8                _sbss = .
                0x00000000200005e8                __bss_start__ = _sbss
 *(.bss)
 .bss           0x00000000200005e8      0x238 /tmp/ccELukx5.ltrans0.ltrans.o
                0x00000000200007c0                ms56xx_c.lto_priv.489
                0x00000000200007d4                bmp280_cal.lto_priv.490
                0x00000000200007f0                hmc5883Config.lto_priv.486
                0x00000000200007f8                telemetrySharedPort
                0x00000000200007fc                portConfig.lto_priv.365
                0x0000000020000800                frskyPortSharing.lto_priv.442
                0x0000000020000804                portConfig.lto_priv.366
                0x0000000020000808                ltmPortSharing.lto_priv.437
                0x000000002000080c                m25p16CsPin.lto_priv.484
                0x0000000020000810                couldBeBusy.lto_priv.485
                0x0000000020000814                tailAddress.lto_priv.464
 .bss           0x0000000020000820      0x3c4 /tmp/ccELukx5.ltrans1.ltrans.o
                0x000000002000082c                debugMode
                0x0000000020000830                softLpfFilterApplyFn.lto_priv.401
                0x0000000020000834                softLpfFilter.lto_priv.402
                0x0000000020000926                navCurrentState
                0x0000000020000930                navAccNEU
                0x0000000020000948                navActualSurface
                0x000000002000094a                navEPH
                0x000000002000094c                navEPV
                0x000000002000094e                navFlags
                0x0000000020000970                rcCommandAdjustedThrottle.lto_priv.460
                0x0000000020000988                lastAccelTargetX.lto_priv.447
                0x000000002000098c                lastAccelTargetY.lto_priv.448
                0x0000000020000990                mcPosControllerAccFilterStateX.lto_priv.445
                0x000000002000099c                mcPosControllerAccFilterStateY.lto_priv.446
                0x00000000200009a8                navTargetPosition
                0x00000000200009ae                navTargetSurface
                0x00000000200009b4                currentMixer.lto_priv.407
                0x0000000020000a16                mixerUsesServos.lto_priv.420
                0x0000000020000a58                servoMetadata.lto_priv.422
                0x0000000020000ad8                servoOutputEnabled.lto_priv.421
                0x0000000020000adc                motorControlEnable
                0x0000000020000bc0                blackboxPort.lto_priv.299
                0x0000000020000bc4                blackboxHeaderBudget
                0x0000000020000bc8                blackboxMaxHeaderBytesPerIteration.lto_priv.297
                0x0000000020000bcc                xmitState.lto_priv.295
                0x0000000020000bd4                blackboxIFrameInterval.lto_priv.364
                0x0000000020000bd8                blackboxSlowFrameIterationTimer.lto_priv.296
                0x0000000020000bda                blackboxPFrameIndex.lto_priv.292
                0x0000000020000bdc                blackboxIteration.lto_priv.291
                0x0000000020000be0                blackboxModeActivationConditionPresent.lto_priv.290
                0x0000000020000be1                blackboxPortSharing.lto_priv.298
                0x0000000020000be3                blackboxLoggedAnyFrames.lto_priv.294
 .bss           0x0000000020000be4       0xde /tmp/ccELukx5.ltrans2.ltrans.o
                0x0000000020000be4                cliWriter.lto_priv.342
                0x0000000020000be8                cliPort.lto_priv.341
                0x0000000020000bec                bufferIndex.lto_priv.344
                0x0000000020000bf0                cliBuffer.lto_priv.343
                0x0000000020000c30                printfSerialPort.lto_priv.357
                0x0000000020000cc0                pidGainsUpdateRequired.lto_priv.242
                0x0000000020000cc1                blackboxState.lto_priv.263
 *fill*         0x0000000020000cc2        0x2 
 .bss           0x0000000020000cc4      0x326 /tmp/ccELukx5.ltrans3.ltrans.o
                0x0000000020000cc4                systemConfig_System
                0x0000000020000ce0                calibratingA.lto_priv.200
                0x0000000020000ce2                calibratedAxis.lto_priv.274
                0x0000000020000ce8                gyroDev0.lto_priv.275
                0x0000000020000d30                servo
                0x0000000020000d40                baro
                0x0000000020000d64                mAhDrawn
                0x0000000020000d68                rssi
                0x0000000020000d6a                batteryConfig_System
                0x0000000020000d78                amperage
                0x0000000020000d7c                armingConfig_System
                0x0000000020000d80                gyroConfig_System
                0x0000000020000d92                adjustmentRanges_SystemArray
                0x0000000020000dda                activeBoxIds.lto_priv.186
                0x0000000020000dfa                activeBoxIdCount.lto_priv.187
                0x0000000020000dfb                gpsConfig_System
                0x0000000020000e02                compassConfig_System
                0x0000000020000e0e                GPS_distanceToHome
                0x0000000020000e10                GPS_directionToHome
                0x0000000020000e12                NAV_Status
                0x0000000020000e18                debug
                0x0000000020000e20                featureConfig_System
                0x0000000020000e24                blackboxConfig_System
                0x0000000020000e28                servoConfig_System
                0x0000000020000e32                barometerConfig_System
                0x0000000020000e34                navConfig_System
                0x0000000020000e80                positionEstimationConfig_System
                0x0000000020000eb8                systemConfig_Copy
                0x0000000020000ed4                featureConfig_Copy
                0x0000000020000f7e                adjustmentRanges_CopyArray
 *fill*         0x0000000020000fea        0x6 
 .bss           0x0000000020000ff0      0x14e /tmp/ccELukx5.ltrans4.ltrans.o
                0x0000000020000ff0                rxUpdateAt.lto_priv.260
                0x000000002000101c                rxSignalReceived.lto_priv.256
                0x000000002000101d                rxSignalReceivedNotDataDriven.lto_priv.257
                0x000000002000101f                rcSampleIndex.lto_priv.370
                0x0000000020001084                rcInvalidPulsPeriod
                0x00000000200010ec                rxFlightChannelsValid.lto_priv.480
                0x00000000200010f0                disarmAt.lto_priv.289
                0x0000000020001108                adjustmentStates.lto_priv.309
                0x000000002000113a                headFreeModeHold
                0x000000002000113c                isRXDataNew.lto_priv.262
 *fill*         0x000000002000113e        0x2 
 .bss           0x0000000020001140      0x4dc /tmp/ccELukx5.ltrans5.ltrans.o
 .bss           0x000000002000161c       0x15 /tmp/ccELukx5.ltrans6.ltrans.o
 *fill*         0x0000000020001631        0x3 
 .bss           0x0000000020001634      0x20a /tmp/ccELukx5.ltrans7.ltrans.o
                0x0000000020001634                motor
                0x0000000020001640                motors.lto_priv.188
                0x0000000020001658                flight3DConfig_System
                0x000000002000165e                motorConfig_System
                0x0000000020001668                motor_disarmed
                0x0000000020001674                mixerConfig_System
                0x000000002000167c                gyroCalibration.lto_priv.245
                0x00000000200016d4                imuMeasuredRotationBF
                0x00000000200016e0                imuMeasuredAccelBF
                0x00000000200016ec                imuRuntimeConfig.lto_priv.308
                0x0000000020001718                smallAngleCosZ.lto_priv.384
                0x000000002000171c                failsafeConfig_System
                0x000000002000172c                modeActivationConditions_SystemArray
                0x000000002000177c                specifiedConditionCountPerMode.lto_priv.243
                0x000000002000179c                isUsingNAVModes.lto_priv.301
                0x00000000200017a0                rcModeActivationMask
                0x00000000200017a4                lookupThrottleRCMid
                0x00000000200017a6                lookupThrottleRC.lto_priv.271
                0x00000000200017be                rcControlsConfig_System
                0x00000000200017ca                modeActivationConditions_CopyArray
                0x000000002000182a                mixerConfig_Copy
 *fill*         0x000000002000183e        0x2 
 .bss           0x0000000020001840      0x414 /tmp/ccELukx5.ltrans8.ltrans.o
                0x00000000200018e4                ppmDev
                0x00000000200019e8                inputFilteringMode.lto_priv.419
                0x00000000200019ec                servos.lto_priv.408
                0x0000000020001a0c                ioRecs
 .bss           0x0000000020001c54      0x670 /tmp/ccELukx5.ltrans9.ltrans.o
                0x0000000020001c54                pidProfile_ProfileCurrent
                0x0000000020001c58                rcCommand
                0x0000000020001c60                currentControlRateProfile
                0x0000000020001c64                dT
                0x0000000020001c68                flightModeFlags
                0x0000000020001c7c                beeperConfig_System
                0x0000000020001c84                stateFlags
                0x0000000020001c88                gpsSol
                0x0000000020001cb4                beep_multiBeeps.lto_priv.319
                0x0000000020001ccc                armingBeepTimeMicros.lto_priv.293
                0x0000000020001cd0                servoRuleCount.lto_priv.264
                0x0000000020001cd1                minServoIndex.lto_priv.265
                0x0000000020001cd2                maxServoIndex.lto_priv.266
                0x0000000020001cd3                currentServoMixer.lto_priv.267
                0x0000000020001d13                customServoMixers_SystemArray
                0x0000000020001d54                servoParams_SystemArray
                0x0000000020001db4                rxRuntimeConfig
                0x0000000020001dc0                rcData
                0x0000000020001de4                rMat.lto_priv.179
                0x0000000020001e08                headingHoldCosZLimit
                0x0000000020001e0c                gyro
                0x0000000020001e1c                pidState.lto_priv.269
                0x0000000020001f60                headingHoldTarget
                0x0000000020001f64                headingHoldRateFilter.lto_priv.180
                0x0000000020001f70                axisPID
                0x0000000020001f78                axisPID_P
                0x0000000020001f84                axisPID_I
                0x0000000020001f90                axisPID_D
                0x0000000020001f9c                axisPID_Setpoint
                0x0000000020001fa8                motorCount.lto_priv.177
                0x0000000020001fa9                motorLimitReached.lto_priv.268
                0x0000000020001fac                pidProfile_CopyStorage.lto_priv.232
                0x00000000200020e4                pidProfile_Storage.lto_priv.231
                0x000000002000221c                servoParams_CopyArray
                0x000000002000227c                customServoMixers_CopyArray
                0x00000000200022bc                beeperConfig_Copy
 *fill*         0x00000000200022c4        0x4 
 .bss           0x00000000200022c8      0x3a4 /tmp/ccELukx5.ltrans10.ltrans.o
                0x00000000200022c8                frskyTelemetryEnabled.lto_priv.441
                0x00000000200022d4                telemetryConfig_System
                0x00000000200022e9                ltmEnabled.lto_priv.436
                0x00000000200022ec                ltmPort.lto_priv.438
                0x00000000200022f4                ltm_schedule.lto_priv.439
                0x00000000200022fc                GPS_home
                0x0000000020002308                ltm_x_counter.lto_priv.440
                0x0000000020002309                lastDisarmReason.lto_priv.300
                0x0000000020002320                baroCalibrationFinished.lto_priv.303
                0x0000000020002324                baroCalibrationTimeout.lto_priv.363
                0x0000000020002330                posEstimator.lto_priv.270
 *fill*         0x000000002000266c        0x4 
 .bss           0x0000000020002670       0x50 /tmp/ccELukx5.ltrans11.ltrans.o
 .bss           0x00000000200026c0      0x10f /tmp/ccELukx5.ltrans12.ltrans.o
 *fill*         0x00000000200027cf        0x1 
 .bss           0x00000000200027d0       0xaa /tmp/ccELukx5.ltrans13.ltrans.o
                0x00000000200027f8                launchState.lto_priv.452
 *fill*         0x000000002000287a        0x2 
 .bss           0x000000002000287c       0xa0 /tmp/ccELukx5.ltrans14.ltrans.o
                0x000000002000287c                timerConfig
 .bss           0x000000002000291c      0x29c /tmp/ccELukx5.ltrans15.ltrans.o
                0x0000000020002920                gpsHistory.lto_priv.468
                0x0000000020002934                blackboxHistory.lto_priv.470
                0x0000000020002940                blackboxHistoryRing.lto_priv.471
                0x0000000020002b68                vbatReference.lto_priv.475
                0x0000000020002b6c                blackboxConditionCache.lto_priv.472
                0x0000000020002b70                blackboxIFrameIndex.lto_priv.469
                0x0000000020002b74                blackboxLastArmingBeep.lto_priv.474
                0x0000000020002b78                blackboxLastFlightModeFlags.lto_priv.473
 .bss           0x0000000020002bb8        0x4 /tmp/ccELukx5.ltrans17.ltrans.o
                0x0000000020002bb8                batteryState.lto_priv.362
                0x0000000020002bba                eepromConfigSize.lto_priv.356
 *fill*         0x0000000020002bbc        0x4 
 .bss           0x0000000020002bc0      0x598 /tmp/ccELukx5.ltrans18.ltrans.o
                0x0000000020002bc0                totalWaitingTasksSamples.lto_priv.359
                0x0000000020002bc4                totalWaitingTasks.lto_priv.360
                0x0000000020002bc8                spekHiRes.lto_priv.377
                0x0000000020002c10                sysTickUptime.lto_priv.146
                0x0000000020002c1a                rssi_channel.lto_priv.380
                0x0000000020002c1b                spek_chan_shift.lto_priv.375
                0x0000000020002c1c                rxRuntimeConfigPtr.lto_priv.374
                0x0000000020002c20                spek_chan_mask.lto_priv.376
                0x0000000020002c24                sbusChannelData.lto_priv.381
                0x0000000020002c86                captures.lto_priv.261
                0x0000000020002cbc                enabledSensors.lto_priv.178
                0x0000000020002cc0                activeFeaturesLatch.lto_priv.148
                0x0000000020002cc4                gpsStats
                0x0000000020002cd4                detectedSensors
                0x0000000020002cdc                mag
                0x0000000020002d24                boardAlignment_System
                0x0000000020002d2c                acc
                0x0000000020002d64                accelerometerConfig_System
                0x0000000020002d78                accFilter.lto_priv.273
                0x0000000020002dcc                taskQueueSize.lto_priv.361
                0x0000000020002dd0                taskQueueArray.lto_priv.358
                0x0000000020002dfc                currentTask.lto_priv.189
                0x0000000020002e00                rxConfig_System
                0x0000000020002e28                suspendRxSignalUntil.lto_priv.248
                0x0000000020002e30                skipRxSamples.lto_priv.247
                0x0000000020002e34                failsafeState.lto_priv.181
                0x0000000020002e68                warningLedState.lto_priv.147
                0x0000000020002e6c                warningLedTimer.lto_priv.302
                0x0000000020002e70                mspPorts.lto_priv.199
                0x00000000200030f8                findSerialPortConfigState.lto_priv.145
                0x00000000200030fa                rxChannelRangeConfigs_CopyArray
                0x000000002000310a                rxChannelRangeConfigs_SystemArray
                0x000000002000311c                rxConfig_Copy
 .bss           0x0000000020003158      0x4b4 /tmp/ccELukx5.ltrans19.ltrans.o
                0x000000002000315c                beeperIO.lto_priv.405
                0x0000000020003160                beeperInverted.lto_priv.406
                0x0000000020003164                uartPort1.lto_priv.492
                0x00000000200031b8                uartPort2.lto_priv.491
 *fill*         0x000000002000360c        0x4 
 .bss           0x0000000020003610       0x58 /tmp/ccELukx5.ltrans20.ltrans.o
                0x0000000020003610                busState.lto_priv.493
                0x0000000020003658                i2cErrorCount.lto_priv.183
                0x0000000020003660                usTicks.lto_priv.354
 .bss           0x0000000020003668       0xd6 /tmp/ccELukx5.ltrans21.ltrans.o
                0x0000000020003674                customMotorMixer_SystemArray
 *fill*         0x000000002000373e        0x2 
 .bss           0x0000000020003740      0x59a /tmp/ccELukx5.ltrans24.ltrans.o
                0x0000000020003740                extiChannelRecs
                0x0000000020003780                extiGroupPriority.lto_priv.423
                0x0000000020003788                posControl
                0x0000000020003c28                send_buffer.lto_priv.463
                0x0000000020003c62                findSharedSerialPortState.lto_priv.241
                0x0000000020003c64                serialConfig_System
                0x0000000020003c88                serialPortUsageList.lto_priv.144
                0x0000000020003cb8                serialConfig_Copy
 *fill*         0x0000000020003cda        0x6 
 .bss           0x0000000020003ce0       0x40 /tmp/ccELukx5.ltrans25.ltrans.o
                0x0000000020003ce8                landingTimerUs.lto_priv.462
                0x0000000020003cf0                landingTimer.lto_priv.461
                0x0000000020003cf8                landingDetectorStartedAt.lto_priv.457
                0x0000000020003d00                landingThrSum.lto_priv.459
                0x0000000020003d04                landingThrSamples.lto_priv.458
                0x0000000020003d08                navLatestActualPosition
                0x0000000020003d14                navActualVelocity
 .bss           0x0000000020003d20       0x82 /tmp/ccELukx5.ltrans26.ltrans.o
                0x0000000020003d20                bufferHead.lto_priv.481
                0x0000000020003d21                bufferTail.lto_priv.482
                0x0000000020003d22                flashWriteBuffer.lto_priv.483
 *fill*         0x0000000020003da2        0x6 
 .bss           0x0000000020003da8       0xb0 /tmp/ccELukx5.ltrans27.ltrans.o
                0x0000000020003e08                magInit.lto_priv.396
                0x0000000020003e0c                cachedRccCsrValue
                0x0000000020003e10                gpsState
                0x0000000020003e4c                amperageLatestADC
 .bss           0x0000000020003e58       0x14 /tmp/ccELukx5.ltrans28.ltrans.o
                0x0000000020003e58                navDesiredVelocity
                0x0000000020003e5e                prepareForTakeoffOnReset.lto_priv.450
 *fill*         0x0000000020003e6c        0x4 
 .bss           0x0000000020003e70       0x11 /tmp/ccELukx5.ltrans30.ltrans.o
                0x0000000020003e78                ppmFrameCount.lto_priv.355
                0x0000000020003e7c                needRxSignalMaxDelayUs.lto_priv.371
 *(SORT(.bss*))
 *fill*         0x0000000020003e81        0x3 
 .bss.cycleTime
                0x0000000020003e84        0x4 /tmp/ccELukx5.ltrans3.ltrans.o
                0x0000000020003e84                cycleTime
 .bss.bmp280_up
                0x0000000020003e88        0x4 /tmp/ccELukx5.ltrans5.ltrans.o
 .bss.armingFlags
                0x0000000020003e8c        0x4 /tmp/ccELukx5.ltrans7.ltrans.o
                0x0000000020003e8c                armingFlags
 .bss.__malloc_sbrk_start
                0x0000000020003e90        0x4 /usr/bin/../lib/gcc/arm-none-eabi/4.9.3/../../../../arm-none-eabi/lib/armv7-m/libc_nano.a(lib_a-nano-mallocr.o)
                0x0000000020003e90                __malloc_sbrk_start
 .bss.__malloc_free_list
                0x0000000020003e94        0x4 /usr/bin/../lib/gcc/arm-none-eabi/4.9.3/../../../../arm-none-eabi/lib/armv7-m/libc_nano.a(lib_a-nano-mallocr.o)
                0x0000000020003e94                __malloc_free_list
 .bss.heap_end.4079
                0x0000000020003e98        0x4 /usr/bin/../lib/gcc/arm-none-eabi/4.9.3/../../../../arm-none-eabi/lib/armv7-m/libnosys.a(sbrk.o)
 .bss.attitude  0x0000000020003e9c        0x6 /tmp/ccELukx5.ltrans9.ltrans.o
                0x0000000020003e9c                attitude
 .bss.averageSystemLoadPercent
                0x0000000020003ea2        0x2 /tmp/ccELukx5.ltrans18.ltrans.o
                0x0000000020003ea2                averageSystemLoadPercent
 .bss.outBuf.7509
                0x0000000020003ea4      0x410 /tmp/ccELukx5.ltrans2.ltrans.o
 .bss.hardwareRevision
                0x00000000200042b4        0x1 /tmp/ccELukx5.ltrans3.ltrans.o
                0x00000000200042b4                hardwareRevision
 .bss.ledPolarity
                0x00000000200042b5        0x1 /tmp/ccELukx5.ltrans8.ltrans.o
 .bss.cliMode   0x00000000200042b6        0x1 /tmp/ccELukx5.ltrans10.ltrans.o
                0x00000000200042b6                cliMode
 .bss.systemState
                0x00000000200042b7        0x1 /tmp/ccELukx5.ltrans29.ltrans.o
                0x00000000200042b7                systemState
 *(COMMON)
 COMMON         0x00000000200042b8        0x4 /usr/bin/../lib/gcc/arm-none-eabi/4.9.3/../../../../arm-none-eabi/lib/armv7-m/libc_nano.a(lib_a-reent.o)
                0x00000000200042b8                errno
                0x00000000200042bc                . = ALIGN (0x4)
                0x00000000200042bc                _ebss = .
                0x00000000200042bc                __bss_end__ = _ebss
                0x0000000020004ff8                _heap_stack_end = ((ORIGIN (STACKRAM) + 0x5000) - 0x8)
                0x00000000200047f8                _heap_stack_begin = ((_heap_stack_end - _Min_Stack_Size) - _Min_Heap_Size)
                0x00000000200047f8                . = _heap_stack_begin

._user_heap_stack
                0x00000000200042bc      0x800 load address 0x000000000801f7aa
                0x00000000200042bc                . = ALIGN (0x4)
                0x00000000200042bc                PROVIDE (end, .)
                0x00000000200042bc                PROVIDE (_end, .)
                0x00000000200042bc                . = (. + _Min_Heap_Size)
                0x0000000020004abc                . = (. + _Min_Stack_Size)
 *fill*         0x00000000200042bc      0x800 a5
                0x0000000020004abc                . = ALIGN (0x4)

.memory_b1_text
 *(.mb1text)
 *(.mb1text*)
 *(.mb1rodata)
 *(.mb1rodata*)

/DISCARD/
 libc.a(*)
 libm.a(*)
 libgcc.a(*)

.ARM.attributes
                0x0000000000000000       0x2f
 *(.ARM.attributes)
 .ARM.attributes
                0x0000000000000000       0x21 obj/main/NAZE/startup_stm32f10x_md_gcc.o
 .ARM.attributes
                0x0000000000000021       0x31 /tmp/ccELukx5.ltrans0.ltrans.o
 .ARM.attributes
                0x0000000000000052       0x31 /tmp/ccELukx5.ltrans1.ltrans.o
 .ARM.attributes
                0x0000000000000083       0x31 /tmp/ccELukx5.ltrans2.ltrans.o
 .ARM.attributes
                0x00000000000000b4       0x31 /tmp/ccELukx5.ltrans3.ltrans.o
 .ARM.attributes
                0x00000000000000e5       0x31 /tmp/ccELukx5.ltrans4.ltrans.o
 .ARM.attributes
                0x0000000000000116       0x31 /tmp/ccELukx5.ltrans5.ltrans.o
 .ARM.attributes
                0x0000000000000147       0x31 /tmp/ccELukx5.ltrans6.ltrans.o
 .ARM.attributes
                0x0000000000000178       0x31 /tmp/ccELukx5.ltrans7.ltrans.o
 .ARM.attributes
                0x00000000000001a9       0x31 /tmp/ccELukx5.ltrans8.ltrans.o
 .ARM.attributes
                0x00000000000001da       0x31 /tmp/ccELukx5.ltrans9.ltrans.o
 .ARM.attributes
                0x000000000000020b       0x31 /tmp/ccELukx5.ltrans10.ltrans.o
 .ARM.attributes
                0x000000000000023c       0x31 /tmp/ccELukx5.ltrans11.ltrans.o
 .ARM.attributes
                0x000000000000026d       0x31 /tmp/ccELukx5.ltrans12.ltrans.o
 .ARM.attributes
                0x000000000000029e       0x31 /tmp/ccELukx5.ltrans13.ltrans.o
 .ARM.attributes
                0x00000000000002cf       0x31 /tmp/ccELukx5.ltrans14.ltrans.o
 .ARM.attributes
                0x0000000000000300       0x31 /tmp/ccELukx5.ltrans15.ltrans.o
 .ARM.attributes
                0x0000000000000331       0x31 /tmp/ccELukx5.ltrans16.ltrans.o
 .ARM.attributes
                0x0000000000000362       0x31 /tmp/ccELukx5.ltrans17.ltrans.o
 .ARM.attributes
                0x0000000000000393       0x31 /tmp/ccELukx5.ltrans18.ltrans.o
 .ARM.attributes
                0x00000000000003c4       0x31 /tmp/ccELukx5.ltrans19.ltrans.o
 .ARM.attributes
                0x00000000000003f5       0x31 /tmp/ccELukx5.ltrans20.ltrans.o
 .ARM.attributes
                0x0000000000000426       0x31 /tmp/ccELukx5.ltrans21.ltrans.o
 .ARM.attributes
                0x0000000000000457       0x31 /tmp/ccELukx5.ltrans22.ltrans.o
 .ARM.attributes
                0x0000000000000488       0x31 /tmp/ccELukx5.ltrans23.ltrans.o
 .ARM.attributes
                0x00000000000004b9       0x31 /tmp/ccELukx5.ltrans24.ltrans.o
 .ARM.attributes
                0x00000000000004ea       0x31 /tmp/ccELukx5.ltrans25.ltrans.o
 .ARM.attributes
                0x000000000000051b       0x31 /tmp/ccELukx5.ltrans26.ltrans.o
 .ARM.attributes
                0x000000000000054c       0x31 /tmp/ccELukx5.ltrans27.ltrans.o
 .ARM.attributes
                0x000000000000057d       0x31 /tmp/ccELukx5.ltrans28.ltrans.o
 .ARM.attributes
                0x00000000000005ae       0x31 /tmp/ccELukx5.ltrans29.ltrans.o
 .ARM.attributes
                0x00000000000005df       0x31 /tmp/ccELukx5.ltrans30.ltrans.o
 .ARM.attributes
                0x0000000000000610       0x31 /tmp/ccELukx5.ltrans31.ltrans.o
 .ARM.attributes
                0x0000000000000641       0x1d /usr/bin/../lib/gcc/arm-none-eabi/4.9.3/armv7-m/libgcc.a(_arm_addsubdf3.o)
 .ARM.attributes
                0x000000000000065e       0x1d /usr/bin/../lib/gcc/arm-none-eabi/4.9.3/armv7-m/libgcc.a(_arm_muldivdf3.o)
 .ARM.attributes
                0x000000000000067b       0x1d /usr/bin/../lib/gcc/arm-none-eabi/4.9.3/armv7-m/libgcc.a(_arm_truncdfsf2.o)
 .ARM.attributes
                0x0000000000000698       0x1d /usr/bin/../lib/gcc/arm-none-eabi/4.9.3/armv7-m/libgcc.a(_arm_addsubsf3.o)
 .ARM.attributes
                0x00000000000006b5       0x1d /usr/bin/../lib/gcc/arm-none-eabi/4.9.3/armv7-m/libgcc.a(_arm_muldivsf3.o)
 .ARM.attributes
                0x00000000000006d2       0x1d /usr/bin/../lib/gcc/arm-none-eabi/4.9.3/armv7-m/libgcc.a(_arm_cmpsf2.o)
 .ARM.attributes
                0x00000000000006ef       0x1d /usr/bin/../lib/gcc/arm-none-eabi/4.9.3/armv7-m/libgcc.a(_arm_fixsfsi.o)
 .ARM.attributes
                0x000000000000070c       0x1d /usr/bin/../lib/gcc/arm-none-eabi/4.9.3/armv7-m/libgcc.a(_arm_fixunssfsi.o)
 .ARM.attributes
                0x0000000000000729       0x1d /usr/bin/../lib/gcc/arm-none-eabi/4.9.3/armv7-m/libgcc.a(_aeabi_ldivmod.o)
 .ARM.attributes
                0x0000000000000746       0x1d /usr/bin/../lib/gcc/arm-none-eabi/4.9.3/armv7-m/libgcc.a(_aeabi_uldivmod.o)
 .ARM.attributes
                0x0000000000000763       0x2d /usr/bin/../lib/gcc/arm-none-eabi/4.9.3/armv7-m/libgcc.a(_popcountsi2.o)
 .ARM.attributes
                0x0000000000000790       0x2d /usr/bin/../lib/gcc/arm-none-eabi/4.9.3/armv7-m/libgcc.a(bpabi.o)
 .ARM.attributes
                0x00000000000007bd       0x1d /usr/bin/../lib/gcc/arm-none-eabi/4.9.3/armv7-m/libgcc.a(_dvmd_tls.o)
 .ARM.attributes
                0x00000000000007da       0x2d /usr/bin/../lib/gcc/arm-none-eabi/4.9.3/armv7-m/libgcc.a(_divdi3.o)
 .ARM.attributes
                0x0000000000000807       0x2d /usr/bin/../lib/gcc/arm-none-eabi/4.9.3/armv7-m/libgcc.a(_udivdi3.o)
 .ARM.attributes
                0x0000000000000834       0x2d /usr/bin/../lib/gcc/arm-none-eabi/4.9.3/../../../../arm-none-eabi/lib/armv7-m/libg_nano.a(lib_a-memcmp.o)
 .ARM.attributes
                0x0000000000000861       0x2d /usr/bin/../lib/gcc/arm-none-eabi/4.9.3/../../../../arm-none-eabi/lib/armv7-m/libg_nano.a(lib_a-memcpy.o)
 .ARM.attributes
                0x000000000000088e       0x2d /usr/bin/../lib/gcc/arm-none-eabi/4.9.3/../../../../arm-none-eabi/lib/armv7-m/libg_nano.a(lib_a-memmove.o)
 .ARM.attributes
                0x00000000000008bb       0x2d /usr/bin/../lib/gcc/arm-none-eabi/4.9.3/../../../../arm-none-eabi/lib/armv7-m/libg_nano.a(lib_a-memset.o)
 .ARM.attributes
                0x00000000000008e8       0x2d /usr/bin/../lib/gcc/arm-none-eabi/4.9.3/../../../../arm-none-eabi/lib/armv7-m/libg_nano.a(lib_a-strcat.o)
 .ARM.attributes
                0x0000000000000915       0x2d /usr/bin/../lib/gcc/arm-none-eabi/4.9.3/../../../../arm-none-eabi/lib/armv7-m/libg_nano.a(lib_a-strchr.o)
 .ARM.attributes
                0x0000000000000942       0x2d /usr/bin/../lib/gcc/arm-none-eabi/4.9.3/../../../../arm-none-eabi/lib/armv7-m/libg_nano.a(lib_a-strcpy.o)
 .ARM.attributes
                0x000000000000096f       0x2d /usr/bin/../lib/gcc/arm-none-eabi/4.9.3/../../../../arm-none-eabi/lib/armv7-m/libg_nano.a(lib_a-strlen.o)
 .ARM.attributes
                0x000000000000099c       0x2d /usr/bin/../lib/gcc/arm-none-eabi/4.9.3/../../../../arm-none-eabi/lib/armv7-m/libg_nano.a(lib_a-strncmp.o)
 .ARM.attributes
                0x00000000000009c9       0x2d /usr/bin/../lib/gcc/arm-none-eabi/4.9.3/../../../../arm-none-eabi/lib/armv7-m/libg_nano.a(lib_a-strncpy.o)
 .ARM.attributes
                0x00000000000009f6       0x2d /usr/bin/../lib/gcc/arm-none-eabi/4.9.3/../../../../arm-none-eabi/lib/armv7-m/libg_nano.a(lib_a-strspn.o)
 .ARM.attributes
                0x0000000000000a23       0x2d /usr/bin/../lib/gcc/arm-none-eabi/4.9.3/../../../../arm-none-eabi/lib/armv7-m/libg_nano.a(lib_a-strstr.o)
 .ARM.attributes
                0x0000000000000a50       0x2d /usr/bin/../lib/gcc/arm-none-eabi/4.9.3/../../../../arm-none-eabi/lib/armv7-m/libm.a(lib_a-sf_fpclassify.o)
 .ARM.attributes
                0x0000000000000a7d       0x2d /usr/bin/../lib/gcc/arm-none-eabi/4.9.3/../../../../arm-none-eabi/lib/armv7-m/libc_nano.a(lib_a-strtok.o)
 .ARM.attributes
                0x0000000000000aaa       0x2d /usr/bin/../lib/gcc/arm-none-eabi/4.9.3/../../../../arm-none-eabi/lib/armv7-m/libc_nano.a(lib_a-strtok_r.o)
 .ARM.attributes
                0x0000000000000ad7       0x2d /usr/bin/../lib/gcc/arm-none-eabi/4.9.3/../../../../arm-none-eabi/lib/armv7-m/libc_nano.a(lib_a-impure.o)
 .ARM.attributes
                0x0000000000000b04       0x2d /usr/bin/../lib/gcc/arm-none-eabi/4.9.3/../../../../arm-none-eabi/lib/armv7-m/libc_nano.a(lib_a-malloc.o)
 .ARM.attributes
                0x0000000000000b31       0x2d /usr/bin/../lib/gcc/arm-none-eabi/4.9.3/../../../../arm-none-eabi/lib/armv7-m/libc_nano.a(lib_a-nano-mallocr.o)
 .ARM.attributes
                0x0000000000000b5e       0x2d /usr/bin/../lib/gcc/arm-none-eabi/4.9.3/../../../../arm-none-eabi/lib/armv7-m/libc_nano.a(lib_a-sbrkr.o)
 .ARM.attributes
                0x0000000000000b8b       0x2d /usr/bin/../lib/gcc/arm-none-eabi/4.9.3/../../../../arm-none-eabi/lib/armv7-m/libc_nano.a(lib_a-reent.o)
 .ARM.attributes
                0x0000000000000bb8       0x2d /usr/bin/../lib/gcc/arm-none-eabi/4.9.3/../../../../arm-none-eabi/lib/armv7-m/libnosys.a(sbrk.o)
 .ARM.attributes
                0x0000000000000be5       0x2d /usr/bin/../lib/gcc/arm-none-eabi/4.9.3/../../../../arm-none-eabi/lib/armv7-m/libm.a(lib_a-sf_lrint.o)
 .ARM.attributes
                0x0000000000000c12       0x2d /usr/bin/../lib/gcc/arm-none-eabi/4.9.3/../../../../arm-none-eabi/lib/armv7-m/libm.a(lib_a-wf_pow.o)
 .ARM.attributes
                0x0000000000000c3f       0x2d /usr/bin/../lib/gcc/arm-none-eabi/4.9.3/../../../../arm-none-eabi/lib/armv7-m/libm.a(lib_a-wf_sqrt.o)
 .ARM.attributes
                0x0000000000000c6c       0x2d /usr/bin/../lib/gcc/arm-none-eabi/4.9.3/../../../../arm-none-eabi/lib/armv7-m/libm.a(lib_a-ef_pow.o)
 .ARM.attributes
                0x0000000000000c99       0x2d /usr/bin/../lib/gcc/arm-none-eabi/4.9.3/../../../../arm-none-eabi/lib/armv7-m/libm.a(lib_a-ef_sqrt.o)
 .ARM.attributes
                0x0000000000000cc6       0x2d /usr/bin/../lib/gcc/arm-none-eabi/4.9.3/../../../../arm-none-eabi/lib/armv7-m/libm.a(lib_a-s_lib_ver.o)
 .ARM.attributes
                0x0000000000000cf3       0x2d /usr/bin/../lib/gcc/arm-none-eabi/4.9.3/../../../../arm-none-eabi/lib/armv7-m/libm.a(lib_a-s_matherr.o)
 .ARM.attributes
                0x0000000000000d20       0x2d /usr/bin/../lib/gcc/arm-none-eabi/4.9.3/../../../../arm-none-eabi/lib/armv7-m/libm.a(lib_a-s_rint.o)
 .ARM.attributes
                0x0000000000000d4d       0x2d /usr/bin/../lib/gcc/arm-none-eabi/4.9.3/../../../../arm-none-eabi/lib/armv7-m/libm.a(lib_a-sf_fabs.o)
 .ARM.attributes
                0x0000000000000d7a       0x2d /usr/bin/../lib/gcc/arm-none-eabi/4.9.3/../../../../arm-none-eabi/lib/armv7-m/libm.a(lib_a-sf_finite.o)
 .ARM.attributes
                0x0000000000000da7       0x2d /usr/bin/../lib/gcc/arm-none-eabi/4.9.3/../../../../arm-none-eabi/lib/armv7-m/libm.a(lib_a-sf_nan.o)
 .ARM.attributes
                0x0000000000000dd4       0x2d /usr/bin/../lib/gcc/arm-none-eabi/4.9.3/../../../../arm-none-eabi/lib/armv7-m/libm.a(lib_a-sf_scalbn.o)
 .ARM.attributes
                0x0000000000000e01       0x2d /usr/bin/../lib/gcc/arm-none-eabi/4.9.3/../../../../arm-none-eabi/lib/armv7-m/libm.a(lib_a-sf_copysign.o)
 .ARM.attributes
                0x0000000000000e2e       0x2d /usr/bin/../lib/gcc/arm-none-eabi/4.9.3/../../../../arm-none-eabi/lib/armv7-m/libc_nano.a(lib_a-errno.o)
 .ARM.attributes
                0x0000000000000e5b       0x1d /usr/bin/../lib/gcc/arm-none-eabi/4.9.3/armv7-m/libgcc.a(_arm_cmpdf2.o)
OUTPUT(obj/main/inav_NAZE.elf elf32-littlearm)

.debug_info     0x0000000000000000    0x4db0d
 .debug_info    0x0000000000000000     0x7085 /tmp/ccELukx5.ltrans0.ltrans.o
 .debug_info    0x0000000000007085     0x5b47 /tmp/ccELukx5.ltrans1.ltrans.o
 .debug_info    0x000000000000cbcc     0x4777 /tmp/ccELukx5.ltrans2.ltrans.o
 .debug_info    0x0000000000011343     0x48e5 /tmp/ccELukx5.ltrans3.ltrans.o
 .debug_info    0x0000000000015c28     0x2af9 /tmp/ccELukx5.ltrans4.ltrans.o
 .debug_info    0x0000000000018721     0x3c9c /tmp/ccELukx5.ltrans5.ltrans.o
 .debug_info    0x000000000001c3bd     0x210e /tmp/ccELukx5.ltrans6.ltrans.o
 .debug_info    0x000000000001e4cb     0x2b12 /tmp/ccELukx5.ltrans7.ltrans.o
 .debug_info    0x0000000000020fdd     0x2f23 /tmp/ccELukx5.ltrans8.ltrans.o
 .debug_info    0x0000000000023f00     0x2db4 /tmp/ccELukx5.ltrans9.ltrans.o
 .debug_info    0x0000000000026cb4     0x252b /tmp/ccELukx5.ltrans10.ltrans.o
 .debug_info    0x00000000000291df     0x1d9b /tmp/ccELukx5.ltrans11.ltrans.o
 .debug_info    0x000000000002af7a     0x22e3 /tmp/ccELukx5.ltrans12.ltrans.o
 .debug_info    0x000000000002d25d     0x1ffa /tmp/ccELukx5.ltrans13.ltrans.o
 .debug_info    0x000000000002f257     0x28d9 /tmp/ccELukx5.ltrans14.ltrans.o
 .debug_info    0x0000000000031b30     0x27de /tmp/ccELukx5.ltrans15.ltrans.o
 .debug_info    0x000000000003430e     0x24f8 /tmp/ccELukx5.ltrans16.ltrans.o
 .debug_info    0x0000000000036806     0x2ab1 /tmp/ccELukx5.ltrans17.ltrans.o
 .debug_info    0x00000000000392b7     0x2ee8 /tmp/ccELukx5.ltrans18.ltrans.o
 .debug_info    0x000000000003c19f     0x211b /tmp/ccELukx5.ltrans19.ltrans.o
 .debug_info    0x000000000003e2ba     0x1d42 /tmp/ccELukx5.ltrans20.ltrans.o
 .debug_info    0x000000000003fffc     0x28b3 /tmp/ccELukx5.ltrans21.ltrans.o
 .debug_info    0x00000000000428af     0x180f /tmp/ccELukx5.ltrans22.ltrans.o
 .debug_info    0x00000000000440be     0x166a /tmp/ccELukx5.ltrans23.ltrans.o
 .debug_info    0x0000000000045728     0x2f33 /tmp/ccELukx5.ltrans24.ltrans.o
 .debug_info    0x000000000004865b     0x188f /tmp/ccELukx5.ltrans25.ltrans.o
 .debug_info    0x0000000000049eea     0x121f /tmp/ccELukx5.ltrans26.ltrans.o
 .debug_info    0x000000000004b109     0x118e /tmp/ccELukx5.ltrans27.ltrans.o
 .debug_info    0x000000000004c297      0xb54 /tmp/ccELukx5.ltrans28.ltrans.o
 .debug_info    0x000000000004cdeb      0x8a7 /tmp/ccELukx5.ltrans29.ltrans.o
 .debug_info    0x000000000004d692      0x292 /tmp/ccELukx5.ltrans30.ltrans.o
 .debug_info    0x000000000004d924      0x1e9 /tmp/ccELukx5.ltrans31.ltrans.o

.debug_abbrev   0x0000000000000000     0xa10d
 .debug_abbrev  0x0000000000000000      0x660 /tmp/ccELukx5.ltrans0.ltrans.o
 .debug_abbrev  0x0000000000000660      0x5fb /tmp/ccELukx5.ltrans1.ltrans.o
 .debug_abbrev  0x0000000000000c5b      0x596 /tmp/ccELukx5.ltrans2.ltrans.o
 .debug_abbrev  0x00000000000011f1      0x441 /tmp/ccELukx5.ltrans3.ltrans.o
 .debug_abbrev  0x0000000000001632      0x4d4 /tmp/ccELukx5.ltrans4.ltrans.o
 .debug_abbrev  0x0000000000001b06      0x684 /tmp/ccELukx5.ltrans5.ltrans.o
 .debug_abbrev  0x000000000000218a      0x69d /tmp/ccELukx5.ltrans6.ltrans.o
 .debug_abbrev  0x0000000000002827      0x675 /tmp/ccELukx5.ltrans7.ltrans.o
 .debug_abbrev  0x0000000000002e9c      0x6d9 /tmp/ccELukx5.ltrans8.ltrans.o
 .debug_abbrev  0x0000000000003575      0x554 /tmp/ccELukx5.ltrans9.ltrans.o
 .debug_abbrev  0x0000000000003ac9      0x4b7 /tmp/ccELukx5.ltrans10.ltrans.o
 .debug_abbrev  0x0000000000003f80      0x546 /tmp/ccELukx5.ltrans11.ltrans.o
 .debug_abbrev  0x00000000000044c6      0x4b0 /tmp/ccELukx5.ltrans12.ltrans.o
 .debug_abbrev  0x0000000000004976      0x53c /tmp/ccELukx5.ltrans13.ltrans.o
 .debug_abbrev  0x0000000000004eb2      0x66f /tmp/ccELukx5.ltrans14.ltrans.o
 .debug_abbrev  0x0000000000005521      0x68b /tmp/ccELukx5.ltrans15.ltrans.o
 .debug_abbrev  0x0000000000005bac      0x4a1 /tmp/ccELukx5.ltrans16.ltrans.o
 .debug_abbrev  0x000000000000604d      0x591 /tmp/ccELukx5.ltrans17.ltrans.o
 .debug_abbrev  0x00000000000065de      0x710 /tmp/ccELukx5.ltrans18.ltrans.o
 .debug_abbrev  0x0000000000006cee      0x546 /tmp/ccELukx5.ltrans19.ltrans.o
 .debug_abbrev  0x0000000000007234      0x3fe /tmp/ccELukx5.ltrans20.ltrans.o
 .debug_abbrev  0x0000000000007632      0x519 /tmp/ccELukx5.ltrans21.ltrans.o
 .debug_abbrev  0x0000000000007b4b      0x54c /tmp/ccELukx5.ltrans22.ltrans.o
 .debug_abbrev  0x0000000000008097      0x3bc /tmp/ccELukx5.ltrans23.ltrans.o
 .debug_abbrev  0x0000000000008453      0x4f4 /tmp/ccELukx5.ltrans24.ltrans.o
 .debug_abbrev  0x0000000000008947      0x529 /tmp/ccELukx5.ltrans25.ltrans.o
 .debug_abbrev  0x0000000000008e70      0x57b /tmp/ccELukx5.ltrans26.ltrans.o
 .debug_abbrev  0x00000000000093eb      0x3d8 /tmp/ccELukx5.ltrans27.ltrans.o
 .debug_abbrev  0x00000000000097c3      0x424 /tmp/ccELukx5.ltrans28.ltrans.o
 .debug_abbrev  0x0000000000009be7      0x2d0 /tmp/ccELukx5.ltrans29.ltrans.o
 .debug_abbrev  0x0000000000009eb7      0x159 /tmp/ccELukx5.ltrans30.ltrans.o
 .debug_abbrev  0x000000000000a010       0xfd /tmp/ccELukx5.ltrans31.ltrans.o

.debug_loc      0x0000000000000000    0x221f3
 .debug_loc     0x0000000000000000     0x1cd1 /tmp/ccELukx5.ltrans0.ltrans.o
 .debug_loc     0x0000000000001cd1     0x231c /tmp/ccELukx5.ltrans1.ltrans.o
 .debug_loc     0x0000000000003fed     0x3db0 /tmp/ccELukx5.ltrans2.ltrans.o
 .debug_loc     0x0000000000007d9d     0x2ff8 /tmp/ccELukx5.ltrans3.ltrans.o
 .debug_loc     0x000000000000ad95      0xb6e /tmp/ccELukx5.ltrans4.ltrans.o
 .debug_loc     0x000000000000b903     0x16d3 /tmp/ccELukx5.ltrans5.ltrans.o
 .debug_loc     0x000000000000cfd6      0xb4a /tmp/ccELukx5.ltrans6.ltrans.o
 .debug_loc     0x000000000000db20     0x1349 /tmp/ccELukx5.ltrans7.ltrans.o
 .debug_loc     0x000000000000ee69     0x20fd /tmp/ccELukx5.ltrans8.ltrans.o
 .debug_loc     0x0000000000010f66     0x1380 /tmp/ccELukx5.ltrans9.ltrans.o
 .debug_loc     0x00000000000122e6     0x11a8 /tmp/ccELukx5.ltrans10.ltrans.o
 .debug_loc     0x000000000001348e      0xf5c /tmp/ccELukx5.ltrans11.ltrans.o
 .debug_loc     0x00000000000143ea      0x78e /tmp/ccELukx5.ltrans12.ltrans.o
 .debug_loc     0x0000000000014b78      0xfad /tmp/ccELukx5.ltrans13.ltrans.o
 .debug_loc     0x0000000000015b25     0x139f /tmp/ccELukx5.ltrans14.ltrans.o
 .debug_loc     0x0000000000016ec4      0x8a0 /tmp/ccELukx5.ltrans15.ltrans.o
 .debug_loc     0x0000000000017764     0x15bc /tmp/ccELukx5.ltrans16.ltrans.o
 .debug_loc     0x0000000000018d20      0xe3c /tmp/ccELukx5.ltrans17.ltrans.o
 .debug_loc     0x0000000000019b5c      0xcc7 /tmp/ccELukx5.ltrans18.ltrans.o
 .debug_loc     0x000000000001a823     0x1112 /tmp/ccELukx5.ltrans19.ltrans.o
 .debug_loc     0x000000000001b935      0xaaa /tmp/ccELukx5.ltrans20.ltrans.o
 .debug_loc     0x000000000001c3df      0xb6a /tmp/ccELukx5.ltrans21.ltrans.o
 .debug_loc     0x000000000001cf49     0x1749 /tmp/ccELukx5.ltrans22.ltrans.o
 .debug_loc     0x000000000001e692      0x7e0 /tmp/ccELukx5.ltrans23.ltrans.o
 .debug_loc     0x000000000001ee72     0x1465 /tmp/ccELukx5.ltrans24.ltrans.o
 .debug_loc     0x00000000000202d7      0xcf1 /tmp/ccELukx5.ltrans25.ltrans.o
 .debug_loc     0x0000000000020fc8      0x5ed /tmp/ccELukx5.ltrans26.ltrans.o
 .debug_loc     0x00000000000215b5      0x478 /tmp/ccELukx5.ltrans27.ltrans.o
 .debug_loc     0x0000000000021a2d      0x562 /tmp/ccELukx5.ltrans28.ltrans.o
 .debug_loc     0x0000000000021f8f       0x9d /tmp/ccELukx5.ltrans29.ltrans.o
 .debug_loc     0x000000000002202c       0xdb /tmp/ccELukx5.ltrans30.ltrans.o
 .debug_loc     0x0000000000022107       0xec /tmp/ccELukx5.ltrans31.ltrans.o

.debug_aranges  0x0000000000000000      0x400
 .debug_aranges
                0x0000000000000000       0x20 /tmp/ccELukx5.ltrans0.ltrans.o
 .debug_aranges
                0x0000000000000020       0x20 /tmp/ccELukx5.ltrans1.ltrans.o
 .debug_aranges
                0x0000000000000040       0x20 /tmp/ccELukx5.ltrans2.ltrans.o
 .debug_aranges
                0x0000000000000060       0x20 /tmp/ccELukx5.ltrans3.ltrans.o
 .debug_aranges
                0x0000000000000080       0x20 /tmp/ccELukx5.ltrans4.ltrans.o
 .debug_aranges
                0x00000000000000a0       0x20 /tmp/ccELukx5.ltrans5.ltrans.o
 .debug_aranges
                0x00000000000000c0       0x20 /tmp/ccELukx5.ltrans6.ltrans.o
 .debug_aranges
                0x00000000000000e0       0x20 /tmp/ccELukx5.ltrans7.ltrans.o
 .debug_aranges
                0x0000000000000100       0x20 /tmp/ccELukx5.ltrans8.ltrans.o
 .debug_aranges
                0x0000000000000120       0x20 /tmp/ccELukx5.ltrans9.ltrans.o
 .debug_aranges
                0x0000000000000140       0x20 /tmp/ccELukx5.ltrans10.ltrans.o
 .debug_aranges
                0x0000000000000160       0x20 /tmp/ccELukx5.ltrans11.ltrans.o
 .debug_aranges
                0x0000000000000180       0x20 /tmp/ccELukx5.ltrans12.ltrans.o
 .debug_aranges
                0x00000000000001a0       0x20 /tmp/ccELukx5.ltrans13.ltrans.o
 .debug_aranges
                0x00000000000001c0       0x20 /tmp/ccELukx5.ltrans14.ltrans.o
 .debug_aranges
                0x00000000000001e0       0x20 /tmp/ccELukx5.ltrans15.ltrans.o
 .debug_aranges
                0x0000000000000200       0x20 /tmp/ccELukx5.ltrans16.ltrans.o
 .debug_aranges
                0x0000000000000220       0x20 /tmp/ccELukx5.ltrans17.ltrans.o
 .debug_aranges
                0x0000000000000240       0x20 /tmp/ccELukx5.ltrans18.ltrans.o
 .debug_aranges
                0x0000000000000260       0x20 /tmp/ccELukx5.ltrans19.ltrans.o
 .debug_aranges
                0x0000000000000280       0x20 /tmp/ccELukx5.ltrans20.ltrans.o
 .debug_aranges
                0x00000000000002a0       0x20 /tmp/ccELukx5.ltrans21.ltrans.o
 .debug_aranges
                0x00000000000002c0       0x20 /tmp/ccELukx5.ltrans22.ltrans.o
 .debug_aranges
                0x00000000000002e0       0x20 /tmp/ccELukx5.ltrans23.ltrans.o
 .debug_aranges
                0x0000000000000300       0x20 /tmp/ccELukx5.ltrans24.ltrans.o
 .debug_aranges
                0x0000000000000320       0x20 /tmp/ccELukx5.ltrans25.ltrans.o
 .debug_aranges
                0x0000000000000340       0x20 /tmp/ccELukx5.ltrans26.ltrans.o
 .debug_aranges
                0x0000000000000360       0x20 /tmp/ccELukx5.ltrans27.ltrans.o
 .debug_aranges
                0x0000000000000380       0x20 /tmp/ccELukx5.ltrans28.ltrans.o
 .debug_aranges
                0x00000000000003a0       0x20 /tmp/ccELukx5.ltrans29.ltrans.o
 .debug_aranges
                0x00000000000003c0       0x20 /tmp/ccELukx5.ltrans30.ltrans.o
 .debug_aranges
                0x00000000000003e0       0x20 /tmp/ccELukx5.ltrans31.ltrans.o

.debug_ranges   0x0000000000000000     0x76c0
 .debug_ranges  0x0000000000000000      0xfb8 /tmp/ccELukx5.ltrans0.ltrans.o
 .debug_ranges  0x0000000000000fb8      0xc70 /tmp/ccELukx5.ltrans1.ltrans.o
 .debug_ranges  0x0000000000001c28      0xf30 /tmp/ccELukx5.ltrans2.ltrans.o
 .debug_ranges  0x0000000000002b58      0xb40 /tmp/ccELukx5.ltrans3.ltrans.o
 .debug_ranges  0x0000000000003698      0x670 /tmp/ccELukx5.ltrans4.ltrans.o
 .debug_ranges  0x0000000000003d08      0x270 /tmp/ccELukx5.ltrans5.ltrans.o
 .debug_ranges  0x0000000000003f78      0x118 /tmp/ccELukx5.ltrans6.ltrans.o
 .debug_ranges  0x0000000000004090      0x2c0 /tmp/ccELukx5.ltrans7.ltrans.o
 .debug_ranges  0x0000000000004350      0x240 /tmp/ccELukx5.ltrans8.ltrans.o
 .debug_ranges  0x0000000000004590      0x590 /tmp/ccELukx5.ltrans9.ltrans.o
 .debug_ranges  0x0000000000004b20      0x508 /tmp/ccELukx5.ltrans10.ltrans.o
 .debug_ranges  0x0000000000005028      0x2c0 /tmp/ccELukx5.ltrans11.ltrans.o
 .debug_ranges  0x00000000000052e8      0x308 /tmp/ccELukx5.ltrans12.ltrans.o
 .debug_ranges  0x00000000000055f0      0x478 /tmp/ccELukx5.ltrans13.ltrans.o
 .debug_ranges  0x0000000000005a68      0x248 /tmp/ccELukx5.ltrans14.ltrans.o
 .debug_ranges  0x0000000000005cb0      0x3d8 /tmp/ccELukx5.ltrans15.ltrans.o
 .debug_ranges  0x0000000000006088      0x3b0 /tmp/ccELukx5.ltrans16.ltrans.o
 .debug_ranges  0x0000000000006438      0x260 /tmp/ccELukx5.ltrans17.ltrans.o
 .debug_ranges  0x0000000000006698       0xc8 /tmp/ccELukx5.ltrans18.ltrans.o
 .debug_ranges  0x0000000000006760      0x1b0 /tmp/ccELukx5.ltrans19.ltrans.o
 .debug_ranges  0x0000000000006910      0x168 /tmp/ccELukx5.ltrans20.ltrans.o
 .debug_ranges  0x0000000000006a78      0x270 /tmp/ccELukx5.ltrans21.ltrans.o
 .debug_ranges  0x0000000000006ce8      0x158 /tmp/ccELukx5.ltrans22.ltrans.o
 .debug_ranges  0x0000000000006e40      0x168 /tmp/ccELukx5.ltrans23.ltrans.o
 .debug_ranges  0x0000000000006fa8      0x1b0 /tmp/ccELukx5.ltrans24.ltrans.o
 .debug_ranges  0x0000000000007158      0x110 /tmp/ccELukx5.ltrans25.ltrans.o
 .debug_ranges  0x0000000000007268       0xc8 /tmp/ccELukx5.ltrans26.ltrans.o
 .debug_ranges  0x0000000000007330      0x200 /tmp/ccELukx5.ltrans27.ltrans.o
 .debug_ranges  0x0000000000007530      0x150 /tmp/ccELukx5.ltrans28.ltrans.o
 .debug_ranges  0x0000000000007680       0x18 /tmp/ccELukx5.ltrans29.ltrans.o
 .debug_ranges  0x0000000000007698       0x28 /tmp/ccELukx5.ltrans30.ltrans.o

.debug_line     0x0000000000000000     0xee1f
 .debug_line    0x0000000000000000     0x14d3 /tmp/ccELukx5.ltrans0.ltrans.o
 .debug_line    0x00000000000014d3     0x10b4 /tmp/ccELukx5.ltrans1.ltrans.o
 .debug_line    0x0000000000002587     0x10d4 /tmp/ccELukx5.ltrans2.ltrans.o
 .debug_line    0x000000000000365b      0xfbe /tmp/ccELukx5.ltrans3.ltrans.o
 .debug_line    0x0000000000004619      0x90c /tmp/ccELukx5.ltrans4.ltrans.o
 .debug_line    0x0000000000004f25      0x97f /tmp/ccELukx5.ltrans5.ltrans.o
 .debug_line    0x00000000000058a4      0x718 /tmp/ccELukx5.ltrans6.ltrans.o
 .debug_line    0x0000000000005fbc      0x7f6 /tmp/ccELukx5.ltrans7.ltrans.o
 .debug_line    0x00000000000067b2      0x852 /tmp/ccELukx5.ltrans8.ltrans.o
 .debug_line    0x0000000000007004      0x8c0 /tmp/ccELukx5.ltrans9.ltrans.o
 .debug_line    0x00000000000078c4      0x717 /tmp/ccELukx5.ltrans10.ltrans.o
 .debug_line    0x0000000000007fdb      0x5b4 /tmp/ccELukx5.ltrans11.ltrans.o
 .debug_line    0x000000000000858f      0x4e0 /tmp/ccELukx5.ltrans12.ltrans.o
 .debug_line    0x0000000000008a6f      0x654 /tmp/ccELukx5.ltrans13.ltrans.o
 .debug_line    0x00000000000090c3      0x72e /tmp/ccELukx5.ltrans14.ltrans.o
 .debug_line    0x00000000000097f1      0x8d6 /tmp/ccELukx5.ltrans15.ltrans.o
 .debug_line    0x000000000000a0c7      0x5c3 /tmp/ccELukx5.ltrans16.ltrans.o
 .debug_line    0x000000000000a68a      0x756 /tmp/ccELukx5.ltrans17.ltrans.o
 .debug_line    0x000000000000ade0      0x8f3 /tmp/ccELukx5.ltrans18.ltrans.o
 .debug_line    0x000000000000b6d3      0x640 /tmp/ccELukx5.ltrans19.ltrans.o
 .debug_line    0x000000000000bd13      0x58d /tmp/ccELukx5.ltrans20.ltrans.o
 .debug_line    0x000000000000c2a0      0x659 /tmp/ccELukx5.ltrans21.ltrans.o
 .debug_line    0x000000000000c8f9      0x448 /tmp/ccELukx5.ltrans22.ltrans.o
 .debug_line    0x000000000000cd41      0x408 /tmp/ccELukx5.ltrans23.ltrans.o
 .debug_line    0x000000000000d149      0x6da /tmp/ccELukx5.ltrans24.ltrans.o
 .debug_line    0x000000000000d823      0x507 /tmp/ccELukx5.ltrans25.ltrans.o
 .debug_line    0x000000000000dd2a      0x469 /tmp/ccELukx5.ltrans26.ltrans.o
 .debug_line    0x000000000000e193      0x436 /tmp/ccELukx5.ltrans27.ltrans.o
 .debug_line    0x000000000000e5c9      0x382 /tmp/ccELukx5.ltrans28.ltrans.o
 .debug_line    0x000000000000e94b      0x208 /tmp/ccELukx5.ltrans29.ltrans.o
 .debug_line    0x000000000000eb53      0x182 /tmp/ccELukx5.ltrans30.ltrans.o
 .debug_line    0x000000000000ecd5      0x14a /tmp/ccELukx5.ltrans31.ltrans.o

.debug_str      0x0000000000000000    0x1758c
 .debug_str     0x0000000000000000     0x4245 /tmp/ccELukx5.ltrans0.ltrans.o
                                       0x441f (size before relaxing)
 .debug_str     0x0000000000004245     0x31e3 /tmp/ccELukx5.ltrans1.ltrans.o
                                       0x405a (size before relaxing)
 .debug_str     0x0000000000007428      0xdd1 /tmp/ccELukx5.ltrans2.ltrans.o
                                       0x1bbf (size before relaxing)
 .debug_str     0x00000000000081f9     0x180e /tmp/ccELukx5.ltrans3.ltrans.o
                                       0x27bd (size before relaxing)
 .debug_str     0x0000000000009a07     0x1171 /tmp/ccELukx5.ltrans4.ltrans.o
                                       0x227f (size before relaxing)
 .debug_str     0x000000000000ab78      0xe61 /tmp/ccELukx5.ltrans5.ltrans.o
                                       0x245a (size before relaxing)
 .debug_str     0x000000000000b9d9      0xcc8 /tmp/ccELukx5.ltrans6.ltrans.o
                                       0x19db (size before relaxing)
 .debug_str     0x000000000000c6a1      0xc9a /tmp/ccELukx5.ltrans7.ltrans.o
                                       0x1faa (size before relaxing)
 .debug_str     0x000000000000d33b      0xb09 /tmp/ccELukx5.ltrans8.ltrans.o
                                       0x186f (size before relaxing)
 .debug_str     0x000000000000de44      0xf2e /tmp/ccELukx5.ltrans9.ltrans.o
                                       0x293d (size before relaxing)
 .debug_str     0x000000000000ed72      0xc12 /tmp/ccELukx5.ltrans10.ltrans.o
                                       0x14ae (size before relaxing)
 .debug_str     0x000000000000f984      0x5f7 /tmp/ccELukx5.ltrans11.ltrans.o
                                       0x137c (size before relaxing)
 .debug_str     0x000000000000ff7b      0xf62 /tmp/ccELukx5.ltrans12.ltrans.o
                                       0x1db0 (size before relaxing)
 .debug_str     0x0000000000010edd      0x82f /tmp/ccELukx5.ltrans13.ltrans.o
                                       0x1bb5 (size before relaxing)
 .debug_str     0x000000000001170c      0x8f2 /tmp/ccELukx5.ltrans14.ltrans.o
                                       0x14d7 (size before relaxing)
 .debug_str     0x0000000000011ffe      0x635 /tmp/ccELukx5.ltrans15.ltrans.o
                                       0x2401 (size before relaxing)
 .debug_str     0x0000000000012633      0x54f /tmp/ccELukx5.ltrans16.ltrans.o
                                       0x1195 (size before relaxing)
 .debug_str     0x0000000000012b82      0x8b6 /tmp/ccELukx5.ltrans17.ltrans.o
                                       0x168f (size before relaxing)
 .debug_str     0x0000000000013438      0xfa3 /tmp/ccELukx5.ltrans18.ltrans.o
                                       0x256e (size before relaxing)
 .debug_str     0x00000000000143db      0x4e0 /tmp/ccELukx5.ltrans19.ltrans.o
                                       0x1047 (size before relaxing)
 .debug_str     0x00000000000148bb      0x5ab /tmp/ccELukx5.ltrans20.ltrans.o
                                        0xd38 (size before relaxing)
 .debug_str     0x0000000000014e66      0x505 /tmp/ccELukx5.ltrans21.ltrans.o
                                       0x1866 (size before relaxing)
 .debug_str     0x000000000001536b      0x162 /tmp/ccELukx5.ltrans22.ltrans.o
                                        0x7de (size before relaxing)
 .debug_str     0x00000000000154cd      0x24e /tmp/ccELukx5.ltrans23.ltrans.o
                                        0xf5b (size before relaxing)
 .debug_str     0x000000000001571b      0xac1 /tmp/ccELukx5.ltrans24.ltrans.o
                                       0x203b (size before relaxing)
 .debug_str     0x00000000000161dc      0xa6c /tmp/ccELukx5.ltrans25.ltrans.o
                                       0x1a49 (size before relaxing)
 .debug_str     0x0000000000016c48      0x1fa /tmp/ccELukx5.ltrans26.ltrans.o
                                        0xbe4 (size before relaxing)
 .debug_str     0x0000000000016e42      0x37f /tmp/ccELukx5.ltrans27.ltrans.o
                                        0xf7b (size before relaxing)
 .debug_str     0x00000000000171c1      0x211 /tmp/ccELukx5.ltrans28.ltrans.o
                                        0x8de (size before relaxing)
 .debug_str     0x00000000000173d2       0x66 /tmp/ccELukx5.ltrans29.ltrans.o
                                        0x6cd (size before relaxing)
 .debug_str     0x0000000000017438      0x10c /tmp/ccELukx5.ltrans30.ltrans.o
                                        0x2b6 (size before relaxing)
 .debug_str     0x0000000000017544       0x48 /tmp/ccELukx5.ltrans31.ltrans.o
                                        0x1f3 (size before relaxing)

.comment        0x0000000000000000       0x70
 .comment       0x0000000000000000       0x70 /tmp/ccELukx5.ltrans0.ltrans.o
                                         0x71 (size before relaxing)
 .comment       0x0000000000000000       0x71 /tmp/ccELukx5.ltrans1.ltrans.o
 .comment       0x0000000000000000       0x71 /tmp/ccELukx5.ltrans2.ltrans.o
 .comment       0x0000000000000000       0x71 /tmp/ccELukx5.ltrans3.ltrans.o
 .comment       0x0000000000000000       0x71 /tmp/ccELukx5.ltrans4.ltrans.o
 .comment       0x0000000000000000       0x71 /tmp/ccELukx5.ltrans5.ltrans.o
 .comment       0x0000000000000000       0x71 /tmp/ccELukx5.ltrans6.ltrans.o
 .comment       0x0000000000000000       0x71 /tmp/ccELukx5.ltrans7.ltrans.o
 .comment       0x0000000000000000       0x71 /tmp/ccELukx5.ltrans8.ltrans.o
 .comment       0x0000000000000000       0x71 /tmp/ccELukx5.ltrans9.ltrans.o
 .comment       0x0000000000000000       0x71 /tmp/ccELukx5.ltrans10.ltrans.o
 .comment       0x0000000000000000       0x71 /tmp/ccELukx5.ltrans11.ltrans.o
 .comment       0x0000000000000000       0x71 /tmp/ccELukx5.ltrans12.ltrans.o
 .comment       0x0000000000000000       0x71 /tmp/ccELukx5.ltrans13.ltrans.o
 .comment       0x0000000000000000       0x71 /tmp/ccELukx5.ltrans14.ltrans.o
 .comment       0x0000000000000000       0x71 /tmp/ccELukx5.ltrans15.ltrans.o
 .comment       0x0000000000000000       0x71 /tmp/ccELukx5.ltrans16.ltrans.o
 .comment       0x0000000000000000       0x71 /tmp/ccELukx5.ltrans17.ltrans.o
 .comment       0x0000000000000000       0x71 /tmp/ccELukx5.ltrans18.ltrans.o
 .comment       0x0000000000000000       0x71 /tmp/ccELukx5.ltrans19.ltrans.o
 .comment       0x0000000000000000       0x71 /tmp/ccELukx5.ltrans20.ltrans.o
 .comment       0x0000000000000000       0x71 /tmp/ccELukx5.ltrans21.ltrans.o
 .comment       0x0000000000000000       0x71 /tmp/ccELukx5.ltrans22.ltrans.o
 .comment       0x0000000000000000       0x71 /tmp/ccELukx5.ltrans23.ltrans.o
 .comment       0x0000000000000000       0x71 /tmp/ccELukx5.ltrans24.ltrans.o
 .comment       0x0000000000000000       0x71 /tmp/ccELukx5.ltrans25.ltrans.o
 .comment       0x0000000000000000       0x71 /tmp/ccELukx5.ltrans26.ltrans.o
 .comment       0x0000000000000000       0x71 /tmp/ccELukx5.ltrans27.ltrans.o
 .comment       0x0000000000000000       0x71 /tmp/ccELukx5.ltrans28.ltrans.o
 .comment       0x0000000000000000       0x71 /tmp/ccELukx5.ltrans29.ltrans.o
 .comment       0x0000000000000000       0x71 /tmp/ccELukx5.ltrans30.ltrans.o
 .comment       0x0000000000000000       0x71 /tmp/ccELukx5.ltrans31.ltrans.o

.debug_frame    0x0000000000000000     0x3ba4
 .debug_frame   0x0000000000000000       0x2c /tmp/ccELukx5.ltrans0.ltrans.o
 .debug_frame   0x000000000000002c       0x40 /tmp/ccELukx5.ltrans1.ltrans.o
 .debug_frame   0x000000000000006c       0x40 /tmp/ccELukx5.ltrans2.ltrans.o
 .debug_frame   0x00000000000000ac       0x34 /tmp/ccELukx5.ltrans3.ltrans.o
 .debug_frame   0x00000000000000e0       0x40 /tmp/ccELukx5.ltrans4.ltrans.o
 .debug_frame   0x0000000000000120      0x478 /tmp/ccELukx5.ltrans5.ltrans.o
 .debug_frame   0x0000000000000598      0x2b0 /tmp/ccELukx5.ltrans6.ltrans.o
 .debug_frame   0x0000000000000848      0x29c /tmp/ccELukx5.ltrans7.ltrans.o
 .debug_frame   0x0000000000000ae4      0x3c4 /tmp/ccELukx5.ltrans8.ltrans.o
 .debug_frame   0x0000000000000ea8      0x198 /tmp/ccELukx5.ltrans9.ltrans.o
 .debug_frame   0x0000000000001040       0x68 /tmp/ccELukx5.ltrans10.ltrans.o
 .debug_frame   0x00000000000010a8      0x1b0 /tmp/ccELukx5.ltrans11.ltrans.o
 .debug_frame   0x0000000000001258      0x1e0 /tmp/ccELukx5.ltrans12.ltrans.o
 .debug_frame   0x0000000000001438      0x138 /tmp/ccELukx5.ltrans13.ltrans.o
 .debug_frame   0x0000000000001570      0x3fc /tmp/ccELukx5.ltrans14.ltrans.o
 .debug_frame   0x000000000000196c      0x174 /tmp/ccELukx5.ltrans15.ltrans.o
 .debug_frame   0x0000000000001ae0      0x2f8 /tmp/ccELukx5.ltrans16.ltrans.o
 .debug_frame   0x0000000000001dd8      0x278 /tmp/ccELukx5.ltrans17.ltrans.o
 .debug_frame   0x0000000000002050      0x37c /tmp/ccELukx5.ltrans18.ltrans.o
 .debug_frame   0x00000000000023cc      0x1bc /tmp/ccELukx5.ltrans19.ltrans.o
 .debug_frame   0x0000000000002588       0xb0 /tmp/ccELukx5.ltrans20.ltrans.o
 .debug_frame   0x0000000000002638      0x118 /tmp/ccELukx5.ltrans21.ltrans.o
 .debug_frame   0x0000000000002750      0x318 /tmp/ccELukx5.ltrans22.ltrans.o
 .debug_frame   0x0000000000002a68       0x8c /tmp/ccELukx5.ltrans23.ltrans.o
 .debug_frame   0x0000000000002af4      0x1f0 /tmp/ccELukx5.ltrans24.ltrans.o
 .debug_frame   0x0000000000002ce4      0x328 /tmp/ccELukx5.ltrans25.ltrans.o
 .debug_frame   0x000000000000300c      0x204 /tmp/ccELukx5.ltrans26.ltrans.o
 .debug_frame   0x0000000000003210       0x98 /tmp/ccELukx5.ltrans27.ltrans.o
 .debug_frame   0x00000000000032a8      0x124 /tmp/ccELukx5.ltrans28.ltrans.o
 .debug_frame   0x00000000000033cc       0x80 /tmp/ccELukx5.ltrans29.ltrans.o
 .debug_frame   0x000000000000344c       0x30 /tmp/ccELukx5.ltrans30.ltrans.o
 .debug_frame   0x000000000000347c       0x20 /tmp/ccELukx5.ltrans31.ltrans.o
 .debug_frame   0x000000000000349c       0x28 /usr/bin/../lib/gcc/arm-none-eabi/4.9.3/armv7-m/libgcc.a(_aeabi_ldivmod.o)
 .debug_frame   0x00000000000034c4       0x28 /usr/bin/../lib/gcc/arm-none-eabi/4.9.3/armv7-m/libgcc.a(_aeabi_uldivmod.o)
 .debug_frame   0x00000000000034ec       0x20 /usr/bin/../lib/gcc/arm-none-eabi/4.9.3/armv7-m/libgcc.a(_popcountsi2.o)
 .debug_frame   0x000000000000350c       0x54 /usr/bin/../lib/gcc/arm-none-eabi/4.9.3/armv7-m/libgcc.a(bpabi.o)
 .debug_frame   0x0000000000003560       0x34 /usr/bin/../lib/gcc/arm-none-eabi/4.9.3/armv7-m/libgcc.a(_divdi3.o)
 .debug_frame   0x0000000000003594       0x34 /usr/bin/../lib/gcc/arm-none-eabi/4.9.3/armv7-m/libgcc.a(_udivdi3.o)
 .debug_frame   0x00000000000035c8       0x28 /usr/bin/../lib/gcc/arm-none-eabi/4.9.3/../../../../arm-none-eabi/lib/armv7-m/libg_nano.a(lib_a-memcmp.o)
 .debug_frame   0x00000000000035f0       0x28 /usr/bin/../lib/gcc/arm-none-eabi/4.9.3/../../../../arm-none-eabi/lib/armv7-m/libg_nano.a(lib_a-memcpy.o)
 .debug_frame   0x0000000000003618       0x28 /usr/bin/../lib/gcc/arm-none-eabi/4.9.3/../../../../arm-none-eabi/lib/armv7-m/libg_nano.a(lib_a-memmove.o)
 .debug_frame   0x0000000000003640       0x20 /usr/bin/../lib/gcc/arm-none-eabi/4.9.3/../../../../arm-none-eabi/lib/armv7-m/libg_nano.a(lib_a-memset.o)
 .debug_frame   0x0000000000003660       0x28 /usr/bin/../lib/gcc/arm-none-eabi/4.9.3/../../../../arm-none-eabi/lib/armv7-m/libg_nano.a(lib_a-strcat.o)
 .debug_frame   0x0000000000003688       0x20 /usr/bin/../lib/gcc/arm-none-eabi/4.9.3/../../../../arm-none-eabi/lib/armv7-m/libg_nano.a(lib_a-strchr.o)
 .debug_frame   0x00000000000036a8       0x20 /usr/bin/../lib/gcc/arm-none-eabi/4.9.3/../../../../arm-none-eabi/lib/armv7-m/libg_nano.a(lib_a-strcpy.o)
 .debug_frame   0x00000000000036c8       0x20 /usr/bin/../lib/gcc/arm-none-eabi/4.9.3/../../../../arm-none-eabi/lib/armv7-m/libg_nano.a(lib_a-strlen.o)
 .debug_frame   0x00000000000036e8       0x2c /usr/bin/../lib/gcc/arm-none-eabi/4.9.3/../../../../arm-none-eabi/lib/armv7-m/libg_nano.a(lib_a-strncmp.o)
 .debug_frame   0x0000000000003714       0x28 /usr/bin/../lib/gcc/arm-none-eabi/4.9.3/../../../../arm-none-eabi/lib/armv7-m/libg_nano.a(lib_a-strncpy.o)
 .debug_frame   0x000000000000373c       0x2c /usr/bin/../lib/gcc/arm-none-eabi/4.9.3/../../../../arm-none-eabi/lib/armv7-m/libg_nano.a(lib_a-strspn.o)
 .debug_frame   0x0000000000003768       0x2c /usr/bin/../lib/gcc/arm-none-eabi/4.9.3/../../../../arm-none-eabi/lib/armv7-m/libg_nano.a(lib_a-strstr.o)
 .debug_frame   0x0000000000003794       0x20 /usr/bin/../lib/gcc/arm-none-eabi/4.9.3/../../../../arm-none-eabi/lib/armv7-m/libm.a(lib_a-sf_fpclassify.o)
 .debug_frame   0x00000000000037b4       0x38 /usr/bin/../lib/gcc/arm-none-eabi/4.9.3/../../../../arm-none-eabi/lib/armv7-m/libc_nano.a(lib_a-strtok.o)
 .debug_frame   0x00000000000037ec       0x40 /usr/bin/../lib/gcc/arm-none-eabi/4.9.3/../../../../arm-none-eabi/lib/armv7-m/libc_nano.a(lib_a-strtok_r.o)
 .debug_frame   0x000000000000382c       0x30 /usr/bin/../lib/gcc/arm-none-eabi/4.9.3/../../../../arm-none-eabi/lib/armv7-m/libc_nano.a(lib_a-malloc.o)
 .debug_frame   0x000000000000385c       0x2c /usr/bin/../lib/gcc/arm-none-eabi/4.9.3/../../../../arm-none-eabi/lib/armv7-m/libc_nano.a(lib_a-nano-mallocr.o)
 .debug_frame   0x0000000000003888       0x2c /usr/bin/../lib/gcc/arm-none-eabi/4.9.3/../../../../arm-none-eabi/lib/armv7-m/libc_nano.a(lib_a-sbrkr.o)
 .debug_frame   0x00000000000038b4       0x5c /usr/bin/../lib/gcc/arm-none-eabi/4.9.3/../../../../arm-none-eabi/lib/armv7-m/libc_nano.a(lib_a-reent.o)
 .debug_frame   0x0000000000003910       0x20 /usr/bin/../lib/gcc/arm-none-eabi/4.9.3/../../../../arm-none-eabi/lib/armv7-m/libnosys.a(sbrk.o)
 .debug_frame   0x0000000000003930       0x40 /usr/bin/../lib/gcc/arm-none-eabi/4.9.3/../../../../arm-none-eabi/lib/armv7-m/libm.a(lib_a-sf_lrint.o)
 .debug_frame   0x0000000000003970       0x40 /usr/bin/../lib/gcc/arm-none-eabi/4.9.3/../../../../arm-none-eabi/lib/armv7-m/libm.a(lib_a-wf_pow.o)
 .debug_frame   0x00000000000039b0       0x3c /usr/bin/../lib/gcc/arm-none-eabi/4.9.3/../../../../arm-none-eabi/lib/armv7-m/libm.a(lib_a-wf_sqrt.o)
 .debug_frame   0x00000000000039ec       0x64 /usr/bin/../lib/gcc/arm-none-eabi/4.9.3/../../../../arm-none-eabi/lib/armv7-m/libm.a(lib_a-ef_pow.o)
 .debug_frame   0x0000000000003a50       0x2c /usr/bin/../lib/gcc/arm-none-eabi/4.9.3/../../../../arm-none-eabi/lib/armv7-m/libm.a(lib_a-ef_sqrt.o)
 .debug_frame   0x0000000000003a7c       0x20 /usr/bin/../lib/gcc/arm-none-eabi/4.9.3/../../../../arm-none-eabi/lib/armv7-m/libm.a(lib_a-s_matherr.o)
 .debug_frame   0x0000000000003a9c       0x3c /usr/bin/../lib/gcc/arm-none-eabi/4.9.3/../../../../arm-none-eabi/lib/armv7-m/libm.a(lib_a-s_rint.o)
 .debug_frame   0x0000000000003ad8       0x20 /usr/bin/../lib/gcc/arm-none-eabi/4.9.3/../../../../arm-none-eabi/lib/armv7-m/libm.a(lib_a-sf_fabs.o)
 .debug_frame   0x0000000000003af8       0x20 /usr/bin/../lib/gcc/arm-none-eabi/4.9.3/../../../../arm-none-eabi/lib/armv7-m/libm.a(lib_a-sf_finite.o)
 .debug_frame   0x0000000000003b18       0x20 /usr/bin/../lib/gcc/arm-none-eabi/4.9.3/../../../../arm-none-eabi/lib/armv7-m/libm.a(lib_a-sf_nan.o)
 .debug_frame   0x0000000000003b38       0x2c /usr/bin/../lib/gcc/arm-none-eabi/4.9.3/../../../../arm-none-eabi/lib/armv7-m/libm.a(lib_a-sf_scalbn.o)
 .debug_frame   0x0000000000003b64       0x20 /usr/bin/../lib/gcc/arm-none-eabi/4.9.3/../../../../arm-none-eabi/lib/armv7-m/libm.a(lib_a-sf_copysign.o)
 .debug_frame   0x0000000000003b84       0x20 /usr/bin/../lib/gcc/arm-none-eabi/4.9.3/../../../../arm-none-eabi/lib/armv7-m/libc_nano.a(lib_a-errno.o)

Cross Reference Table

Symbol                                            File
ADC1_2_IRQHandler                                 obj/main/NAZE/startup_stm32f10x_md_gcc.o
ADC_AnalogWatchdogCmd                             obj/main/NAZE/stm32f10x_adc.o (symbol from plugin)
ADC_AnalogWatchdogSingleChannelConfig             obj/main/NAZE/stm32f10x_adc.o (symbol from plugin)
ADC_AnalogWatchdogThresholdsConfig                obj/main/NAZE/stm32f10x_adc.o (symbol from plugin)
ADC_AutoInjectedConvCmd                           obj/main/NAZE/stm32f10x_adc.o (symbol from plugin)
ADC_ClearFlag                                     obj/main/NAZE/stm32f10x_adc.o (symbol from plugin)
ADC_ClearITPendingBit                             obj/main/NAZE/stm32f10x_adc.o (symbol from plugin)
ADC_Cmd                                           obj/main/NAZE/stm32f10x_adc.o (symbol from plugin)
ADC_DMACmd                                        obj/main/NAZE/stm32f10x_adc.o (symbol from plugin)
ADC_DeInit                                        obj/main/NAZE/stm32f10x_adc.o (symbol from plugin)
ADC_DiscModeChannelCountConfig                    obj/main/NAZE/stm32f10x_adc.o (symbol from plugin)
ADC_DiscModeCmd                                   obj/main/NAZE/stm32f10x_adc.o (symbol from plugin)
ADC_ExternalTrigConvCmd                           obj/main/NAZE/stm32f10x_adc.o (symbol from plugin)
ADC_ExternalTrigInjectedConvCmd                   obj/main/NAZE/stm32f10x_adc.o (symbol from plugin)
ADC_ExternalTrigInjectedConvConfig                obj/main/NAZE/stm32f10x_adc.o (symbol from plugin)
ADC_GetCalibrationStatus                          obj/main/NAZE/stm32f10x_adc.o (symbol from plugin)
ADC_GetConversionValue                            obj/main/NAZE/stm32f10x_adc.o (symbol from plugin)
ADC_GetDualModeConversionValue                    obj/main/NAZE/stm32f10x_adc.o (symbol from plugin)
ADC_GetFlagStatus                                 obj/main/NAZE/stm32f10x_adc.o (symbol from plugin)
ADC_GetITStatus                                   obj/main/NAZE/stm32f10x_adc.o (symbol from plugin)
ADC_GetInjectedConversionValue                    obj/main/NAZE/stm32f10x_adc.o (symbol from plugin)
ADC_GetResetCalibrationStatus                     obj/main/NAZE/stm32f10x_adc.o (symbol from plugin)
ADC_GetSoftwareStartConvStatus                    obj/main/NAZE/stm32f10x_adc.o (symbol from plugin)
ADC_GetSoftwareStartInjectedConvCmdStatus         obj/main/NAZE/stm32f10x_adc.o (symbol from plugin)
ADC_ITConfig                                      obj/main/NAZE/stm32f10x_adc.o (symbol from plugin)
ADC_Init                                          obj/main/NAZE/stm32f10x_adc.o (symbol from plugin)
ADC_InjectedChannelConfig                         obj/main/NAZE/stm32f10x_adc.o (symbol from plugin)
ADC_InjectedDiscModeCmd                           obj/main/NAZE/stm32f10x_adc.o (symbol from plugin)
ADC_InjectedSequencerLengthConfig                 obj/main/NAZE/stm32f10x_adc.o (symbol from plugin)
ADC_RegularChannelConfig                          obj/main/NAZE/stm32f10x_adc.o (symbol from plugin)
ADC_ResetCalibration                              obj/main/NAZE/stm32f10x_adc.o (symbol from plugin)
ADC_SetInjectedOffset                             obj/main/NAZE/stm32f10x_adc.o (symbol from plugin)
ADC_SoftwareStartConvCmd                          obj/main/NAZE/stm32f10x_adc.o (symbol from plugin)
ADC_SoftwareStartInjectedConvCmd                  obj/main/NAZE/stm32f10x_adc.o (symbol from plugin)
ADC_StartCalibration                              obj/main/NAZE/stm32f10x_adc.o (symbol from plugin)
ADC_StructInit                                    obj/main/NAZE/stm32f10x_adc.o (symbol from plugin)
ADC_TempSensorVrefintCmd                          obj/main/NAZE/stm32f10x_adc.o (symbol from plugin)
BKP_ClearFlag                                     obj/main/NAZE/stm32f10x_bkp.o (symbol from plugin)
BKP_ClearITPendingBit                             obj/main/NAZE/stm32f10x_bkp.o (symbol from plugin)
BKP_DeInit                                        obj/main/NAZE/stm32f10x_bkp.o (symbol from plugin)
BKP_GetFlagStatus                                 obj/main/NAZE/stm32f10x_bkp.o (symbol from plugin)
BKP_GetITStatus                                   obj/main/NAZE/stm32f10x_bkp.o (symbol from plugin)
BKP_ITConfig                                      obj/main/NAZE/stm32f10x_bkp.o (symbol from plugin)
BKP_RTCOutputConfig                               obj/main/NAZE/stm32f10x_bkp.o (symbol from plugin)
BKP_ReadBackupRegister                            obj/main/NAZE/stm32f10x_bkp.o (symbol from plugin)
BKP_SetRTCCalibrationValue                        obj/main/NAZE/stm32f10x_bkp.o (symbol from plugin)
BKP_TamperPinCmd                                  obj/main/NAZE/stm32f10x_bkp.o (symbol from plugin)
BKP_TamperPinLevelConfig                          obj/main/NAZE/stm32f10x_bkp.o (symbol from plugin)
BKP_WriteBackupRegister                           obj/main/NAZE/stm32f10x_bkp.o (symbol from plugin)
BusFault_Handler                                  obj/main/NAZE/startup_stm32f10x_md_gcc.o
CAN1_RX1_IRQHandler                               obj/main/NAZE/startup_stm32f10x_md_gcc.o
CAN1_SCE_IRQHandler                               obj/main/NAZE/startup_stm32f10x_md_gcc.o
CHAR_FORMAT                                       obj/main/NAZE/drivers/display_ug2864hsweg01.o (symbol from plugin)
CheckGPIOPin                                      obj/main/NAZE/drivers/pwm_mapping.o (symbol from plugin)
CheckGPIOPinSource                                obj/main/NAZE/drivers/pwm_mapping.o (symbol from plugin)
DAC_Cmd                                           obj/main/NAZE/stm32f10x_dac.o (symbol from plugin)
DAC_DMACmd                                        obj/main/NAZE/stm32f10x_dac.o (symbol from plugin)
DAC_DeInit                                        obj/main/NAZE/stm32f10x_dac.o (symbol from plugin)
DAC_DualSoftwareTriggerCmd                        obj/main/NAZE/stm32f10x_dac.o (symbol from plugin)
DAC_GetDataOutputValue                            obj/main/NAZE/stm32f10x_dac.o (symbol from plugin)
DAC_Init                                          obj/main/NAZE/stm32f10x_dac.o (symbol from plugin)
DAC_SetChannel1Data                               obj/main/NAZE/stm32f10x_dac.o (symbol from plugin)
DAC_SetChannel2Data                               obj/main/NAZE/stm32f10x_dac.o (symbol from plugin)
DAC_SetDualChannelData                            obj/main/NAZE/stm32f10x_dac.o (symbol from plugin)
DAC_SoftwareTriggerCmd                            obj/main/NAZE/stm32f10x_dac.o (symbol from plugin)
DAC_StructInit                                    obj/main/NAZE/stm32f10x_dac.o (symbol from plugin)
DAC_WaveGenerationCmd                             obj/main/NAZE/stm32f10x_dac.o (symbol from plugin)
DBGMCU_Config                                     obj/main/NAZE/stm32f10x_dbgmcu.o (symbol from plugin)
DBGMCU_GetDEVID                                   obj/main/NAZE/stm32f10x_dbgmcu.o (symbol from plugin)
DBGMCU_GetREVID                                   obj/main/NAZE/stm32f10x_dbgmcu.o (symbol from plugin)
DMA1_Channel1_IRQHandler                          /tmp/ccELukx5.ltrans5.ltrans.o
                                                  obj/main/NAZE/drivers/dma.o (symbol from plugin)
                                                  obj/main/NAZE/startup_stm32f10x_md_gcc.o
DMA1_Channel2_IRQHandler                          /tmp/ccELukx5.ltrans5.ltrans.o
                                                  obj/main/NAZE/drivers/dma.o (symbol from plugin)
                                                  obj/main/NAZE/startup_stm32f10x_md_gcc.o
DMA1_Channel3_IRQHandler                          /tmp/ccELukx5.ltrans5.ltrans.o
                                                  obj/main/NAZE/drivers/dma.o (symbol from plugin)
                                                  obj/main/NAZE/startup_stm32f10x_md_gcc.o
DMA1_Channel4_IRQHandler                          /tmp/ccELukx5.ltrans5.ltrans.o
                                                  obj/main/NAZE/drivers/dma.o (symbol from plugin)
                                                  obj/main/NAZE/startup_stm32f10x_md_gcc.o
DMA1_Channel5_IRQHandler                          /tmp/ccELukx5.ltrans5.ltrans.o
                                                  obj/main/NAZE/drivers/dma.o (symbol from plugin)
                                                  obj/main/NAZE/startup_stm32f10x_md_gcc.o
DMA1_Channel6_IRQHandler                          /tmp/ccELukx5.ltrans5.ltrans.o
                                                  obj/main/NAZE/drivers/dma.o (symbol from plugin)
                                                  obj/main/NAZE/startup_stm32f10x_md_gcc.o
DMA1_Channel7_IRQHandler                          /tmp/ccELukx5.ltrans5.ltrans.o
                                                  obj/main/NAZE/drivers/dma.o (symbol from plugin)
                                                  obj/main/NAZE/startup_stm32f10x_md_gcc.o
DMA_ClearFlag                                     obj/main/NAZE/stm32f10x_dma.o (symbol from plugin)
DMA_ClearITPendingBit                             obj/main/NAZE/stm32f10x_dma.o (symbol from plugin)
DMA_Cmd                                           obj/main/NAZE/stm32f10x_dma.o (symbol from plugin)
                                                  obj/main/NAZE/drivers/serial_uart.o (symbol from plugin)
DMA_DeInit                                        /tmp/ccELukx5.ltrans18.ltrans.o
                                                  obj/main/NAZE/stm32f10x_dma.o (symbol from plugin)
                                                  /tmp/ccELukx5.ltrans19.ltrans.o
                                                  obj/main/NAZE/drivers/serial_uart.o (symbol from plugin)
DMA_GetCurrDataCounter                            obj/main/NAZE/stm32f10x_dma.o (symbol from plugin)
                                                  obj/main/NAZE/drivers/serial_uart.o (symbol from plugin)
DMA_GetFlagStatus                                 obj/main/NAZE/stm32f10x_dma.o (symbol from plugin)
DMA_GetITStatus                                   obj/main/NAZE/stm32f10x_dma.o (symbol from plugin)
DMA_ITConfig                                      obj/main/NAZE/stm32f10x_dma.o (symbol from plugin)
                                                  obj/main/NAZE/drivers/serial_uart.o (symbol from plugin)
DMA_Init                                          obj/main/NAZE/stm32f10x_dma.o (symbol from plugin)
                                                  obj/main/NAZE/drivers/serial_uart.o (symbol from plugin)
DMA_SetCurrDataCounter                            obj/main/NAZE/stm32f10x_dma.o (symbol from plugin)
                                                  obj/main/NAZE/drivers/serial_uart.o (symbol from plugin)
DMA_StructInit                                    obj/main/NAZE/stm32f10x_dma.o (symbol from plugin)
                                                  obj/main/NAZE/drivers/serial_uart.o (symbol from plugin)
DebugMon_Handler                                  obj/main/NAZE/startup_stm32f10x_md_gcc.o
Default_Handler                                   obj/main/NAZE/startup_stm32f10x_md_gcc.o
EXTI0_IRQHandler                                  /tmp/ccELukx5.ltrans8.ltrans.o
                                                  obj/main/NAZE/drivers/exti.o (symbol from plugin)
                                                  obj/main/NAZE/startup_stm32f10x_md_gcc.o
EXTI15_10_IRQHandler                              /tmp/ccELukx5.ltrans8.ltrans.o
                                                  obj/main/NAZE/drivers/exti.o (symbol from plugin)
                                                  obj/main/NAZE/startup_stm32f10x_md_gcc.o
EXTI1_IRQHandler                                  /tmp/ccELukx5.ltrans8.ltrans.o
                                                  obj/main/NAZE/drivers/exti.o (symbol from plugin)
                                                  obj/main/NAZE/startup_stm32f10x_md_gcc.o
EXTI2_IRQHandler                                  /tmp/ccELukx5.ltrans8.ltrans.o
                                                  obj/main/NAZE/drivers/exti.o (symbol from plugin)
                                                  obj/main/NAZE/startup_stm32f10x_md_gcc.o
EXTI3_IRQHandler                                  /tmp/ccELukx5.ltrans8.ltrans.o
                                                  obj/main/NAZE/drivers/exti.o (symbol from plugin)
                                                  obj/main/NAZE/startup_stm32f10x_md_gcc.o
EXTI4_IRQHandler                                  /tmp/ccELukx5.ltrans8.ltrans.o
                                                  obj/main/NAZE/drivers/exti.o (symbol from plugin)
                                                  obj/main/NAZE/startup_stm32f10x_md_gcc.o
EXTI9_5_IRQHandler                                /tmp/ccELukx5.ltrans8.ltrans.o
                                                  obj/main/NAZE/drivers/exti.o (symbol from plugin)
                                                  obj/main/NAZE/startup_stm32f10x_md_gcc.o
EXTIConfig                                        obj/main/NAZE/drivers/exti.o (symbol from plugin)
                                                  obj/main/NAZE/drivers/compass/compass_hmc5883l.o (symbol from plugin)
                                                  obj/main/NAZE/drivers/accgyro/accgyro_mpu.o (symbol from plugin)
EXTIConfig.constprop.112                          /tmp/ccELukx5.ltrans24.ltrans.o
                                                  /tmp/ccELukx5.ltrans6.ltrans.o
                                                  /tmp/ccELukx5.ltrans5.ltrans.o
EXTIEnable                                        obj/main/NAZE/drivers/exti.o (symbol from plugin)
                                                  obj/main/NAZE/drivers/compass/compass_hmc5883l.o (symbol from plugin)
                                                  obj/main/NAZE/drivers/accgyro/accgyro_mpu.o (symbol from plugin)
EXTIEnable.constprop.115                          /tmp/ccELukx5.ltrans20.ltrans.o
                                                  /tmp/ccELukx5.ltrans6.ltrans.o
                                                  /tmp/ccELukx5.ltrans5.ltrans.o
EXTIHandlerInit                                   obj/main/NAZE/drivers/exti.o (symbol from plugin)
                                                  obj/main/NAZE/drivers/compass/compass_hmc5883l.o (symbol from plugin)
                                                  obj/main/NAZE/drivers/accgyro/accgyro_mpu.o (symbol from plugin)
EXTIInit                                          obj/main/NAZE/drivers/exti.o (symbol from plugin)
                                                  obj/main/NAZE/fc/fc_init.o (symbol from plugin)
EXTIRelease                                       obj/main/NAZE/drivers/exti.o (symbol from plugin)
EXTI_ClearFlag                                    obj/main/NAZE/stm32f10x_exti.o (symbol from plugin)
EXTI_ClearITPendingBit                            obj/main/NAZE/stm32f10x_exti.o (symbol from plugin)
                                                  obj/main/NAZE/drivers/exti.o (symbol from plugin)
EXTI_DeInit                                       obj/main/NAZE/stm32f10x_exti.o (symbol from plugin)
EXTI_GenerateSWInterrupt                          obj/main/NAZE/stm32f10x_exti.o (symbol from plugin)
EXTI_GetFlagStatus                                obj/main/NAZE/stm32f10x_exti.o (symbol from plugin)
EXTI_GetITStatus                                  obj/main/NAZE/stm32f10x_exti.o (symbol from plugin)
EXTI_IRQHandler                                   obj/main/NAZE/drivers/exti.o (symbol from plugin)
EXTI_Init                                         obj/main/NAZE/stm32f10x_exti.o (symbol from plugin)
                                                  obj/main/NAZE/drivers/exti.o (symbol from plugin)
EXTI_StructInit                                   obj/main/NAZE/stm32f10x_exti.o (symbol from plugin)
FLASH_ClearFlag                                   obj/main/NAZE/stm32f10x_flash.o (symbol from plugin)
                                                  obj/main/NAZE/config/config_streamer.o (symbol from plugin)
FLASH_EnableWriteProtection                       obj/main/NAZE/stm32f10x_flash.o (symbol from plugin)
FLASH_EraseAllBank1Pages                          obj/main/NAZE/stm32f10x_flash.o (symbol from plugin)
FLASH_EraseAllPages                               obj/main/NAZE/stm32f10x_flash.o (symbol from plugin)
FLASH_EraseOptionBytes                            obj/main/NAZE/stm32f10x_flash.o (symbol from plugin)
FLASH_ErasePage                                   obj/main/NAZE/stm32f10x_flash.o (symbol from plugin)
                                                  obj/main/NAZE/config/config_streamer.o (symbol from plugin)
FLASH_GetBank1Status                              /tmp/ccELukx5.ltrans18.ltrans.o
                                                  obj/main/NAZE/stm32f10x_flash.o (symbol from plugin)
                                                  /tmp/ccELukx5.ltrans24.ltrans.o
FLASH_GetFlagStatus                               obj/main/NAZE/stm32f10x_flash.o (symbol from plugin)
FLASH_GetPrefetchBufferStatus                     obj/main/NAZE/stm32f10x_flash.o (symbol from plugin)
FLASH_GetReadOutProtectionStatus                  obj/main/NAZE/stm32f10x_flash.o (symbol from plugin)
FLASH_GetStatus                                   obj/main/NAZE/stm32f10x_flash.o (symbol from plugin)
FLASH_GetUserOptionByte                           obj/main/NAZE/stm32f10x_flash.o (symbol from plugin)
FLASH_GetWriteProtectionOptionByte                obj/main/NAZE/stm32f10x_flash.o (symbol from plugin)
FLASH_HalfCycleAccessCmd                          obj/main/NAZE/stm32f10x_flash.o (symbol from plugin)
FLASH_IRQHandler                                  obj/main/NAZE/startup_stm32f10x_md_gcc.o
FLASH_ITConfig                                    obj/main/NAZE/stm32f10x_flash.o (symbol from plugin)
FLASH_Lock                                        obj/main/NAZE/stm32f10x_flash.o (symbol from plugin)
                                                  obj/main/NAZE/config/config_streamer.o (symbol from plugin)
FLASH_LockBank1                                   obj/main/NAZE/stm32f10x_flash.o (symbol from plugin)
FLASH_PrefetchBufferCmd                           obj/main/NAZE/stm32f10x_flash.o (symbol from plugin)
FLASH_ProgramHalfWord                             obj/main/NAZE/stm32f10x_flash.o (symbol from plugin)
FLASH_ProgramOptionByteData                       obj/main/NAZE/stm32f10x_flash.o (symbol from plugin)
FLASH_ProgramWord                                 obj/main/NAZE/stm32f10x_flash.o (symbol from plugin)
                                                  obj/main/NAZE/config/config_streamer.o (symbol from plugin)
FLASH_ReadOutProtection                           obj/main/NAZE/stm32f10x_flash.o (symbol from plugin)
FLASH_SetLatency                                  obj/main/NAZE/stm32f10x_flash.o (symbol from plugin)
FLASH_Unlock                                      obj/main/NAZE/stm32f10x_flash.o (symbol from plugin)
                                                  obj/main/NAZE/config/config_streamer.o (symbol from plugin)
FLASH_UnlockBank1                                 obj/main/NAZE/stm32f10x_flash.o (symbol from plugin)
FLASH_UserOptionByteConfig                        obj/main/NAZE/stm32f10x_flash.o (symbol from plugin)
FLASH_WaitForLastBank1Operation                   obj/main/NAZE/stm32f10x_flash.o (symbol from plugin)
FLASH_WaitForLastOperation                        /tmp/ccELukx5.ltrans24.ltrans.o
                                                  obj/main/NAZE/stm32f10x_flash.o (symbol from plugin)
                                                  /tmp/ccELukx5.ltrans8.ltrans.o
FSMC_ClearFlag                                    obj/main/NAZE/stm32f10x_fsmc.o (symbol from plugin)
FSMC_ClearITPendingBit                            obj/main/NAZE/stm32f10x_fsmc.o (symbol from plugin)
FSMC_GetECC                                       obj/main/NAZE/stm32f10x_fsmc.o (symbol from plugin)
FSMC_GetFlagStatus                                obj/main/NAZE/stm32f10x_fsmc.o (symbol from plugin)
FSMC_GetITStatus                                  obj/main/NAZE/stm32f10x_fsmc.o (symbol from plugin)
FSMC_ITConfig                                     obj/main/NAZE/stm32f10x_fsmc.o (symbol from plugin)
FSMC_NANDCmd                                      obj/main/NAZE/stm32f10x_fsmc.o (symbol from plugin)
FSMC_NANDDeInit                                   obj/main/NAZE/stm32f10x_fsmc.o (symbol from plugin)
FSMC_NANDECCCmd                                   obj/main/NAZE/stm32f10x_fsmc.o (symbol from plugin)
FSMC_NANDInit                                     obj/main/NAZE/stm32f10x_fsmc.o (symbol from plugin)
FSMC_NANDStructInit                               obj/main/NAZE/stm32f10x_fsmc.o (symbol from plugin)
FSMC_NORSRAMCmd                                   obj/main/NAZE/stm32f10x_fsmc.o (symbol from plugin)
FSMC_NORSRAMDeInit                                obj/main/NAZE/stm32f10x_fsmc.o (symbol from plugin)
FSMC_NORSRAMInit                                  obj/main/NAZE/stm32f10x_fsmc.o (symbol from plugin)
FSMC_NORSRAMStructInit                            obj/main/NAZE/stm32f10x_fsmc.o (symbol from plugin)
FSMC_PCCARDCmd                                    obj/main/NAZE/stm32f10x_fsmc.o (symbol from plugin)
FSMC_PCCARDDeInit                                 obj/main/NAZE/stm32f10x_fsmc.o (symbol from plugin)
FSMC_PCCARDInit                                   obj/main/NAZE/stm32f10x_fsmc.o (symbol from plugin)
FSMC_PCCARDStructInit                             obj/main/NAZE/stm32f10x_fsmc.o (symbol from plugin)
GPIO_AFIODeInit                                   obj/main/NAZE/stm32f10x_gpio.o (symbol from plugin)
GPIO_DeInit                                       obj/main/NAZE/stm32f10x_gpio.o (symbol from plugin)
GPIO_ETH_MediaInterfaceConfig                     obj/main/NAZE/stm32f10x_gpio.o (symbol from plugin)
GPIO_EXTILineConfig                               obj/main/NAZE/stm32f10x_gpio.o (symbol from plugin)
                                                  obj/main/NAZE/drivers/exti.o (symbol from plugin)
GPIO_EventOutputCmd                               obj/main/NAZE/stm32f10x_gpio.o (symbol from plugin)
GPIO_EventOutputConfig                            obj/main/NAZE/stm32f10x_gpio.o (symbol from plugin)
GPIO_Init                                         obj/main/NAZE/stm32f10x_gpio.o (symbol from plugin)
                                                  obj/main/NAZE/drivers/io.o (symbol from plugin)
GPIO_PinLockConfig                                obj/main/NAZE/stm32f10x_gpio.o (symbol from plugin)
GPIO_PinRemapConfig                               obj/main/NAZE/stm32f10x_gpio.o (symbol from plugin)
GPIO_ReadInputData                                obj/main/NAZE/stm32f10x_gpio.o (symbol from plugin)
GPIO_ReadInputDataBit                             obj/main/NAZE/stm32f10x_gpio.o (symbol from plugin)
GPIO_ReadOutputData                               obj/main/NAZE/stm32f10x_gpio.o (symbol from plugin)
GPIO_ReadOutputDataBit                            obj/main/NAZE/stm32f10x_gpio.o (symbol from plugin)
GPIO_ResetBits                                    obj/main/NAZE/stm32f10x_gpio.o (symbol from plugin)
GPIO_SetBits                                      obj/main/NAZE/stm32f10x_gpio.o (symbol from plugin)
GPIO_StructInit                                   obj/main/NAZE/stm32f10x_gpio.o (symbol from plugin)
GPIO_Write                                        obj/main/NAZE/stm32f10x_gpio.o (symbol from plugin)
GPIO_WriteBit                                     obj/main/NAZE/stm32f10x_gpio.o (symbol from plugin)
GPS_coord_to_degrees                              obj/main/NAZE/common/gps_conversion.o (symbol from plugin)
GPS_directionToHome                               /tmp/ccELukx5.ltrans3.ltrans.o
                                                  obj/main/NAZE/navigation/navigation.o (symbol from plugin)
                                                  /tmp/ccELukx5.ltrans25.ltrans.o
                                                  obj/main/NAZE/fc/fc_msp.o (symbol from plugin)
GPS_distanceToHome                                /tmp/ccELukx5.ltrans3.ltrans.o
                                                  obj/main/NAZE/navigation/navigation.o (symbol from plugin)
                                                  /tmp/ccELukx5.ltrans25.ltrans.o
                                                  obj/main/NAZE/fc/fc_msp.o (symbol from plugin)
GPS_home                                          /tmp/ccELukx5.ltrans10.ltrans.o
                                                  obj/main/NAZE/navigation/navigation.o (symbol from plugin)
                                                  /tmp/ccELukx5.ltrans25.ltrans.o
                                                  /tmp/ccELukx5.ltrans23.ltrans.o
                                                  /tmp/ccELukx5.ltrans2.ltrans.o
                                                  obj/main/NAZE/telemetry/ltm.o (symbol from plugin)
                                                  obj/main/NAZE/blackbox/blackbox.o (symbol from plugin)
HardFault_Handler                                 /tmp/ccELukx5.ltrans29.ltrans.o
                                                  obj/main/NAZE/fc/fc_hardfaults.o (symbol from plugin)
                                                  obj/main/NAZE/startup_stm32f10x_md_gcc.o
I2C1_ER_IRQHandler                                obj/main/NAZE/startup_stm32f10x_md_gcc.o
I2C1_EV_IRQHandler                                obj/main/NAZE/startup_stm32f10x_md_gcc.o
I2C2_ER_IRQHandler                                obj/main/NAZE/startup_stm32f10x_md_gcc.o
I2C2_EV_IRQHandler                                obj/main/NAZE/startup_stm32f10x_md_gcc.o
I2C_ARPCmd                                        obj/main/NAZE/stm32f10x_i2c.o (symbol from plugin)
I2C_AcknowledgeConfig                             obj/main/NAZE/stm32f10x_i2c.o (symbol from plugin)
                                                  obj/main/NAZE/drivers/bus_i2c_stm32f10x.o (symbol from plugin)
I2C_CalculatePEC                                  obj/main/NAZE/stm32f10x_i2c.o (symbol from plugin)
I2C_CheckEvent                                    /tmp/ccELukx5.ltrans24.ltrans.o
                                                  obj/main/NAZE/stm32f10x_i2c.o (symbol from plugin)
                                                  /tmp/ccELukx5.ltrans20.ltrans.o
                                                  obj/main/NAZE/drivers/bus_i2c_stm32f10x.o (symbol from plugin)
I2C_ClearFlag                                     obj/main/NAZE/stm32f10x_i2c.o (symbol from plugin)
                                                  obj/main/NAZE/drivers/bus_i2c_stm32f10x.o (symbol from plugin)
I2C_ClearITPendingBit                             obj/main/NAZE/stm32f10x_i2c.o (symbol from plugin)
I2C_Cmd                                           obj/main/NAZE/stm32f10x_i2c.o (symbol from plugin)
                                                  obj/main/NAZE/drivers/bus_i2c_stm32f10x.o (symbol from plugin)
I2C_DMACmd                                        obj/main/NAZE/stm32f10x_i2c.o (symbol from plugin)
I2C_DMALastTransferCmd                            obj/main/NAZE/stm32f10x_i2c.o (symbol from plugin)
I2C_DeInit                                        obj/main/NAZE/stm32f10x_i2c.o (symbol from plugin)
                                                  obj/main/NAZE/drivers/bus_i2c_stm32f10x.o (symbol from plugin)
I2C_DualAddressCmd                                obj/main/NAZE/stm32f10x_i2c.o (symbol from plugin)
I2C_FastModeDutyCycleConfig                       obj/main/NAZE/stm32f10x_i2c.o (symbol from plugin)
I2C_GeneralCallCmd                                obj/main/NAZE/stm32f10x_i2c.o (symbol from plugin)
I2C_GenerateSTART                                 obj/main/NAZE/stm32f10x_i2c.o (symbol from plugin)
                                                  obj/main/NAZE/drivers/bus_i2c_stm32f10x.o (symbol from plugin)
I2C_GenerateSTOP                                  obj/main/NAZE/stm32f10x_i2c.o (symbol from plugin)
                                                  obj/main/NAZE/drivers/bus_i2c_stm32f10x.o (symbol from plugin)
I2C_GetFlagStatus                                 /tmp/ccELukx5.ltrans24.ltrans.o
                                                  obj/main/NAZE/stm32f10x_i2c.o (symbol from plugin)
                                                  /tmp/ccELukx5.ltrans20.ltrans.o
                                                  obj/main/NAZE/drivers/bus_i2c_stm32f10x.o (symbol from plugin)
I2C_GetITStatus                                   obj/main/NAZE/stm32f10x_i2c.o (symbol from plugin)
I2C_GetLastEvent                                  obj/main/NAZE/stm32f10x_i2c.o (symbol from plugin)
I2C_GetPEC                                        obj/main/NAZE/stm32f10x_i2c.o (symbol from plugin)
I2C_ITConfig                                      obj/main/NAZE/stm32f10x_i2c.o (symbol from plugin)
I2C_Init                                          obj/main/NAZE/stm32f10x_i2c.o (symbol from plugin)
                                                  obj/main/NAZE/drivers/bus_i2c_stm32f10x.o (symbol from plugin)
I2C_NACKPositionConfig                            obj/main/NAZE/stm32f10x_i2c.o (symbol from plugin)
                                                  obj/main/NAZE/drivers/bus_i2c_stm32f10x.o (symbol from plugin)
I2C_OwnAddress2Config                             obj/main/NAZE/stm32f10x_i2c.o (symbol from plugin)
I2C_PECPositionConfig                             obj/main/NAZE/stm32f10x_i2c.o (symbol from plugin)
I2C_ReadRegister                                  obj/main/NAZE/stm32f10x_i2c.o (symbol from plugin)
I2C_ReceiveData                                   obj/main/NAZE/stm32f10x_i2c.o (symbol from plugin)
                                                  obj/main/NAZE/drivers/bus_i2c_stm32f10x.o (symbol from plugin)
I2C_SMBusAlertConfig                              obj/main/NAZE/stm32f10x_i2c.o (symbol from plugin)
I2C_Send7bitAddress                               obj/main/NAZE/stm32f10x_i2c.o (symbol from plugin)
                                                  obj/main/NAZE/drivers/bus_i2c_stm32f10x.o (symbol from plugin)
I2C_SendData                                      obj/main/NAZE/stm32f10x_i2c.o (symbol from plugin)
                                                  obj/main/NAZE/drivers/bus_i2c_stm32f10x.o (symbol from plugin)
I2C_SoftwareResetCmd                              obj/main/NAZE/stm32f10x_i2c.o (symbol from plugin)
I2C_StretchClockCmd                               obj/main/NAZE/stm32f10x_i2c.o (symbol from plugin)
                                                  obj/main/NAZE/drivers/bus_i2c_stm32f10x.o (symbol from plugin)
I2C_StructInit                                    obj/main/NAZE/stm32f10x_i2c.o (symbol from plugin)
                                                  obj/main/NAZE/drivers/bus_i2c_stm32f10x.o (symbol from plugin)
I2C_TransmitPEC                                   obj/main/NAZE/stm32f10x_i2c.o (symbol from plugin)
I2S_Cmd                                           obj/main/NAZE/stm32f10x_spi.o (symbol from plugin)
I2S_Init                                          obj/main/NAZE/stm32f10x_spi.o (symbol from plugin)
I2S_StructInit                                    obj/main/NAZE/stm32f10x_spi.o (symbol from plugin)
IOConfigGPIO                                      /tmp/ccELukx5.ltrans8.ltrans.o
                                                  obj/main/NAZE/drivers/io.o (symbol from plugin)
                                                  /tmp/ccELukx5.ltrans20.ltrans.o
                                                  /tmp/ccELukx5.ltrans19.ltrans.o
                                                  /tmp/ccELukx5.ltrans5.ltrans.o
                                                  /tmp/ccELukx5.ltrans0.ltrans.o
                                                  obj/main/NAZE/drivers/timer.o (symbol from plugin)
                                                  obj/main/NAZE/drivers/sound_beeper.o (symbol from plugin)
                                                  obj/main/NAZE/drivers/rx_pwm.o (symbol from plugin)
                                                  obj/main/NAZE/drivers/pwm_output.o (symbol from plugin)
                                                  obj/main/NAZE/drivers/light_led.o (symbol from plugin)
                                                  obj/main/NAZE/drivers/bus_spi.o (symbol from plugin)
                                                  obj/main/NAZE/drivers/flash_m25p16.o (symbol from plugin)
                                                  obj/main/NAZE/drivers/accgyro/accgyro_mpu.o (symbol from plugin)
                                                  obj/main/NAZE/drivers/serial_uart_stm32f10x.o (symbol from plugin)
                                                  obj/main/NAZE/drivers/serial_softserial.o (symbol from plugin)
                                                  obj/main/NAZE/drivers/inverter.o (symbol from plugin)
                                                  obj/main/NAZE/drivers/bus_i2c_stm32f10x.o (symbol from plugin)
IOGetByTag                                        /tmp/ccELukx5.ltrans8.ltrans.o
                                                  obj/main/NAZE/drivers/io.o (symbol from plugin)
                                                  /tmp/ccELukx5.ltrans20.ltrans.o
                                                  /tmp/ccELukx5.ltrans19.ltrans.o
                                                  /tmp/ccELukx5.ltrans6.ltrans.o
                                                  /tmp/ccELukx5.ltrans5.ltrans.o
                                                  /tmp/ccELukx5.ltrans0.ltrans.o
                                                  obj/main/NAZE/drivers/timer.o (symbol from plugin)
                                                  obj/main/NAZE/drivers/sound_beeper.o (symbol from plugin)
                                                  obj/main/NAZE/drivers/rx_pwm.o (symbol from plugin)
                                                  obj/main/NAZE/drivers/pwm_output.o (symbol from plugin)
                                                  obj/main/NAZE/drivers/pwm_mapping.o (symbol from plugin)
                                                  obj/main/NAZE/drivers/bus_spi.o (symbol from plugin)
                                                  obj/main/NAZE/hardware_revision.o (symbol from plugin)
                                                  obj/main/NAZE/drivers/flash_m25p16.o (symbol from plugin)
                                                  obj/main/NAZE/drivers/compass/compass_hmc5883l.o (symbol from plugin)
                                                  obj/main/NAZE/drivers/accgyro/accgyro_mpu.o (symbol from plugin)
                                                  obj/main/NAZE/drivers/serial_uart_stm32f10x.o (symbol from plugin)
                                                  obj/main/NAZE/drivers/serial_softserial.o (symbol from plugin)
                                                  obj/main/NAZE/drivers/inverter.o (symbol from plugin)
                                                  obj/main/NAZE/drivers/bus_i2c_stm32f10x.o (symbol from plugin)
IOGetOwner                                        obj/main/NAZE/drivers/io.o (symbol from plugin)
IOGetResource                                     obj/main/NAZE/drivers/io.o (symbol from plugin)
IOHi                                              /tmp/ccELukx5.ltrans8.ltrans.o
                                                  obj/main/NAZE/drivers/io.o (symbol from plugin)
                                                  /tmp/ccELukx5.ltrans20.ltrans.o
                                                  /tmp/ccELukx5.ltrans6.ltrans.o
                                                  /tmp/ccELukx5.ltrans5.ltrans.o
                                                  /tmp/ccELukx5.ltrans0.ltrans.o
                                                  obj/main/NAZE/drivers/bus_spi.o (symbol from plugin)
                                                  obj/main/NAZE/hardware_revision.o (symbol from plugin)
                                                  obj/main/NAZE/drivers/flash_m25p16.o (symbol from plugin)
                                                  obj/main/NAZE/drivers/serial_softserial.o (symbol from plugin)
                                                  obj/main/NAZE/drivers/bus_i2c_stm32f10x.o (symbol from plugin)
IOInit                                            obj/main/NAZE/drivers/io.o (symbol from plugin)
                                                  obj/main/NAZE/drivers/timer.o (symbol from plugin)
                                                  obj/main/NAZE/drivers/sound_beeper.o (symbol from plugin)
                                                  obj/main/NAZE/drivers/rx_pwm.o (symbol from plugin)
                                                  obj/main/NAZE/drivers/pwm_output.o (symbol from plugin)
                                                  obj/main/NAZE/drivers/light_led.o (symbol from plugin)
                                                  obj/main/NAZE/drivers/bus_spi.o (symbol from plugin)
                                                  obj/main/NAZE/drivers/flash_m25p16.o (symbol from plugin)
                                                  obj/main/NAZE/drivers/accgyro/accgyro_mpu.o (symbol from plugin)
                                                  obj/main/NAZE/drivers/serial_uart_stm32f10x.o (symbol from plugin)
                                                  obj/main/NAZE/drivers/serial_softserial.o (symbol from plugin)
                                                  obj/main/NAZE/drivers/inverter.o (symbol from plugin)
                                                  obj/main/NAZE/drivers/bus_i2c_stm32f10x.o (symbol from plugin)
IOInitGlobal                                      obj/main/NAZE/drivers/io.o (symbol from plugin)
                                                  obj/main/NAZE/fc/fc_init.o (symbol from plugin)
IOLo                                              /tmp/ccELukx5.ltrans8.ltrans.o
                                                  obj/main/NAZE/drivers/io.o (symbol from plugin)
                                                  /tmp/ccELukx5.ltrans20.ltrans.o
                                                  /tmp/ccELukx5.ltrans6.ltrans.o
                                                  /tmp/ccELukx5.ltrans5.ltrans.o
                                                  /tmp/ccELukx5.ltrans0.ltrans.o
                                                  obj/main/NAZE/drivers/pwm_output.o (symbol from plugin)
                                                  obj/main/NAZE/hardware_revision.o (symbol from plugin)
                                                  obj/main/NAZE/drivers/flash_m25p16.o (symbol from plugin)
                                                  obj/main/NAZE/drivers/serial_softserial.o (symbol from plugin)
                                                  obj/main/NAZE/drivers/bus_i2c_stm32f10x.o (symbol from plugin)
IORead                                            obj/main/NAZE/drivers/io.o (symbol from plugin)
                                                  obj/main/NAZE/drivers/bus_i2c_stm32f10x.o (symbol from plugin)
IORelease                                         obj/main/NAZE/drivers/io.o (symbol from plugin)
IOToggle                                          obj/main/NAZE/drivers/io.o (symbol from plugin)
                                                  obj/main/NAZE/drivers/light_led.o (symbol from plugin)
IOWrite                                           /tmp/ccELukx5.ltrans8.ltrans.o
                                                  obj/main/NAZE/drivers/io.o (symbol from plugin)
                                                  /tmp/ccELukx5.ltrans19.ltrans.o
                                                  /tmp/ccELukx5.ltrans0.ltrans.o
                                                  obj/main/NAZE/drivers/sound_beeper.o (symbol from plugin)
                                                  obj/main/NAZE/drivers/light_led.o (symbol from plugin)
                                                  obj/main/NAZE/drivers/inverter.o (symbol from plugin)
IO_EXTI_Line                                      obj/main/NAZE/drivers/io.o (symbol from plugin)
                                                  obj/main/NAZE/drivers/exti.o (symbol from plugin)
IO_EXTI_PinSource                                 obj/main/NAZE/drivers/io.o (symbol from plugin)
IO_EXTI_PortSourceGPIO                            obj/main/NAZE/drivers/io.o (symbol from plugin)
IO_GPIO                                           obj/main/NAZE/drivers/io.o (symbol from plugin)
                                                  obj/main/NAZE/drivers/pwm_mapping.o (symbol from plugin)
IO_GPIOPinIdx                                     obj/main/NAZE/drivers/io.o (symbol from plugin)
                                                  obj/main/NAZE/drivers/exti.o (symbol from plugin)
IO_GPIOPortIdx                                    obj/main/NAZE/drivers/io.o (symbol from plugin)
IO_GPIO_PinSource                                 obj/main/NAZE/drivers/io.o (symbol from plugin)
                                                  obj/main/NAZE/drivers/pwm_mapping.o (symbol from plugin)
                                                  obj/main/NAZE/drivers/exti.o (symbol from plugin)
IO_GPIO_PortSource                                obj/main/NAZE/drivers/io.o (symbol from plugin)
                                                  obj/main/NAZE/drivers/exti.o (symbol from plugin)
IO_Pin                                            obj/main/NAZE/drivers/io.o (symbol from plugin)
                                                  obj/main/NAZE/drivers/pwm_mapping.o (symbol from plugin)
IO_Rec                                            obj/main/NAZE/drivers/io.o (symbol from plugin)
IS_RC_MODE_ACTIVE                                 /tmp/ccELukx5.ltrans7.ltrans.o
                                                  obj/main/NAZE/fc/rc_modes.o (symbol from plugin)
                                                  /tmp/ccELukx5.ltrans29.ltrans.o
                                                  /tmp/ccELukx5.ltrans15.ltrans.o
                                                  /tmp/ccELukx5.ltrans13.ltrans.o
                                                  /tmp/ccELukx5.ltrans11.ltrans.o
                                                  /tmp/ccELukx5.ltrans9.ltrans.o
                                                  /tmp/ccELukx5.ltrans4.ltrans.o
                                                  /tmp/ccELukx5.ltrans1.ltrans.o
                                                  obj/main/NAZE/rx/rx.o (symbol from plugin)
                                                  obj/main/NAZE/io/rcsplit.o (symbol from plugin)
                                                  obj/main/NAZE/io/beeper.o (symbol from plugin)
                                                  obj/main/NAZE/flight/servos.o (symbol from plugin)
                                                  obj/main/NAZE/flight/failsafe.o (symbol from plugin)
                                                  obj/main/NAZE/fc/rc_controls.o (symbol from plugin)
                                                  obj/main/NAZE/fc/fc_msp.o (symbol from plugin)
                                                  obj/main/NAZE/fc/fc_core.o (symbol from plugin)
                                                  obj/main/NAZE/telemetry/telemetry.o (symbol from plugin)
                                                  obj/main/NAZE/navigation/navigation.o (symbol from plugin)
                                                  obj/main/NAZE/blackbox/blackbox.o (symbol from plugin)
IWDG_Enable                                       obj/main/NAZE/stm32f10x_iwdg.o (symbol from plugin)
IWDG_GetFlagStatus                                obj/main/NAZE/stm32f10x_iwdg.o (symbol from plugin)
IWDG_ReloadCounter                                obj/main/NAZE/stm32f10x_iwdg.o (symbol from plugin)
IWDG_SetPrescaler                                 obj/main/NAZE/stm32f10x_iwdg.o (symbol from plugin)
IWDG_SetReload                                    obj/main/NAZE/stm32f10x_iwdg.o (symbol from plugin)
IWDG_WriteAccessCmd                               obj/main/NAZE/stm32f10x_iwdg.o (symbol from plugin)
MemManage_Handler                                 obj/main/NAZE/startup_stm32f10x_md_gcc.o
NAV_Status                                        /tmp/ccELukx5.ltrans3.ltrans.o
                                                  obj/main/NAZE/navigation/navigation.o (symbol from plugin)
                                                  /tmp/ccELukx5.ltrans25.ltrans.o
                                                  /tmp/ccELukx5.ltrans10.ltrans.o
                                                  obj/main/NAZE/fc/fc_msp.o (symbol from plugin)
                                                  obj/main/NAZE/telemetry/ltm.o (symbol from plugin)
NMI_Handler                                       obj/main/NAZE/startup_stm32f10x_md_gcc.o
NRF24L01_WritePayload                             obj/main/NAZE/drivers/rx_xn297.o (symbol from plugin)
NVIC_Init                                         obj/main/NAZE/misc.o (symbol from plugin)
                                                  obj/main/NAZE/drivers/timer.o (symbol from plugin)
                                                  obj/main/NAZE/drivers/exti.o (symbol from plugin)
                                                  obj/main/NAZE/drivers/serial_uart_stm32f10x.o (symbol from plugin)
                                                  obj/main/NAZE/drivers/dma.o (symbol from plugin)
NVIC_Init.part.0.constprop.126                    /tmp/ccELukx5.ltrans20.ltrans.o
                                                  /tmp/ccELukx5.ltrans24.ltrans.o
                                                  /tmp/ccELukx5.ltrans19.ltrans.o
                                                  /tmp/ccELukx5.ltrans14.ltrans.o
NVIC_PriorityGroupConfig                          obj/main/NAZE/misc.o (symbol from plugin)
                                                  obj/main/NAZE/drivers/system_stm32f10x.o (symbol from plugin)
NVIC_SetVectorTable                               obj/main/NAZE/misc.o (symbol from plugin)
NVIC_SystemLPConfig                               obj/main/NAZE/misc.o (symbol from plugin)
PVD_IRQHandler                                    obj/main/NAZE/startup_stm32f10x_md_gcc.o
PWR_BackupAccessCmd                               obj/main/NAZE/stm32f10x_pwr.o (symbol from plugin)
PWR_ClearFlag                                     obj/main/NAZE/stm32f10x_pwr.o (symbol from plugin)
PWR_DeInit                                        obj/main/NAZE/stm32f10x_pwr.o (symbol from plugin)
PWR_EnterSTANDBYMode                              obj/main/NAZE/stm32f10x_pwr.o (symbol from plugin)
PWR_EnterSTOPMode                                 obj/main/NAZE/stm32f10x_pwr.o (symbol from plugin)
PWR_GetFlagStatus                                 obj/main/NAZE/stm32f10x_pwr.o (symbol from plugin)
PWR_PVDCmd                                        obj/main/NAZE/stm32f10x_pwr.o (symbol from plugin)
PWR_PVDLevelConfig                                obj/main/NAZE/stm32f10x_pwr.o (symbol from plugin)
PWR_WakeUpPinCmd                                  obj/main/NAZE/stm32f10x_pwr.o (symbol from plugin)
PendSV_Handler                                    obj/main/NAZE/startup_stm32f10x_md_gcc.o
RCC_ADCCLKConfig                                  obj/main/NAZE/stm32f10x_rcc.o (symbol from plugin)
RCC_AHBPeriphClockCmd                             obj/main/NAZE/stm32f10x_rcc.o (symbol from plugin)
                                                  obj/main/NAZE/drivers/rcc.o (symbol from plugin)
                                                  obj/main/NAZE/drivers/dma.o (symbol from plugin)
RCC_APB1PeriphClockCmd                            obj/main/NAZE/stm32f10x_rcc.o (symbol from plugin)
                                                  obj/main/NAZE/drivers/rcc.o (symbol from plugin)
RCC_APB1PeriphResetCmd                            obj/main/NAZE/stm32f10x_rcc.o (symbol from plugin)
                                                  obj/main/NAZE/stm32f10x_wwdg.o (symbol from plugin)
                                                  obj/main/NAZE/stm32f10x_usart.o (symbol from plugin)
                                                  obj/main/NAZE/stm32f10x_tim.o (symbol from plugin)
                                                  obj/main/NAZE/stm32f10x_spi.o (symbol from plugin)
                                                  obj/main/NAZE/stm32f10x_pwr.o (symbol from plugin)
                                                  obj/main/NAZE/stm32f10x_i2c.o (symbol from plugin)
                                                  obj/main/NAZE/stm32f10x_dac.o (symbol from plugin)
                                                  obj/main/NAZE/drivers/rcc.o (symbol from plugin)
RCC_APB2PeriphClockCmd                            obj/main/NAZE/stm32f10x_rcc.o (symbol from plugin)
                                                  obj/main/NAZE/drivers/rcc.o (symbol from plugin)
                                                  obj/main/NAZE/drivers/exti.o (symbol from plugin)
                                                  obj/main/NAZE/drivers/system_stm32f10x.o (symbol from plugin)
RCC_APB2PeriphResetCmd                            obj/main/NAZE/stm32f10x_rcc.o (symbol from plugin)
                                                  obj/main/NAZE/stm32f10x_usart.o (symbol from plugin)
                                                  obj/main/NAZE/stm32f10x_tim.o (symbol from plugin)
                                                  obj/main/NAZE/stm32f10x_spi.o (symbol from plugin)
                                                  obj/main/NAZE/stm32f10x_gpio.o (symbol from plugin)
                                                  obj/main/NAZE/stm32f10x_adc.o (symbol from plugin)
                                                  obj/main/NAZE/drivers/rcc.o (symbol from plugin)
RCC_AdjustHSICalibrationValue                     obj/main/NAZE/stm32f10x_rcc.o (symbol from plugin)
RCC_BackupResetCmd                                obj/main/NAZE/stm32f10x_rcc.o (symbol from plugin)
                                                  obj/main/NAZE/stm32f10x_bkp.o (symbol from plugin)
RCC_ClearFlag                                     obj/main/NAZE/stm32f10x_rcc.o (symbol from plugin)
                                                  obj/main/NAZE/drivers/system_stm32f10x.o (symbol from plugin)
RCC_ClearITPendingBit                             obj/main/NAZE/stm32f10x_rcc.o (symbol from plugin)
RCC_ClockCmd                                      obj/main/NAZE/drivers/rcc.o (symbol from plugin)
                                                  obj/main/NAZE/drivers/timer.o (symbol from plugin)
                                                  obj/main/NAZE/drivers/io.o (symbol from plugin)
                                                  obj/main/NAZE/drivers/bus_spi.o (symbol from plugin)
                                                  obj/main/NAZE/drivers/serial_uart_stm32f10x.o (symbol from plugin)
                                                  obj/main/NAZE/drivers/bus_i2c_stm32f10x.o (symbol from plugin)
RCC_ClockCmd.constprop.138                        /tmp/ccELukx5.ltrans31.ltrans.o
                                                  /tmp/ccELukx5.ltrans19.ltrans.o
                                                  /tmp/ccELukx5.ltrans8.ltrans.o
                                                  /tmp/ccELukx5.ltrans5.ltrans.o
                                                  /tmp/ccELukx5.ltrans0.ltrans.o
RCC_ClockSecuritySystemCmd                        obj/main/NAZE/stm32f10x_rcc.o (symbol from plugin)
RCC_DeInit                                        obj/main/NAZE/stm32f10x_rcc.o (symbol from plugin)
RCC_GetClocksFreq                                 /tmp/ccELukx5.ltrans24.ltrans.o
                                                  obj/main/NAZE/stm32f10x_rcc.o (symbol from plugin)
                                                  /tmp/ccELukx5.ltrans19.ltrans.o
                                                  /tmp/ccELukx5.ltrans5.ltrans.o
                                                  obj/main/NAZE/stm32f10x_usart.o (symbol from plugin)
                                                  obj/main/NAZE/stm32f10x_spi.o (symbol from plugin)
                                                  obj/main/NAZE/stm32f10x_i2c.o (symbol from plugin)
                                                  obj/main/NAZE/drivers/system.o (symbol from plugin)
                                                  obj/main/NAZE/drivers/system_stm32f10x.o (symbol from plugin)
RCC_GetFlagStatus                                 obj/main/NAZE/stm32f10x_rcc.o (symbol from plugin)
RCC_GetITStatus                                   obj/main/NAZE/stm32f10x_rcc.o (symbol from plugin)
RCC_GetSYSCLKSource                               obj/main/NAZE/stm32f10x_rcc.o (symbol from plugin)
RCC_HCLKConfig                                    obj/main/NAZE/stm32f10x_rcc.o (symbol from plugin)
RCC_HSEConfig                                     obj/main/NAZE/stm32f10x_rcc.o (symbol from plugin)
RCC_HSICmd                                        obj/main/NAZE/stm32f10x_rcc.o (symbol from plugin)
RCC_IRQHandler                                    obj/main/NAZE/startup_stm32f10x_md_gcc.o
RCC_ITConfig                                      obj/main/NAZE/stm32f10x_rcc.o (symbol from plugin)
RCC_LSEConfig                                     obj/main/NAZE/stm32f10x_rcc.o (symbol from plugin)
RCC_LSICmd                                        obj/main/NAZE/stm32f10x_rcc.o (symbol from plugin)
RCC_MCOConfig                                     obj/main/NAZE/stm32f10x_rcc.o (symbol from plugin)
RCC_PCLK1Config                                   obj/main/NAZE/stm32f10x_rcc.o (symbol from plugin)
RCC_PCLK2Config                                   obj/main/NAZE/stm32f10x_rcc.o (symbol from plugin)
RCC_PLLCmd                                        obj/main/NAZE/stm32f10x_rcc.o (symbol from plugin)
RCC_PLLConfig                                     obj/main/NAZE/stm32f10x_rcc.o (symbol from plugin)
RCC_RTCCLKCmd                                     obj/main/NAZE/stm32f10x_rcc.o (symbol from plugin)
RCC_RTCCLKConfig                                  obj/main/NAZE/stm32f10x_rcc.o (symbol from plugin)
RCC_ResetCmd                                      obj/main/NAZE/drivers/rcc.o (symbol from plugin)
                                                  obj/main/NAZE/drivers/bus_spi.o (symbol from plugin)
RCC_SYSCLKConfig                                  obj/main/NAZE/stm32f10x_rcc.o (symbol from plugin)
RCC_USBCLKConfig                                  obj/main/NAZE/stm32f10x_rcc.o (symbol from plugin)
RCC_WaitForHSEStartUp                             obj/main/NAZE/stm32f10x_rcc.o (symbol from plugin)
RTCAlarm_IRQHandler                               obj/main/NAZE/startup_stm32f10x_md_gcc.o
RTC_ClearFlag                                     obj/main/NAZE/stm32f10x_rtc.o (symbol from plugin)
RTC_ClearITPendingBit                             obj/main/NAZE/stm32f10x_rtc.o (symbol from plugin)
RTC_EnterConfigMode                               obj/main/NAZE/stm32f10x_rtc.o (symbol from plugin)
RTC_ExitConfigMode                                obj/main/NAZE/stm32f10x_rtc.o (symbol from plugin)
RTC_GetCounter                                    obj/main/NAZE/stm32f10x_rtc.o (symbol from plugin)
RTC_GetDivider                                    obj/main/NAZE/stm32f10x_rtc.o (symbol from plugin)
RTC_GetFlagStatus                                 obj/main/NAZE/stm32f10x_rtc.o (symbol from plugin)
RTC_GetITStatus                                   obj/main/NAZE/stm32f10x_rtc.o (symbol from plugin)
RTC_IRQHandler                                    obj/main/NAZE/startup_stm32f10x_md_gcc.o
RTC_ITConfig                                      obj/main/NAZE/stm32f10x_rtc.o (symbol from plugin)
RTC_SetAlarm                                      obj/main/NAZE/stm32f10x_rtc.o (symbol from plugin)
RTC_SetCounter                                    obj/main/NAZE/stm32f10x_rtc.o (symbol from plugin)
RTC_SetPrescaler                                  obj/main/NAZE/stm32f10x_rtc.o (symbol from plugin)
RTC_WaitForLastTask                               obj/main/NAZE/stm32f10x_rtc.o (symbol from plugin)
RTC_WaitForSynchro                                obj/main/NAZE/stm32f10x_rtc.o (symbol from plugin)
Reset_Handler                                     obj/main/NAZE/startup_stm32f10x_md_gcc.o
SDIO_CEATAITCmd                                   obj/main/NAZE/stm32f10x_sdio.o (symbol from plugin)
SDIO_ClearFlag                                    obj/main/NAZE/stm32f10x_sdio.o (symbol from plugin)
SDIO_ClearITPendingBit                            obj/main/NAZE/stm32f10x_sdio.o (symbol from plugin)
SDIO_ClockCmd                                     obj/main/NAZE/stm32f10x_sdio.o (symbol from plugin)
SDIO_CmdStructInit                                obj/main/NAZE/stm32f10x_sdio.o (symbol from plugin)
SDIO_CommandCompletionCmd                         obj/main/NAZE/stm32f10x_sdio.o (symbol from plugin)
SDIO_DMACmd                                       obj/main/NAZE/stm32f10x_sdio.o (symbol from plugin)
SDIO_DataConfig                                   obj/main/NAZE/stm32f10x_sdio.o (symbol from plugin)
SDIO_DataStructInit                               obj/main/NAZE/stm32f10x_sdio.o (symbol from plugin)
SDIO_DeInit                                       obj/main/NAZE/stm32f10x_sdio.o (symbol from plugin)
SDIO_GetCommandResponse                           obj/main/NAZE/stm32f10x_sdio.o (symbol from plugin)
SDIO_GetDataCounter                               obj/main/NAZE/stm32f10x_sdio.o (symbol from plugin)
SDIO_GetFIFOCount                                 obj/main/NAZE/stm32f10x_sdio.o (symbol from plugin)
SDIO_GetFlagStatus                                obj/main/NAZE/stm32f10x_sdio.o (symbol from plugin)
SDIO_GetITStatus                                  obj/main/NAZE/stm32f10x_sdio.o (symbol from plugin)
SDIO_GetPowerState                                obj/main/NAZE/stm32f10x_sdio.o (symbol from plugin)
SDIO_GetResponse                                  obj/main/NAZE/stm32f10x_sdio.o (symbol from plugin)
SDIO_ITConfig                                     obj/main/NAZE/stm32f10x_sdio.o (symbol from plugin)
SDIO_Init                                         obj/main/NAZE/stm32f10x_sdio.o (symbol from plugin)
SDIO_ReadData                                     obj/main/NAZE/stm32f10x_sdio.o (symbol from plugin)
SDIO_SendCEATACmd                                 obj/main/NAZE/stm32f10x_sdio.o (symbol from plugin)
SDIO_SendCommand                                  obj/main/NAZE/stm32f10x_sdio.o (symbol from plugin)
SDIO_SendSDIOSuspendCmd                           obj/main/NAZE/stm32f10x_sdio.o (symbol from plugin)
SDIO_SetPowerState                                obj/main/NAZE/stm32f10x_sdio.o (symbol from plugin)
SDIO_SetSDIOOperation                             obj/main/NAZE/stm32f10x_sdio.o (symbol from plugin)
SDIO_SetSDIOReadWaitMode                          obj/main/NAZE/stm32f10x_sdio.o (symbol from plugin)
SDIO_StartSDIOReadWait                            obj/main/NAZE/stm32f10x_sdio.o (symbol from plugin)
SDIO_StopSDIOReadWait                             obj/main/NAZE/stm32f10x_sdio.o (symbol from plugin)
SDIO_StructInit                                   obj/main/NAZE/stm32f10x_sdio.o (symbol from plugin)
SDIO_WriteData                                    obj/main/NAZE/stm32f10x_sdio.o (symbol from plugin)
SPI1_IRQHandler                                   obj/main/NAZE/startup_stm32f10x_md_gcc.o
SPI2_IRQHandler                                   obj/main/NAZE/startup_stm32f10x_md_gcc.o
SPI_BiDirectionalLineConfig                       obj/main/NAZE/stm32f10x_spi.o (symbol from plugin)
SPI_CalculateCRC                                  obj/main/NAZE/stm32f10x_spi.o (symbol from plugin)
SPI_Cmd                                           obj/main/NAZE/stm32f10x_spi.o (symbol from plugin)
                                                  obj/main/NAZE/drivers/bus_spi.o (symbol from plugin)
SPI_DataSizeConfig                                obj/main/NAZE/stm32f10x_spi.o (symbol from plugin)
SPI_GetCRC                                        obj/main/NAZE/stm32f10x_spi.o (symbol from plugin)
SPI_GetCRCPolynomial                              obj/main/NAZE/stm32f10x_spi.o (symbol from plugin)
SPI_I2S_ClearFlag                                 obj/main/NAZE/stm32f10x_spi.o (symbol from plugin)
SPI_I2S_ClearITPendingBit                         obj/main/NAZE/stm32f10x_spi.o (symbol from plugin)
SPI_I2S_DMACmd                                    obj/main/NAZE/stm32f10x_spi.o (symbol from plugin)
SPI_I2S_DeInit                                    obj/main/NAZE/stm32f10x_spi.o (symbol from plugin)
                                                  obj/main/NAZE/drivers/bus_spi.o (symbol from plugin)
SPI_I2S_GetFlagStatus                             obj/main/NAZE/stm32f10x_spi.o (symbol from plugin)
                                                  obj/main/NAZE/drivers/bus_spi.o (symbol from plugin)
SPI_I2S_GetITStatus                               obj/main/NAZE/stm32f10x_spi.o (symbol from plugin)
SPI_I2S_ITConfig                                  obj/main/NAZE/stm32f10x_spi.o (symbol from plugin)
SPI_I2S_ReceiveData                               obj/main/NAZE/stm32f10x_spi.o (symbol from plugin)
                                                  obj/main/NAZE/drivers/bus_spi.o (symbol from plugin)
SPI_I2S_SendData                                  obj/main/NAZE/stm32f10x_spi.o (symbol from plugin)
                                                  obj/main/NAZE/drivers/bus_spi.o (symbol from plugin)
SPI_Init                                          obj/main/NAZE/stm32f10x_spi.o (symbol from plugin)
                                                  obj/main/NAZE/drivers/bus_spi.o (symbol from plugin)
SPI_NSSInternalSoftwareConfig                     obj/main/NAZE/stm32f10x_spi.o (symbol from plugin)
SPI_SSOutputCmd                                   obj/main/NAZE/stm32f10x_spi.o (symbol from plugin)
SPI_StructInit                                    obj/main/NAZE/stm32f10x_spi.o (symbol from plugin)
SPI_TransmitCRC                                   obj/main/NAZE/stm32f10x_spi.o (symbol from plugin)
SVC_Handler                                       obj/main/NAZE/startup_stm32f10x_md_gcc.o
SetSysClock                                       obj/main/NAZE/system_stm32f10x.o (symbol from plugin)
                                                  obj/main/NAZE/drivers/system_stm32f10x.o (symbol from plugin)
SysTick_CLKSourceConfig                           obj/main/NAZE/misc.o (symbol from plugin)
SysTick_Handler                                   /tmp/ccELukx5.ltrans19.ltrans.o
                                                  obj/main/NAZE/drivers/system.o (symbol from plugin)
                                                  obj/main/NAZE/startup_stm32f10x_md_gcc.o
SystemCoreClock                                   /tmp/ccELukx5.ltrans17.ltrans.o
                                                  obj/main/NAZE/system_stm32f10x.o (symbol from plugin)
                                                  /tmp/ccELukx5.ltrans14.ltrans.o
                                                  /tmp/ccELukx5.ltrans5.ltrans.o
                                                  /tmp/ccELukx5.ltrans0.ltrans.o
                                                  obj/main/NAZE/fc/cli.o (symbol from plugin)
                                                  obj/main/NAZE/drivers/timer.o (symbol from plugin)
                                                  obj/main/NAZE/drivers/serial_softserial.o (symbol from plugin)
SystemCoreClockUpdate                             obj/main/NAZE/system_stm32f10x.o (symbol from plugin)
SystemInit                                        /tmp/ccELukx5.ltrans18.ltrans.o
                                                  obj/main/NAZE/system_stm32f10x.o (symbol from plugin)
                                                  obj/main/NAZE/startup_stm32f10x_md_gcc.o
TAMPER_IRQHandler                                 obj/main/NAZE/startup_stm32f10x_md_gcc.o
TIM1_BRK_IRQHandler                               obj/main/NAZE/startup_stm32f10x_md_gcc.o
TIM1_CC_IRQHandler                                /tmp/ccELukx5.ltrans14.ltrans.o
                                                  obj/main/NAZE/drivers/timer.o (symbol from plugin)
                                                  obj/main/NAZE/startup_stm32f10x_md_gcc.o
TIM1_TRG_COM_IRQHandler                           obj/main/NAZE/startup_stm32f10x_md_gcc.o
TIM1_UP_IRQHandler                                /tmp/ccELukx5.ltrans14.ltrans.o
                                                  obj/main/NAZE/drivers/timer.o (symbol from plugin)
                                                  obj/main/NAZE/startup_stm32f10x_md_gcc.o
TIM2_IRQHandler                                   /tmp/ccELukx5.ltrans14.ltrans.o
                                                  obj/main/NAZE/drivers/timer.o (symbol from plugin)
                                                  obj/main/NAZE/startup_stm32f10x_md_gcc.o
TIM3_IRQHandler                                   /tmp/ccELukx5.ltrans14.ltrans.o
                                                  obj/main/NAZE/drivers/timer.o (symbol from plugin)
                                                  obj/main/NAZE/startup_stm32f10x_md_gcc.o
TIM4_IRQHandler                                   /tmp/ccELukx5.ltrans14.ltrans.o
                                                  obj/main/NAZE/drivers/timer.o (symbol from plugin)
                                                  obj/main/NAZE/startup_stm32f10x_md_gcc.o
TIM_ARRPreloadConfig                              obj/main/NAZE/stm32f10x_tim.o (symbol from plugin)
TIM_BDTRConfig                                    obj/main/NAZE/stm32f10x_tim.o (symbol from plugin)
TIM_BDTRStructInit                                obj/main/NAZE/stm32f10x_tim.o (symbol from plugin)
TIM_CCPreloadControl                              obj/main/NAZE/stm32f10x_tim.o (symbol from plugin)
TIM_CCxCmd                                        obj/main/NAZE/stm32f10x_tim.o (symbol from plugin)
TIM_CCxNCmd                                       obj/main/NAZE/stm32f10x_tim.o (symbol from plugin)
TIM_ClearFlag                                     obj/main/NAZE/stm32f10x_tim.o (symbol from plugin)
                                                  obj/main/NAZE/drivers/timer.o (symbol from plugin)
TIM_ClearITPendingBit                             obj/main/NAZE/stm32f10x_tim.o (symbol from plugin)
TIM_ClearOC1Ref                                   obj/main/NAZE/stm32f10x_tim.o (symbol from plugin)
TIM_ClearOC2Ref                                   obj/main/NAZE/stm32f10x_tim.o (symbol from plugin)
TIM_ClearOC3Ref                                   obj/main/NAZE/stm32f10x_tim.o (symbol from plugin)
TIM_ClearOC4Ref                                   obj/main/NAZE/stm32f10x_tim.o (symbol from plugin)
TIM_Cmd                                           obj/main/NAZE/stm32f10x_tim.o (symbol from plugin)
                                                  obj/main/NAZE/drivers/timer.o (symbol from plugin)
                                                  obj/main/NAZE/drivers/pwm_output.o (symbol from plugin)
TIM_CounterModeConfig                             obj/main/NAZE/stm32f10x_tim.o (symbol from plugin)
TIM_CtrlPWMOutputs                                obj/main/NAZE/stm32f10x_tim.o (symbol from plugin)
                                                  obj/main/NAZE/drivers/pwm_output.o (symbol from plugin)
TIM_DMACmd                                        obj/main/NAZE/stm32f10x_tim.o (symbol from plugin)
TIM_DMAConfig                                     obj/main/NAZE/stm32f10x_tim.o (symbol from plugin)
TIM_DeInit                                        obj/main/NAZE/stm32f10x_tim.o (symbol from plugin)
TIM_ETRClockMode1Config                           obj/main/NAZE/stm32f10x_tim.o (symbol from plugin)
TIM_ETRClockMode2Config                           obj/main/NAZE/stm32f10x_tim.o (symbol from plugin)
TIM_ETRConfig                                     obj/main/NAZE/stm32f10x_tim.o (symbol from plugin)
TIM_EncoderInterfaceConfig                        obj/main/NAZE/stm32f10x_tim.o (symbol from plugin)
TIM_ForcedOC1Config                               obj/main/NAZE/stm32f10x_tim.o (symbol from plugin)
TIM_ForcedOC2Config                               obj/main/NAZE/stm32f10x_tim.o (symbol from plugin)
TIM_ForcedOC3Config                               obj/main/NAZE/stm32f10x_tim.o (symbol from plugin)
TIM_ForcedOC4Config                               obj/main/NAZE/stm32f10x_tim.o (symbol from plugin)
TIM_GenerateEvent                                 obj/main/NAZE/stm32f10x_tim.o (symbol from plugin)
TIM_GetCapture1                                   obj/main/NAZE/stm32f10x_tim.o (symbol from plugin)
TIM_GetCapture2                                   obj/main/NAZE/stm32f10x_tim.o (symbol from plugin)
TIM_GetCapture3                                   obj/main/NAZE/stm32f10x_tim.o (symbol from plugin)
TIM_GetCapture4                                   obj/main/NAZE/stm32f10x_tim.o (symbol from plugin)
TIM_GetCounter                                    obj/main/NAZE/stm32f10x_tim.o (symbol from plugin)
TIM_GetFlagStatus                                 obj/main/NAZE/stm32f10x_tim.o (symbol from plugin)
TIM_GetITStatus                                   obj/main/NAZE/stm32f10x_tim.o (symbol from plugin)
TIM_GetPrescaler                                  obj/main/NAZE/stm32f10x_tim.o (symbol from plugin)
TIM_ICInit                                        /tmp/ccELukx5.ltrans24.ltrans.o
                                                  obj/main/NAZE/stm32f10x_tim.o (symbol from plugin)
                                                  /tmp/ccELukx5.ltrans20.ltrans.o
                                                  /tmp/ccELukx5.ltrans8.ltrans.o
                                                  obj/main/NAZE/drivers/timer.o (symbol from plugin)
                                                  obj/main/NAZE/drivers/rx_pwm.o (symbol from plugin)
TIM_ICStructInit                                  obj/main/NAZE/stm32f10x_tim.o (symbol from plugin)
                                                  obj/main/NAZE/drivers/timer.o (symbol from plugin)
                                                  obj/main/NAZE/drivers/rx_pwm.o (symbol from plugin)
TIM_ITConfig                                      obj/main/NAZE/stm32f10x_tim.o (symbol from plugin)
                                                  obj/main/NAZE/drivers/timer.o (symbol from plugin)
TIM_ITRxExternalClockConfig                       obj/main/NAZE/stm32f10x_tim.o (symbol from plugin)
TIM_InternalClockConfig                           obj/main/NAZE/stm32f10x_tim.o (symbol from plugin)
TIM_OC1FastConfig                                 obj/main/NAZE/stm32f10x_tim.o (symbol from plugin)
TIM_OC1Init                                       obj/main/NAZE/stm32f10x_tim.o (symbol from plugin)
                                                  obj/main/NAZE/drivers/timer.o (symbol from plugin)
TIM_OC1NPolarityConfig                            obj/main/NAZE/stm32f10x_tim.o (symbol from plugin)
TIM_OC1PolarityConfig                             obj/main/NAZE/stm32f10x_tim.o (symbol from plugin)
TIM_OC1PreloadConfig                              obj/main/NAZE/stm32f10x_tim.o (symbol from plugin)
                                                  obj/main/NAZE/drivers/timer.o (symbol from plugin)
TIM_OC2FastConfig                                 obj/main/NAZE/stm32f10x_tim.o (symbol from plugin)
TIM_OC2Init                                       obj/main/NAZE/stm32f10x_tim.o (symbol from plugin)
                                                  obj/main/NAZE/drivers/timer.o (symbol from plugin)
TIM_OC2NPolarityConfig                            obj/main/NAZE/stm32f10x_tim.o (symbol from plugin)
TIM_OC2PolarityConfig                             obj/main/NAZE/stm32f10x_tim.o (symbol from plugin)
TIM_OC2PreloadConfig                              obj/main/NAZE/stm32f10x_tim.o (symbol from plugin)
                                                  obj/main/NAZE/drivers/timer.o (symbol from plugin)
TIM_OC3FastConfig                                 obj/main/NAZE/stm32f10x_tim.o (symbol from plugin)
TIM_OC3Init                                       obj/main/NAZE/stm32f10x_tim.o (symbol from plugin)
                                                  obj/main/NAZE/drivers/timer.o (symbol from plugin)
TIM_OC3NPolarityConfig                            obj/main/NAZE/stm32f10x_tim.o (symbol from plugin)
TIM_OC3PolarityConfig                             obj/main/NAZE/stm32f10x_tim.o (symbol from plugin)
TIM_OC3PreloadConfig                              obj/main/NAZE/stm32f10x_tim.o (symbol from plugin)
                                                  obj/main/NAZE/drivers/timer.o (symbol from plugin)
TIM_OC4FastConfig                                 obj/main/NAZE/stm32f10x_tim.o (symbol from plugin)
TIM_OC4Init                                       obj/main/NAZE/stm32f10x_tim.o (symbol from plugin)
                                                  obj/main/NAZE/drivers/timer.o (symbol from plugin)
TIM_OC4PolarityConfig                             obj/main/NAZE/stm32f10x_tim.o (symbol from plugin)
TIM_OC4PreloadConfig                              obj/main/NAZE/stm32f10x_tim.o (symbol from plugin)
                                                  obj/main/NAZE/drivers/timer.o (symbol from plugin)
TIM_OCStructInit                                  obj/main/NAZE/stm32f10x_tim.o (symbol from plugin)
                                                  obj/main/NAZE/drivers/timer.o (symbol from plugin)
                                                  obj/main/NAZE/drivers/pwm_output.o (symbol from plugin)
TIM_PWMIConfig                                    obj/main/NAZE/stm32f10x_tim.o (symbol from plugin)
TIM_PrescalerConfig                               obj/main/NAZE/stm32f10x_tim.o (symbol from plugin)
TIM_SelectCCDMA                                   obj/main/NAZE/stm32f10x_tim.o (symbol from plugin)
TIM_SelectCOM                                     obj/main/NAZE/stm32f10x_tim.o (symbol from plugin)
TIM_SelectHallSensor                              obj/main/NAZE/stm32f10x_tim.o (symbol from plugin)
TIM_SelectInputTrigger                            obj/main/NAZE/stm32f10x_tim.o (symbol from plugin)
TIM_SelectMasterSlaveMode                         obj/main/NAZE/stm32f10x_tim.o (symbol from plugin)
TIM_SelectOCxM                                    obj/main/NAZE/stm32f10x_tim.o (symbol from plugin)
TIM_SelectOCxM_NoDisable                          obj/main/NAZE/drivers/timer_stm32f10x.o (symbol from plugin)
TIM_SelectOnePulseMode                            obj/main/NAZE/stm32f10x_tim.o (symbol from plugin)
TIM_SelectOutputTrigger                           obj/main/NAZE/stm32f10x_tim.o (symbol from plugin)
TIM_SelectSlaveMode                               obj/main/NAZE/stm32f10x_tim.o (symbol from plugin)
TIM_SetAutoreload                                 obj/main/NAZE/stm32f10x_tim.o (symbol from plugin)
TIM_SetClockDivision                              obj/main/NAZE/stm32f10x_tim.o (symbol from plugin)
TIM_SetCompare1                                   obj/main/NAZE/stm32f10x_tim.o (symbol from plugin)
TIM_SetCompare2                                   obj/main/NAZE/stm32f10x_tim.o (symbol from plugin)
TIM_SetCompare3                                   obj/main/NAZE/stm32f10x_tim.o (symbol from plugin)
TIM_SetCompare4                                   obj/main/NAZE/stm32f10x_tim.o (symbol from plugin)
TIM_SetCounter                                    obj/main/NAZE/stm32f10x_tim.o (symbol from plugin)
                                                  obj/main/NAZE/drivers/serial_softserial.o (symbol from plugin)
TIM_SetIC1Prescaler                               obj/main/NAZE/stm32f10x_tim.o (symbol from plugin)
TIM_SetIC2Prescaler                               obj/main/NAZE/stm32f10x_tim.o (symbol from plugin)
TIM_SetIC3Prescaler                               obj/main/NAZE/stm32f10x_tim.o (symbol from plugin)
TIM_SetIC4Prescaler                               obj/main/NAZE/stm32f10x_tim.o (symbol from plugin)
TIM_TIxExternalClockConfig                        obj/main/NAZE/stm32f10x_tim.o (symbol from plugin)
TIM_TimeBaseInit                                  obj/main/NAZE/stm32f10x_tim.o (symbol from plugin)
                                                  obj/main/NAZE/drivers/timer.o (symbol from plugin)
TIM_TimeBaseStructInit                            obj/main/NAZE/stm32f10x_tim.o (symbol from plugin)
                                                  obj/main/NAZE/drivers/timer.o (symbol from plugin)
TIM_UpdateDisableConfig                           obj/main/NAZE/stm32f10x_tim.o (symbol from plugin)
TIM_UpdateRequestConfig                           obj/main/NAZE/stm32f10x_tim.o (symbol from plugin)
USART1_IRQHandler                                 /tmp/ccELukx5.ltrans5.ltrans.o
                                                  obj/main/NAZE/drivers/serial_uart_stm32f10x.o (symbol from plugin)
                                                  obj/main/NAZE/startup_stm32f10x_md_gcc.o
USART2_IRQHandler                                 /tmp/ccELukx5.ltrans5.ltrans.o
                                                  obj/main/NAZE/drivers/serial_uart_stm32f10x.o (symbol from plugin)
                                                  obj/main/NAZE/startup_stm32f10x_md_gcc.o
USART3_IRQHandler                                 obj/main/NAZE/startup_stm32f10x_md_gcc.o
USART_ClearFlag                                   obj/main/NAZE/stm32f10x_usart.o (symbol from plugin)
USART_ClearITPendingBit                           obj/main/NAZE/stm32f10x_usart.o (symbol from plugin)
                                                  obj/main/NAZE/drivers/serial_uart.o (symbol from plugin)
USART_ClockInit                                   obj/main/NAZE/stm32f10x_usart.o (symbol from plugin)
USART_ClockStructInit                             obj/main/NAZE/stm32f10x_usart.o (symbol from plugin)
USART_Cmd                                         obj/main/NAZE/stm32f10x_usart.o (symbol from plugin)
                                                  obj/main/NAZE/drivers/serial_uart.o (symbol from plugin)
USART_DMACmd                                      obj/main/NAZE/stm32f10x_usart.o (symbol from plugin)
                                                  obj/main/NAZE/drivers/serial_uart.o (symbol from plugin)
USART_DeInit                                      obj/main/NAZE/stm32f10x_usart.o (symbol from plugin)
USART_GetFlagStatus                               obj/main/NAZE/stm32f10x_usart.o (symbol from plugin)
USART_GetITStatus                                 obj/main/NAZE/stm32f10x_usart.o (symbol from plugin)
USART_HalfDuplexCmd                               obj/main/NAZE/stm32f10x_usart.o (symbol from plugin)
                                                  obj/main/NAZE/drivers/serial_uart.o (symbol from plugin)
USART_ITConfig                                    obj/main/NAZE/stm32f10x_usart.o (symbol from plugin)
                                                  obj/main/NAZE/drivers/serial_uart.o (symbol from plugin)
                                                  obj/main/NAZE/drivers/serial_uart_stm32f10x.o (symbol from plugin)
USART_Init                                        obj/main/NAZE/stm32f10x_usart.o (symbol from plugin)
                                                  obj/main/NAZE/drivers/serial_uart.o (symbol from plugin)
USART_IrDACmd                                     obj/main/NAZE/stm32f10x_usart.o (symbol from plugin)
USART_IrDAConfig                                  obj/main/NAZE/stm32f10x_usart.o (symbol from plugin)
USART_LINBreakDetectLengthConfig                  obj/main/NAZE/stm32f10x_usart.o (symbol from plugin)
USART_LINCmd                                      obj/main/NAZE/stm32f10x_usart.o (symbol from plugin)
USART_OneBitMethodCmd                             obj/main/NAZE/stm32f10x_usart.o (symbol from plugin)
USART_OverSampling8Cmd                            obj/main/NAZE/stm32f10x_usart.o (symbol from plugin)
USART_ReceiveData                                 obj/main/NAZE/stm32f10x_usart.o (symbol from plugin)
USART_ReceiverWakeUpCmd                           obj/main/NAZE/stm32f10x_usart.o (symbol from plugin)
USART_SendBreak                                   obj/main/NAZE/stm32f10x_usart.o (symbol from plugin)
USART_SendData                                    obj/main/NAZE/stm32f10x_usart.o (symbol from plugin)
USART_SetAddress                                  obj/main/NAZE/stm32f10x_usart.o (symbol from plugin)
USART_SetGuardTime                                obj/main/NAZE/stm32f10x_usart.o (symbol from plugin)
USART_SetPrescaler                                obj/main/NAZE/stm32f10x_usart.o (symbol from plugin)
USART_SmartCardCmd                                obj/main/NAZE/stm32f10x_usart.o (symbol from plugin)
USART_SmartCardNACKCmd                            obj/main/NAZE/stm32f10x_usart.o (symbol from plugin)
USART_StructInit                                  obj/main/NAZE/stm32f10x_usart.o (symbol from plugin)
USART_WakeUpConfig                                obj/main/NAZE/stm32f10x_usart.o (symbol from plugin)
USBWakeUp_IRQHandler                              obj/main/NAZE/startup_stm32f10x_md_gcc.o
USB_HP_CAN1_TX_IRQHandler                         obj/main/NAZE/startup_stm32f10x_md_gcc.o
USB_LP_CAN1_RX0_IRQHandler                        obj/main/NAZE/startup_stm32f10x_md_gcc.o
UsageFault_Handler                                obj/main/NAZE/startup_stm32f10x_md_gcc.o
WWDG_ClearFlag                                    obj/main/NAZE/stm32f10x_wwdg.o (symbol from plugin)
WWDG_DeInit                                       obj/main/NAZE/stm32f10x_wwdg.o (symbol from plugin)
WWDG_Enable                                       obj/main/NAZE/stm32f10x_wwdg.o (symbol from plugin)
WWDG_EnableIT                                     obj/main/NAZE/stm32f10x_wwdg.o (symbol from plugin)
WWDG_GetFlagStatus                                obj/main/NAZE/stm32f10x_wwdg.o (symbol from plugin)
WWDG_IRQHandler                                   obj/main/NAZE/startup_stm32f10x_md_gcc.o
WWDG_SetCounter                                   obj/main/NAZE/stm32f10x_wwdg.o (symbol from plugin)
WWDG_SetPrescaler                                 obj/main/NAZE/stm32f10x_wwdg.o (symbol from plugin)
WWDG_SetWindowValue                               obj/main/NAZE/stm32f10x_wwdg.o (symbol from plugin)
XN297_UnscramblePayload                           obj/main/NAZE/drivers/rx_xn297.o (symbol from plugin)
XN297_WritePayload                                obj/main/NAZE/drivers/rx_xn297.o (symbol from plugin)
_Min_Stack_Size                                   /tmp/ccELukx5.ltrans17.ltrans.o
                                                  obj/main/NAZE/drivers/stack_check.o (symbol from plugin)
__adddf3                                          /usr/bin/../lib/gcc/arm-none-eabi/4.9.3/armv7-m/libgcc.a(_arm_addsubdf3.o)
__addsf3                                          /usr/bin/../lib/gcc/arm-none-eabi/4.9.3/armv7-m/libgcc.a(_arm_addsubsf3.o)
__aeabi_cdcmpeq                                   /usr/bin/../lib/gcc/arm-none-eabi/4.9.3/armv7-m/libgcc.a(_arm_cmpdf2.o)
__aeabi_cdcmple                                   /usr/bin/../lib/gcc/arm-none-eabi/4.9.3/armv7-m/libgcc.a(_arm_cmpdf2.o)
__aeabi_cdrcmple                                  /usr/bin/../lib/gcc/arm-none-eabi/4.9.3/armv7-m/libgcc.a(_arm_cmpdf2.o)
__aeabi_cfcmpeq                                   /usr/bin/../lib/gcc/arm-none-eabi/4.9.3/armv7-m/libgcc.a(_arm_cmpsf2.o)
__aeabi_cfcmple                                   /usr/bin/../lib/gcc/arm-none-eabi/4.9.3/armv7-m/libgcc.a(_arm_cmpsf2.o)
__aeabi_cfrcmple                                  /usr/bin/../lib/gcc/arm-none-eabi/4.9.3/armv7-m/libgcc.a(_arm_cmpsf2.o)
__aeabi_d2f                                       /usr/bin/../lib/gcc/arm-none-eabi/4.9.3/armv7-m/libgcc.a(_arm_truncdfsf2.o)
                                                  /usr/bin/../lib/gcc/arm-none-eabi/4.9.3/../../../../arm-none-eabi/lib/armv7-m/libm.a(lib_a-wf_sqrt.o)
                                                  /usr/bin/../lib/gcc/arm-none-eabi/4.9.3/../../../../arm-none-eabi/lib/armv7-m/libm.a(lib_a-wf_pow.o)
                                                  /tmp/ccELukx5.ltrans1.ltrans.o
__aeabi_dadd                                      /usr/bin/../lib/gcc/arm-none-eabi/4.9.3/armv7-m/libgcc.a(_arm_addsubdf3.o)
                                                  /usr/bin/../lib/gcc/arm-none-eabi/4.9.3/../../../../arm-none-eabi/lib/armv7-m/libm.a(lib_a-s_rint.o)
__aeabi_dcmpeq                                    /usr/bin/../lib/gcc/arm-none-eabi/4.9.3/armv7-m/libgcc.a(_arm_cmpdf2.o)
                                                  /usr/bin/../lib/gcc/arm-none-eabi/4.9.3/../../../../arm-none-eabi/lib/armv7-m/libm.a(lib_a-wf_pow.o)
__aeabi_dcmpge                                    /usr/bin/../lib/gcc/arm-none-eabi/4.9.3/armv7-m/libgcc.a(_arm_cmpdf2.o)
__aeabi_dcmpgt                                    /usr/bin/../lib/gcc/arm-none-eabi/4.9.3/armv7-m/libgcc.a(_arm_cmpdf2.o)
__aeabi_dcmple                                    /usr/bin/../lib/gcc/arm-none-eabi/4.9.3/armv7-m/libgcc.a(_arm_cmpdf2.o)
__aeabi_dcmplt                                    /usr/bin/../lib/gcc/arm-none-eabi/4.9.3/armv7-m/libgcc.a(_arm_cmpdf2.o)
__aeabi_ddiv                                      /usr/bin/../lib/gcc/arm-none-eabi/4.9.3/armv7-m/libgcc.a(_arm_muldivdf3.o)
                                                  /usr/bin/../lib/gcc/arm-none-eabi/4.9.3/../../../../arm-none-eabi/lib/armv7-m/libm.a(lib_a-wf_sqrt.o)
                                                  /usr/bin/../lib/gcc/arm-none-eabi/4.9.3/../../../../arm-none-eabi/lib/armv7-m/libm.a(lib_a-wf_pow.o)
__aeabi_dmul                                      /usr/bin/../lib/gcc/arm-none-eabi/4.9.3/armv7-m/libgcc.a(_arm_muldivdf3.o)
                                                  /tmp/ccELukx5.ltrans1.ltrans.o
__aeabi_drsub                                     /usr/bin/../lib/gcc/arm-none-eabi/4.9.3/armv7-m/libgcc.a(_arm_addsubdf3.o)
__aeabi_dsub                                      /usr/bin/../lib/gcc/arm-none-eabi/4.9.3/armv7-m/libgcc.a(_arm_addsubdf3.o)
                                                  /usr/bin/../lib/gcc/arm-none-eabi/4.9.3/../../../../arm-none-eabi/lib/armv7-m/libm.a(lib_a-s_rint.o)
__aeabi_f2d                                       /usr/bin/../lib/gcc/arm-none-eabi/4.9.3/armv7-m/libgcc.a(_arm_addsubdf3.o)
                                                  /usr/bin/../lib/gcc/arm-none-eabi/4.9.3/../../../../arm-none-eabi/lib/armv7-m/libm.a(lib_a-wf_sqrt.o)
                                                  /usr/bin/../lib/gcc/arm-none-eabi/4.9.3/../../../../arm-none-eabi/lib/armv7-m/libm.a(lib_a-wf_pow.o)
__aeabi_f2iz                                      /usr/bin/../lib/gcc/arm-none-eabi/4.9.3/armv7-m/libgcc.a(_arm_fixsfsi.o)
                                                  /usr/bin/../lib/gcc/arm-none-eabi/4.9.3/../../../../arm-none-eabi/lib/armv7-m/libm.a(lib_a-sf_lrint.o)
                                                  /tmp/ccELukx5.ltrans28.ltrans.o
                                                  /tmp/ccELukx5.ltrans25.ltrans.o
                                                  /tmp/ccELukx5.ltrans22.ltrans.o
                                                  /tmp/ccELukx5.ltrans21.ltrans.o
                                                  /tmp/ccELukx5.ltrans17.ltrans.o
                                                  /tmp/ccELukx5.ltrans15.ltrans.o
                                                  /tmp/ccELukx5.ltrans13.ltrans.o
                                                  /tmp/ccELukx5.ltrans11.ltrans.o
                                                  /tmp/ccELukx5.ltrans10.ltrans.o
                                                  /tmp/ccELukx5.ltrans9.ltrans.o
                                                  /tmp/ccELukx5.ltrans7.ltrans.o
                                                  /tmp/ccELukx5.ltrans5.ltrans.o
                                                  /tmp/ccELukx5.ltrans3.ltrans.o
                                                  /tmp/ccELukx5.ltrans1.ltrans.o
__aeabi_f2uiz                                     /usr/bin/../lib/gcc/arm-none-eabi/4.9.3/armv7-m/libgcc.a(_arm_fixunssfsi.o)
                                                  /tmp/ccELukx5.ltrans25.ltrans.o
                                                  /tmp/ccELukx5.ltrans18.ltrans.o
                                                  /tmp/ccELukx5.ltrans11.ltrans.o
                                                  /tmp/ccELukx5.ltrans4.ltrans.o
                                                  /tmp/ccELukx5.ltrans3.ltrans.o
                                                  /tmp/ccELukx5.ltrans1.ltrans.o
__aeabi_fadd                                      /usr/bin/../lib/gcc/arm-none-eabi/4.9.3/armv7-m/libgcc.a(_arm_addsubsf3.o)
                                                  /usr/bin/../lib/gcc/arm-none-eabi/4.9.3/../../../../arm-none-eabi/lib/armv7-m/libm.a(lib_a-sf_scalbn.o)
                                                  /usr/bin/../lib/gcc/arm-none-eabi/4.9.3/../../../../arm-none-eabi/lib/armv7-m/libm.a(lib_a-ef_sqrt.o)
                                                  /usr/bin/../lib/gcc/arm-none-eabi/4.9.3/../../../../arm-none-eabi/lib/armv7-m/libm.a(lib_a-ef_pow.o)
                                                  /usr/bin/../lib/gcc/arm-none-eabi/4.9.3/../../../../arm-none-eabi/lib/armv7-m/libm.a(lib_a-sf_lrint.o)
                                                  /tmp/ccELukx5.ltrans28.ltrans.o
                                                  /tmp/ccELukx5.ltrans27.ltrans.o
                                                  /tmp/ccELukx5.ltrans25.ltrans.o
                                                  /tmp/ccELukx5.ltrans24.ltrans.o
                                                  /tmp/ccELukx5.ltrans22.ltrans.o
                                                  /tmp/ccELukx5.ltrans21.ltrans.o
                                                  /tmp/ccELukx5.ltrans18.ltrans.o
                                                  /tmp/ccELukx5.ltrans15.ltrans.o
                                                  /tmp/ccELukx5.ltrans13.ltrans.o
                                                  /tmp/ccELukx5.ltrans12.ltrans.o
                                                  /tmp/ccELukx5.ltrans11.ltrans.o
                                                  /tmp/ccELukx5.ltrans10.ltrans.o
                                                  /tmp/ccELukx5.ltrans9.ltrans.o
                                                  /tmp/ccELukx5.ltrans8.ltrans.o
                                                  /tmp/ccELukx5.ltrans7.ltrans.o
                                                  /tmp/ccELukx5.ltrans1.ltrans.o
                                                  /tmp/ccELukx5.ltrans0.ltrans.o
__aeabi_fcmpeq                                    /usr/bin/../lib/gcc/arm-none-eabi/4.9.3/armv7-m/libgcc.a(_arm_cmpsf2.o)
                                                  /usr/bin/../lib/gcc/arm-none-eabi/4.9.3/../../../../arm-none-eabi/lib/armv7-m/libm.a(lib_a-wf_pow.o)
                                                  /tmp/ccELukx5.ltrans22.ltrans.o
                                                  /tmp/ccELukx5.ltrans21.ltrans.o
                                                  /tmp/ccELukx5.ltrans16.ltrans.o
                                                  /tmp/ccELukx5.ltrans14.ltrans.o
                                                  /tmp/ccELukx5.ltrans0.ltrans.o
__aeabi_fcmpge                                    /usr/bin/../lib/gcc/arm-none-eabi/4.9.3/armv7-m/libgcc.a(_arm_cmpsf2.o)
                                                  /tmp/ccELukx5.ltrans28.ltrans.o
                                                  /tmp/ccELukx5.ltrans17.ltrans.o
                                                  /tmp/ccELukx5.ltrans13.ltrans.o
                                                  /tmp/ccELukx5.ltrans12.ltrans.o
                                                  /tmp/ccELukx5.ltrans11.ltrans.o
                                                  /tmp/ccELukx5.ltrans9.ltrans.o
__aeabi_fcmpgt                                    /usr/bin/../lib/gcc/arm-none-eabi/4.9.3/armv7-m/libgcc.a(_arm_cmpsf2.o)
                                                  /usr/bin/../lib/gcc/arm-none-eabi/4.9.3/../../../../arm-none-eabi/lib/armv7-m/libm.a(lib_a-ef_pow.o)
                                                  /tmp/ccELukx5.ltrans28.ltrans.o
                                                  /tmp/ccELukx5.ltrans27.ltrans.o
                                                  /tmp/ccELukx5.ltrans25.ltrans.o
                                                  /tmp/ccELukx5.ltrans24.ltrans.o
                                                  /tmp/ccELukx5.ltrans22.ltrans.o
                                                  /tmp/ccELukx5.ltrans13.ltrans.o
                                                  /tmp/ccELukx5.ltrans12.ltrans.o
                                                  /tmp/ccELukx5.ltrans11.ltrans.o
                                                  /tmp/ccELukx5.ltrans9.ltrans.o
                                                  /tmp/ccELukx5.ltrans7.ltrans.o
                                                  /tmp/ccELukx5.ltrans2.ltrans.o
                                                  /tmp/ccELukx5.ltrans1.ltrans.o
__aeabi_fcmple                                    /usr/bin/../lib/gcc/arm-none-eabi/4.9.3/armv7-m/libgcc.a(_arm_cmpsf2.o)
                                                  /usr/bin/../lib/gcc/arm-none-eabi/4.9.3/../../../../arm-none-eabi/lib/armv7-m/libm.a(lib_a-ef_pow.o)
                                                  /tmp/ccELukx5.ltrans28.ltrans.o
                                                  /tmp/ccELukx5.ltrans25.ltrans.o
                                                  /tmp/ccELukx5.ltrans17.ltrans.o
                                                  /tmp/ccELukx5.ltrans13.ltrans.o
                                                  /tmp/ccELukx5.ltrans12.ltrans.o
                                                  /tmp/ccELukx5.ltrans11.ltrans.o
                                                  /tmp/ccELukx5.ltrans9.ltrans.o
__aeabi_fcmplt                                    /usr/bin/../lib/gcc/arm-none-eabi/4.9.3/armv7-m/libgcc.a(_arm_cmpsf2.o)
                                                  /usr/bin/../lib/gcc/arm-none-eabi/4.9.3/../../../../arm-none-eabi/lib/armv7-m/libm.a(lib_a-wf_sqrt.o)
                                                  /usr/bin/../lib/gcc/arm-none-eabi/4.9.3/../../../../arm-none-eabi/lib/armv7-m/libm.a(lib_a-wf_pow.o)
                                                  /tmp/ccELukx5.ltrans28.ltrans.o
                                                  /tmp/ccELukx5.ltrans25.ltrans.o
                                                  /tmp/ccELukx5.ltrans24.ltrans.o
                                                  /tmp/ccELukx5.ltrans22.ltrans.o
                                                  /tmp/ccELukx5.ltrans13.ltrans.o
                                                  /tmp/ccELukx5.ltrans12.ltrans.o
                                                  /tmp/ccELukx5.ltrans11.ltrans.o
                                                  /tmp/ccELukx5.ltrans10.ltrans.o
                                                  /tmp/ccELukx5.ltrans9.ltrans.o
                                                  /tmp/ccELukx5.ltrans7.ltrans.o
                                                  /tmp/ccELukx5.ltrans2.ltrans.o
                                                  /tmp/ccELukx5.ltrans1.ltrans.o
__aeabi_fdiv                                      /usr/bin/../lib/gcc/arm-none-eabi/4.9.3/armv7-m/libgcc.a(_arm_muldivsf3.o)
                                                  /usr/bin/../lib/gcc/arm-none-eabi/4.9.3/../../../../arm-none-eabi/lib/armv7-m/libm.a(lib_a-ef_sqrt.o)
                                                  /usr/bin/../lib/gcc/arm-none-eabi/4.9.3/../../../../arm-none-eabi/lib/armv7-m/libm.a(lib_a-ef_pow.o)
                                                  /tmp/ccELukx5.ltrans28.ltrans.o
                                                  /tmp/ccELukx5.ltrans27.ltrans.o
                                                  /tmp/ccELukx5.ltrans25.ltrans.o
                                                  /tmp/ccELukx5.ltrans24.ltrans.o
                                                  /tmp/ccELukx5.ltrans22.ltrans.o
                                                  /tmp/ccELukx5.ltrans21.ltrans.o
                                                  /tmp/ccELukx5.ltrans18.ltrans.o
                                                  /tmp/ccELukx5.ltrans17.ltrans.o
                                                  /tmp/ccELukx5.ltrans15.ltrans.o
                                                  /tmp/ccELukx5.ltrans13.ltrans.o
                                                  /tmp/ccELukx5.ltrans12.ltrans.o
                                                  /tmp/ccELukx5.ltrans11.ltrans.o
                                                  /tmp/ccELukx5.ltrans10.ltrans.o
                                                  /tmp/ccELukx5.ltrans9.ltrans.o
                                                  /tmp/ccELukx5.ltrans8.ltrans.o
                                                  /tmp/ccELukx5.ltrans7.ltrans.o
                                                  /tmp/ccELukx5.ltrans6.ltrans.o
                                                  /tmp/ccELukx5.ltrans4.ltrans.o
                                                  /tmp/ccELukx5.ltrans3.ltrans.o
                                                  /tmp/ccELukx5.ltrans2.ltrans.o
                                                  /tmp/ccELukx5.ltrans1.ltrans.o
                                                  /tmp/ccELukx5.ltrans0.ltrans.o
__aeabi_fmul                                      /usr/bin/../lib/gcc/arm-none-eabi/4.9.3/armv7-m/libgcc.a(_arm_muldivsf3.o)
                                                  /usr/bin/../lib/gcc/arm-none-eabi/4.9.3/../../../../arm-none-eabi/lib/armv7-m/libm.a(lib_a-sf_scalbn.o)
                                                  /usr/bin/../lib/gcc/arm-none-eabi/4.9.3/../../../../arm-none-eabi/lib/armv7-m/libm.a(lib_a-ef_sqrt.o)
                                                  /usr/bin/../lib/gcc/arm-none-eabi/4.9.3/../../../../arm-none-eabi/lib/armv7-m/libm.a(lib_a-ef_pow.o)
                                                  /usr/bin/../lib/gcc/arm-none-eabi/4.9.3/../../../../arm-none-eabi/lib/armv7-m/libm.a(lib_a-wf_pow.o)
                                                  /tmp/ccELukx5.ltrans28.ltrans.o
                                                  /tmp/ccELukx5.ltrans27.ltrans.o
                                                  /tmp/ccELukx5.ltrans25.ltrans.o
                                                  /tmp/ccELukx5.ltrans24.ltrans.o
                                                  /tmp/ccELukx5.ltrans22.ltrans.o
                                                  /tmp/ccELukx5.ltrans21.ltrans.o
                                                  /tmp/ccELukx5.ltrans18.ltrans.o
                                                  /tmp/ccELukx5.ltrans15.ltrans.o
                                                  /tmp/ccELukx5.ltrans13.ltrans.o
                                                  /tmp/ccELukx5.ltrans12.ltrans.o
                                                  /tmp/ccELukx5.ltrans11.ltrans.o
                                                  /tmp/ccELukx5.ltrans10.ltrans.o
                                                  /tmp/ccELukx5.ltrans9.ltrans.o
                                                  /tmp/ccELukx5.ltrans8.ltrans.o
                                                  /tmp/ccELukx5.ltrans7.ltrans.o
                                                  /tmp/ccELukx5.ltrans5.ltrans.o
                                                  /tmp/ccELukx5.ltrans4.ltrans.o
                                                  /tmp/ccELukx5.ltrans3.ltrans.o
                                                  /tmp/ccELukx5.ltrans1.ltrans.o
                                                  /tmp/ccELukx5.ltrans0.ltrans.o
__aeabi_frsub                                     /usr/bin/../lib/gcc/arm-none-eabi/4.9.3/armv7-m/libgcc.a(_arm_addsubsf3.o)
__aeabi_fsub                                      /usr/bin/../lib/gcc/arm-none-eabi/4.9.3/armv7-m/libgcc.a(_arm_addsubsf3.o)
                                                  /usr/bin/../lib/gcc/arm-none-eabi/4.9.3/../../../../arm-none-eabi/lib/armv7-m/libm.a(lib_a-ef_sqrt.o)
                                                  /usr/bin/../lib/gcc/arm-none-eabi/4.9.3/../../../../arm-none-eabi/lib/armv7-m/libm.a(lib_a-ef_pow.o)
                                                  /usr/bin/../lib/gcc/arm-none-eabi/4.9.3/../../../../arm-none-eabi/lib/armv7-m/libm.a(lib_a-sf_lrint.o)
                                                  /tmp/ccELukx5.ltrans28.ltrans.o
                                                  /tmp/ccELukx5.ltrans25.ltrans.o
                                                  /tmp/ccELukx5.ltrans24.ltrans.o
                                                  /tmp/ccELukx5.ltrans22.ltrans.o
                                                  /tmp/ccELukx5.ltrans18.ltrans.o
                                                  /tmp/ccELukx5.ltrans15.ltrans.o
                                                  /tmp/ccELukx5.ltrans13.ltrans.o
                                                  /tmp/ccELukx5.ltrans12.ltrans.o
                                                  /tmp/ccELukx5.ltrans11.ltrans.o
                                                  /tmp/ccELukx5.ltrans10.ltrans.o
                                                  /tmp/ccELukx5.ltrans9.ltrans.o
                                                  /tmp/ccELukx5.ltrans7.ltrans.o
                                                  /tmp/ccELukx5.ltrans1.ltrans.o
__aeabi_i2d                                       /usr/bin/../lib/gcc/arm-none-eabi/4.9.3/armv7-m/libgcc.a(_arm_addsubdf3.o)
__aeabi_i2f                                       /usr/bin/../lib/gcc/arm-none-eabi/4.9.3/armv7-m/libgcc.a(_arm_addsubsf3.o)
                                                  /usr/bin/../lib/gcc/arm-none-eabi/4.9.3/../../../../arm-none-eabi/lib/armv7-m/libm.a(lib_a-ef_pow.o)
                                                  /tmp/ccELukx5.ltrans28.ltrans.o
                                                  /tmp/ccELukx5.ltrans27.ltrans.o
                                                  /tmp/ccELukx5.ltrans25.ltrans.o
                                                  /tmp/ccELukx5.ltrans24.ltrans.o
                                                  /tmp/ccELukx5.ltrans22.ltrans.o
                                                  /tmp/ccELukx5.ltrans21.ltrans.o
                                                  /tmp/ccELukx5.ltrans18.ltrans.o
                                                  /tmp/ccELukx5.ltrans17.ltrans.o
                                                  /tmp/ccELukx5.ltrans15.ltrans.o
                                                  /tmp/ccELukx5.ltrans14.ltrans.o
                                                  /tmp/ccELukx5.ltrans13.ltrans.o
                                                  /tmp/ccELukx5.ltrans12.ltrans.o
                                                  /tmp/ccELukx5.ltrans11.ltrans.o
                                                  /tmp/ccELukx5.ltrans10.ltrans.o
                                                  /tmp/ccELukx5.ltrans9.ltrans.o
                                                  /tmp/ccELukx5.ltrans8.ltrans.o
                                                  /tmp/ccELukx5.ltrans7.ltrans.o
                                                  /tmp/ccELukx5.ltrans6.ltrans.o
                                                  /tmp/ccELukx5.ltrans5.ltrans.o
                                                  /tmp/ccELukx5.ltrans4.ltrans.o
                                                  /tmp/ccELukx5.ltrans2.ltrans.o
                                                  /tmp/ccELukx5.ltrans1.ltrans.o
                                                  /tmp/ccELukx5.ltrans0.ltrans.o
__aeabi_idiv0                                     /usr/bin/../lib/gcc/arm-none-eabi/4.9.3/armv7-m/libgcc.a(_dvmd_tls.o)
__aeabi_l2d                                       /usr/bin/../lib/gcc/arm-none-eabi/4.9.3/armv7-m/libgcc.a(_arm_addsubdf3.o)
__aeabi_l2f                                       /usr/bin/../lib/gcc/arm-none-eabi/4.9.3/armv7-m/libgcc.a(_arm_addsubsf3.o)
__aeabi_ldiv0                                     /usr/bin/../lib/gcc/arm-none-eabi/4.9.3/armv7-m/libgcc.a(_dvmd_tls.o)
                                                  /usr/bin/../lib/gcc/arm-none-eabi/4.9.3/armv7-m/libgcc.a(_aeabi_uldivmod.o)
                                                  /usr/bin/../lib/gcc/arm-none-eabi/4.9.3/armv7-m/libgcc.a(_aeabi_ldivmod.o)
__aeabi_ldivmod                                   /usr/bin/../lib/gcc/arm-none-eabi/4.9.3/armv7-m/libgcc.a(_aeabi_ldivmod.o)
                                                  /tmp/ccELukx5.ltrans27.ltrans.o
                                                  /tmp/ccELukx5.ltrans5.ltrans.o
__aeabi_ui2d                                      /usr/bin/../lib/gcc/arm-none-eabi/4.9.3/armv7-m/libgcc.a(_arm_addsubdf3.o)
__aeabi_ui2f                                      /usr/bin/../lib/gcc/arm-none-eabi/4.9.3/armv7-m/libgcc.a(_arm_addsubsf3.o)
                                                  /tmp/ccELukx5.ltrans28.ltrans.o
                                                  /tmp/ccELukx5.ltrans25.ltrans.o
                                                  /tmp/ccELukx5.ltrans24.ltrans.o
                                                  /tmp/ccELukx5.ltrans18.ltrans.o
                                                  /tmp/ccELukx5.ltrans17.ltrans.o
                                                  /tmp/ccELukx5.ltrans15.ltrans.o
                                                  /tmp/ccELukx5.ltrans14.ltrans.o
                                                  /tmp/ccELukx5.ltrans13.ltrans.o
                                                  /tmp/ccELukx5.ltrans11.ltrans.o
                                                  /tmp/ccELukx5.ltrans9.ltrans.o
__aeabi_ul2d                                      /usr/bin/../lib/gcc/arm-none-eabi/4.9.3/armv7-m/libgcc.a(_arm_addsubdf3.o)
                                                  /tmp/ccELukx5.ltrans1.ltrans.o
__aeabi_ul2f                                      /usr/bin/../lib/gcc/arm-none-eabi/4.9.3/armv7-m/libgcc.a(_arm_addsubsf3.o)
                                                  /tmp/ccELukx5.ltrans25.ltrans.o
                                                  /tmp/ccELukx5.ltrans13.ltrans.o
                                                  /tmp/ccELukx5.ltrans11.ltrans.o
__aeabi_uldivmod                                  /usr/bin/../lib/gcc/arm-none-eabi/4.9.3/armv7-m/libgcc.a(_aeabi_uldivmod.o)
                                                  /tmp/ccELukx5.ltrans20.ltrans.o
                                                  /tmp/ccELukx5.ltrans19.ltrans.o
                                                  /tmp/ccELukx5.ltrans12.ltrans.o
                                                  /tmp/ccELukx5.ltrans9.ltrans.o
__cmpdf2                                          /usr/bin/../lib/gcc/arm-none-eabi/4.9.3/armv7-m/libgcc.a(_arm_cmpdf2.o)
__cmpsf2                                          /usr/bin/../lib/gcc/arm-none-eabi/4.9.3/armv7-m/libgcc.a(_arm_cmpsf2.o)
__config_end                                      /tmp/ccELukx5.ltrans21.ltrans.o
                                                  /tmp/ccELukx5.ltrans17.ltrans.o
                                                  /tmp/ccELukx5.ltrans15.ltrans.o
                                                  /tmp/ccELukx5.ltrans8.ltrans.o
                                                  obj/main/NAZE/fc/cli.o (symbol from plugin)
                                                  obj/main/NAZE/config/config_eeprom.o (symbol from plugin)
__config_start                                    /tmp/ccELukx5.ltrans21.ltrans.o
                                                  /tmp/ccELukx5.ltrans17.ltrans.o
                                                  /tmp/ccELukx5.ltrans15.ltrans.o
                                                  /tmp/ccELukx5.ltrans8.ltrans.o
                                                  /tmp/ccELukx5.ltrans0.ltrans.o
                                                  obj/main/NAZE/fc/cli.o (symbol from plugin)
                                                  obj/main/NAZE/config/config_eeprom.o (symbol from plugin)
__divdf3                                          /usr/bin/../lib/gcc/arm-none-eabi/4.9.3/armv7-m/libgcc.a(_arm_muldivdf3.o)
__divdi3                                          /usr/bin/../lib/gcc/arm-none-eabi/4.9.3/armv7-m/libgcc.a(_divdi3.o)
                                                  /usr/bin/../lib/gcc/arm-none-eabi/4.9.3/armv7-m/libgcc.a(bpabi.o)
__divsf3                                          /usr/bin/../lib/gcc/arm-none-eabi/4.9.3/armv7-m/libgcc.a(_arm_muldivsf3.o)
__eqdf2                                           /usr/bin/../lib/gcc/arm-none-eabi/4.9.3/armv7-m/libgcc.a(_arm_cmpdf2.o)
__eqsf2                                           /usr/bin/../lib/gcc/arm-none-eabi/4.9.3/armv7-m/libgcc.a(_arm_cmpsf2.o)
__errno                                           /usr/bin/../lib/gcc/arm-none-eabi/4.9.3/../../../../arm-none-eabi/lib/armv7-m/libc_nano.a(lib_a-errno.o)
                                                  /usr/bin/../lib/gcc/arm-none-eabi/4.9.3/../../../../arm-none-eabi/lib/armv7-m/libm.a(lib_a-wf_sqrt.o)
                                                  /usr/bin/../lib/gcc/arm-none-eabi/4.9.3/../../../../arm-none-eabi/lib/armv7-m/libm.a(lib_a-wf_pow.o)
__extendsfdf2                                     /usr/bin/../lib/gcc/arm-none-eabi/4.9.3/armv7-m/libgcc.a(_arm_addsubdf3.o)
__fdlib_version                                   /usr/bin/../lib/gcc/arm-none-eabi/4.9.3/../../../../arm-none-eabi/lib/armv7-m/libm.a(lib_a-s_lib_ver.o)
                                                  /usr/bin/../lib/gcc/arm-none-eabi/4.9.3/../../../../arm-none-eabi/lib/armv7-m/libm.a(lib_a-wf_sqrt.o)
                                                  /usr/bin/../lib/gcc/arm-none-eabi/4.9.3/../../../../arm-none-eabi/lib/armv7-m/libm.a(lib_a-wf_pow.o)
__fixsfsi                                         /usr/bin/../lib/gcc/arm-none-eabi/4.9.3/armv7-m/libgcc.a(_arm_fixsfsi.o)
__fixunssfsi                                      /usr/bin/../lib/gcc/arm-none-eabi/4.9.3/armv7-m/libgcc.a(_arm_fixunssfsi.o)
__floatdidf                                       /usr/bin/../lib/gcc/arm-none-eabi/4.9.3/armv7-m/libgcc.a(_arm_addsubdf3.o)
__floatdisf                                       /usr/bin/../lib/gcc/arm-none-eabi/4.9.3/armv7-m/libgcc.a(_arm_addsubsf3.o)
__floatsidf                                       /usr/bin/../lib/gcc/arm-none-eabi/4.9.3/armv7-m/libgcc.a(_arm_addsubdf3.o)
__floatsisf                                       /usr/bin/../lib/gcc/arm-none-eabi/4.9.3/armv7-m/libgcc.a(_arm_addsubsf3.o)
__floatundidf                                     /usr/bin/../lib/gcc/arm-none-eabi/4.9.3/armv7-m/libgcc.a(_arm_addsubdf3.o)
__floatundisf                                     /usr/bin/../lib/gcc/arm-none-eabi/4.9.3/armv7-m/libgcc.a(_arm_addsubsf3.o)
__floatunsidf                                     /usr/bin/../lib/gcc/arm-none-eabi/4.9.3/armv7-m/libgcc.a(_arm_addsubdf3.o)
__floatunsisf                                     /usr/bin/../lib/gcc/arm-none-eabi/4.9.3/armv7-m/libgcc.a(_arm_addsubsf3.o)
__fpclassifyf                                     /usr/bin/../lib/gcc/arm-none-eabi/4.9.3/../../../../arm-none-eabi/lib/armv7-m/libm.a(lib_a-sf_fpclassify.o)
                                                  /usr/bin/../lib/gcc/arm-none-eabi/4.9.3/../../../../arm-none-eabi/lib/armv7-m/libm.a(lib_a-wf_sqrt.o)
                                                  /usr/bin/../lib/gcc/arm-none-eabi/4.9.3/../../../../arm-none-eabi/lib/armv7-m/libm.a(lib_a-wf_pow.o)
                                                  /tmp/ccELukx5.ltrans7.ltrans.o
                                                  obj/main/NAZE/flight/imu.o (symbol from plugin)
__gedf2                                           /usr/bin/../lib/gcc/arm-none-eabi/4.9.3/armv7-m/libgcc.a(_arm_cmpdf2.o)
__gesf2                                           /usr/bin/../lib/gcc/arm-none-eabi/4.9.3/armv7-m/libgcc.a(_arm_cmpsf2.o)
__gnu_ldivmod_helper                              /usr/bin/../lib/gcc/arm-none-eabi/4.9.3/armv7-m/libgcc.a(bpabi.o)
                                                  /usr/bin/../lib/gcc/arm-none-eabi/4.9.3/armv7-m/libgcc.a(_aeabi_ldivmod.o)
__gnu_uldivmod_helper                             /usr/bin/../lib/gcc/arm-none-eabi/4.9.3/armv7-m/libgcc.a(bpabi.o)
                                                  /usr/bin/../lib/gcc/arm-none-eabi/4.9.3/armv7-m/libgcc.a(_aeabi_uldivmod.o)
__gtdf2                                           /usr/bin/../lib/gcc/arm-none-eabi/4.9.3/armv7-m/libgcc.a(_arm_cmpdf2.o)
__gtsf2                                           /usr/bin/../lib/gcc/arm-none-eabi/4.9.3/armv7-m/libgcc.a(_arm_cmpsf2.o)
__ieee754_powf                                    /usr/bin/../lib/gcc/arm-none-eabi/4.9.3/../../../../arm-none-eabi/lib/armv7-m/libm.a(lib_a-ef_pow.o)
                                                  /usr/bin/../lib/gcc/arm-none-eabi/4.9.3/../../../../arm-none-eabi/lib/armv7-m/libm.a(lib_a-wf_pow.o)
__ieee754_sqrtf                                   /usr/bin/../lib/gcc/arm-none-eabi/4.9.3/../../../../arm-none-eabi/lib/armv7-m/libm.a(lib_a-ef_sqrt.o)
                                                  /usr/bin/../lib/gcc/arm-none-eabi/4.9.3/../../../../arm-none-eabi/lib/armv7-m/libm.a(lib_a-ef_pow.o)
                                                  /usr/bin/../lib/gcc/arm-none-eabi/4.9.3/../../../../arm-none-eabi/lib/armv7-m/libm.a(lib_a-wf_sqrt.o)
__ledf2                                           /usr/bin/../lib/gcc/arm-none-eabi/4.9.3/armv7-m/libgcc.a(_arm_cmpdf2.o)
__lesf2                                           /usr/bin/../lib/gcc/arm-none-eabi/4.9.3/armv7-m/libgcc.a(_arm_cmpsf2.o)
__ltdf2                                           /usr/bin/../lib/gcc/arm-none-eabi/4.9.3/armv7-m/libgcc.a(_arm_cmpdf2.o)
__ltsf2                                           /usr/bin/../lib/gcc/arm-none-eabi/4.9.3/armv7-m/libgcc.a(_arm_cmpsf2.o)
__malloc_free_list                                /usr/bin/../lib/gcc/arm-none-eabi/4.9.3/../../../../arm-none-eabi/lib/armv7-m/libc_nano.a(lib_a-nano-mallocr.o)
                                                  /usr/bin/../lib/gcc/arm-none-eabi/4.9.3/../../../../arm-none-eabi/lib/armv7-m/libc_nano.a(lib_a-nano-freer.o)
__malloc_sbrk_start                               /usr/bin/../lib/gcc/arm-none-eabi/4.9.3/../../../../arm-none-eabi/lib/armv7-m/libc_nano.a(lib_a-nano-mallocr.o)
__muldf3                                          /usr/bin/../lib/gcc/arm-none-eabi/4.9.3/armv7-m/libgcc.a(_arm_muldivdf3.o)
__mulsf3                                          /usr/bin/../lib/gcc/arm-none-eabi/4.9.3/armv7-m/libgcc.a(_arm_muldivsf3.o)
__nedf2                                           /usr/bin/../lib/gcc/arm-none-eabi/4.9.3/armv7-m/libgcc.a(_arm_cmpdf2.o)
__nesf2                                           /usr/bin/../lib/gcc/arm-none-eabi/4.9.3/armv7-m/libgcc.a(_arm_cmpsf2.o)
__pg_registry_end                                 /tmp/ccELukx5.ltrans21.ltrans.o
                                                  /tmp/ccELukx5.ltrans15.ltrans.o
                                                  /tmp/ccELukx5.ltrans8.ltrans.o
                                                  obj/main/NAZE/fc/cli.o (symbol from plugin)
                                                  obj/main/NAZE/config/parameter_group.o (symbol from plugin)
                                                  obj/main/NAZE/config/config_eeprom.o (symbol from plugin)
__pg_registry_start                               /tmp/ccELukx5.ltrans21.ltrans.o
                                                  /tmp/ccELukx5.ltrans15.ltrans.o
                                                  /tmp/ccELukx5.ltrans8.ltrans.o
                                                  obj/main/NAZE/fc/cli.o (symbol from plugin)
                                                  obj/main/NAZE/config/parameter_group.o (symbol from plugin)
                                                  obj/main/NAZE/config/config_eeprom.o (symbol from plugin)
__pg_resetdata_end                                /tmp/ccELukx5.ltrans8.ltrans.o
                                                  obj/main/NAZE/config/parameter_group.o (symbol from plugin)
__pg_resetdata_start                              /tmp/ccELukx5.ltrans8.ltrans.o
                                                  obj/main/NAZE/config/parameter_group.o (symbol from plugin)
__popcountsi2                                     /usr/bin/../lib/gcc/arm-none-eabi/4.9.3/armv7-m/libgcc.a(_popcountsi2.o)
                                                  /tmp/ccELukx5.ltrans8.ltrans.o
__sf_fake_stderr                                  /usr/bin/../lib/gcc/arm-none-eabi/4.9.3/../../../../arm-none-eabi/lib/armv7-m/libc_nano.a(lib_a-impure.o)
__sf_fake_stdin                                   /usr/bin/../lib/gcc/arm-none-eabi/4.9.3/../../../../arm-none-eabi/lib/armv7-m/libc_nano.a(lib_a-impure.o)
__sf_fake_stdout                                  /usr/bin/../lib/gcc/arm-none-eabi/4.9.3/../../../../arm-none-eabi/lib/armv7-m/libc_nano.a(lib_a-impure.o)
__strtok_r                                        /usr/bin/../lib/gcc/arm-none-eabi/4.9.3/../../../../arm-none-eabi/lib/armv7-m/libc_nano.a(lib_a-strtok_r.o)
                                                  /usr/bin/../lib/gcc/arm-none-eabi/4.9.3/../../../../arm-none-eabi/lib/armv7-m/libc_nano.a(lib_a-strtok.o)
__subdf3                                          /usr/bin/../lib/gcc/arm-none-eabi/4.9.3/armv7-m/libgcc.a(_arm_addsubdf3.o)
__subsf3                                          /usr/bin/../lib/gcc/arm-none-eabi/4.9.3/armv7-m/libgcc.a(_arm_addsubsf3.o)
__truncdfsf2                                      /usr/bin/../lib/gcc/arm-none-eabi/4.9.3/armv7-m/libgcc.a(_arm_truncdfsf2.o)
__udivdi3                                         /usr/bin/../lib/gcc/arm-none-eabi/4.9.3/armv7-m/libgcc.a(_udivdi3.o)
                                                  /usr/bin/../lib/gcc/arm-none-eabi/4.9.3/armv7-m/libgcc.a(bpabi.o)
_ebss                                             obj/main/NAZE/startup_stm32f10x_md_gcc.o
_edata                                            obj/main/NAZE/startup_stm32f10x_md_gcc.o
_estack                                           /tmp/ccELukx5.ltrans17.ltrans.o
                                                  obj/main/NAZE/drivers/stack_check.o (symbol from plugin)
                                                  obj/main/NAZE/startup_stm32f10x_md_gcc.o
_free_r                                           /usr/bin/../lib/gcc/arm-none-eabi/4.9.3/../../../../arm-none-eabi/lib/armv7-m/libc_nano.a(lib_a-nano-freer.o)
                                                  /usr/bin/../lib/gcc/arm-none-eabi/4.9.3/../../../../arm-none-eabi/lib/armv7-m/libc_nano.a(lib_a-reent.o)
                                                  /usr/bin/../lib/gcc/arm-none-eabi/4.9.3/../../../../arm-none-eabi/lib/armv7-m/libc_nano.a(lib_a-malloc.o)
_global_impure_ptr                                /usr/bin/../lib/gcc/arm-none-eabi/4.9.3/../../../../arm-none-eabi/lib/armv7-m/libc_nano.a(lib_a-impure.o)
_heap_stack_begin                                 obj/main/NAZE/startup_stm32f10x_md_gcc.o
_heap_stack_end                                   obj/main/NAZE/startup_stm32f10x_md_gcc.o
_impure_ptr                                       /usr/bin/../lib/gcc/arm-none-eabi/4.9.3/../../../../arm-none-eabi/lib/armv7-m/libc_nano.a(lib_a-impure.o)
                                                  /usr/bin/../lib/gcc/arm-none-eabi/4.9.3/../../../../arm-none-eabi/lib/armv7-m/libc_nano.a(lib_a-errno.o)
                                                  /usr/bin/../lib/gcc/arm-none-eabi/4.9.3/../../../../arm-none-eabi/lib/armv7-m/libc_nano.a(lib_a-reent.o)
                                                  /usr/bin/../lib/gcc/arm-none-eabi/4.9.3/../../../../arm-none-eabi/lib/armv7-m/libc_nano.a(lib_a-malloc.o)
                                                  /usr/bin/../lib/gcc/arm-none-eabi/4.9.3/../../../../arm-none-eabi/lib/armv7-m/libc_nano.a(lib_a-strtok.o)
_malloc_r                                         /usr/bin/../lib/gcc/arm-none-eabi/4.9.3/../../../../arm-none-eabi/lib/armv7-m/libc_nano.a(lib_a-nano-mallocr.o)
                                                  /usr/bin/../lib/gcc/arm-none-eabi/4.9.3/../../../../arm-none-eabi/lib/armv7-m/libc_nano.a(lib_a-malloc.o)
_putc.lto_priv.428                                /tmp/ccELukx5.ltrans22.ltrans.o
                                                  /tmp/ccELukx5.ltrans0.ltrans.o
_reclaim_reent                                    /usr/bin/../lib/gcc/arm-none-eabi/4.9.3/../../../../arm-none-eabi/lib/armv7-m/libc_nano.a(lib_a-reent.o)
_sbrk                                             /usr/bin/../lib/gcc/arm-none-eabi/4.9.3/../../../../arm-none-eabi/lib/armv7-m/libnosys.a(sbrk.o)
                                                  /usr/bin/../lib/gcc/arm-none-eabi/4.9.3/../../../../arm-none-eabi/lib/armv7-m/libc_nano.a(lib_a-sbrkr.o)
_sbrk_r                                           /usr/bin/../lib/gcc/arm-none-eabi/4.9.3/../../../../arm-none-eabi/lib/armv7-m/libc_nano.a(lib_a-sbrkr.o)
                                                  /usr/bin/../lib/gcc/arm-none-eabi/4.9.3/../../../../arm-none-eabi/lib/armv7-m/libc_nano.a(lib_a-nano-mallocr.o)
_sbss                                             obj/main/NAZE/startup_stm32f10x_md_gcc.o
_sdata                                            obj/main/NAZE/startup_stm32f10x_md_gcc.o
_sidata                                           obj/main/NAZE/startup_stm32f10x_md_gcc.o
_update_checksum                                  obj/main/NAZE/io/gps_ublox.o (symbol from plugin)
a2d                                               /tmp/ccELukx5.ltrans22.ltrans.o
                                                  obj/main/NAZE/common/typeconversion.o (symbol from plugin)
                                                  /tmp/ccELukx5.ltrans8.ltrans.o
a2i                                               obj/main/NAZE/common/typeconversion.o (symbol from plugin)
                                                  obj/main/NAZE/common/printf.o (symbol from plugin)
abortForcedRTH                                    obj/main/NAZE/navigation/navigation.o (symbol from plugin)
                                                  obj/main/NAZE/flight/failsafe.o (symbol from plugin)
acc                                               /tmp/ccELukx5.ltrans18.ltrans.o
                                                  obj/main/NAZE/sensors/acceleration.o (symbol from plugin)
                                                  /tmp/ccELukx5.ltrans17.ltrans.o
                                                  /tmp/ccELukx5.ltrans10.ltrans.o
                                                  /tmp/ccELukx5.ltrans7.ltrans.o
                                                  /tmp/ccELukx5.ltrans6.ltrans.o
                                                  /tmp/ccELukx5.ltrans3.ltrans.o
                                                  /tmp/ccELukx5.ltrans1.ltrans.o
                                                  /tmp/ccELukx5.ltrans0.ltrans.o
                                                  obj/main/NAZE/flight/imu.o (symbol from plugin)
                                                  obj/main/NAZE/fc/fc_msp.o (symbol from plugin)
                                                  obj/main/NAZE/fc/cli.o (symbol from plugin)
                                                  obj/main/NAZE/telemetry/frsky.o (symbol from plugin)
                                                  obj/main/NAZE/blackbox/blackbox.o (symbol from plugin)
accFilter.lto_priv.273                            /tmp/ccELukx5.ltrans18.ltrans.o
                                                  /tmp/ccELukx5.ltrans1.ltrans.o
accGetCalibrationAxisFlags                        obj/main/NAZE/sensors/acceleration.o (symbol from plugin)
                                                  obj/main/NAZE/fc/fc_msp.o (symbol from plugin)
accGetCalibrationAxisStatus                       obj/main/NAZE/sensors/acceleration.o (symbol from plugin)
accInit                                           obj/main/NAZE/sensors/acceleration.o (symbol from plugin)
                                                  obj/main/NAZE/sensors/initialisation.o (symbol from plugin)
accInitFilters                                    /tmp/ccELukx5.ltrans18.ltrans.o
                                                  obj/main/NAZE/sensors/acceleration.o (symbol from plugin)
                                                  /tmp/ccELukx5.ltrans21.ltrans.o
                                                  /tmp/ccELukx5.ltrans0.ltrans.o
                                                  obj/main/NAZE/fc/config.o (symbol from plugin)
accIsCalibrationComplete                          obj/main/NAZE/sensors/acceleration.o (symbol from plugin)
                                                  obj/main/NAZE/fc/fc_core.o (symbol from plugin)
accIsHealthy                                      obj/main/NAZE/sensors/acceleration.o (symbol from plugin)
                                                  obj/main/NAZE/sensors/diagnostics.o (symbol from plugin)
accSetCalibrationCycles                           obj/main/NAZE/sensors/acceleration.o (symbol from plugin)
                                                  obj/main/NAZE/fc/rc_controls.o (symbol from plugin)
                                                  obj/main/NAZE/fc/fc_msp.o (symbol from plugin)
accSetCalibrationValues                           obj/main/NAZE/sensors/acceleration.o (symbol from plugin)
                                                  obj/main/NAZE/fc/config.o (symbol from plugin)
accUpdate                                         obj/main/NAZE/sensors/acceleration.o (symbol from plugin)
                                                  obj/main/NAZE/flight/imu.o (symbol from plugin)
accelerometerConfig_Copy                          obj/main/NAZE/sensors/acceleration.o (symbol from plugin)
accelerometerConfig_Registry                      /tmp/ccELukx5.ltrans18.ltrans.o
                                                  obj/main/NAZE/sensors/acceleration.o (symbol from plugin)
accelerometerConfig_System                        /tmp/ccELukx5.ltrans18.ltrans.o
                                                  obj/main/NAZE/sensors/acceleration.o (symbol from plugin)
                                                  /tmp/ccELukx5.ltrans21.ltrans.o
                                                  /tmp/ccELukx5.ltrans6.ltrans.o
                                                  /tmp/ccELukx5.ltrans3.ltrans.o
                                                  /tmp/ccELukx5.ltrans2.ltrans.o
                                                  /tmp/ccELukx5.ltrans1.ltrans.o
                                                  /tmp/ccELukx5.ltrans0.ltrans.o
                                                  obj/main/NAZE/sensors/initialisation.o (symbol from plugin)
                                                  obj/main/NAZE/fc/fc_msp.o (symbol from plugin)
                                                  obj/main/NAZE/blackbox/blackbox.o (symbol from plugin)
acos_approx                                       obj/main/NAZE/common/maths.o (symbol from plugin)
                                                  obj/main/NAZE/flight/imu.o (symbol from plugin)
activateControlRateConfig                         obj/main/NAZE/fc/controlrate_profile.o (symbol from plugin)
                                                  obj/main/NAZE/fc/config.o (symbol from plugin)
activateForcedRTH                                 obj/main/NAZE/navigation/navigation.o (symbol from plugin)
                                                  obj/main/NAZE/flight/failsafe.o (symbol from plugin)
activeBoxIdCount.lto_priv.187                     /tmp/ccELukx5.ltrans3.ltrans.o
                                                  /tmp/ccELukx5.ltrans29.ltrans.o
                                                  /tmp/ccELukx5.ltrans0.ltrans.o
activeBoxIds.lto_priv.186                         /tmp/ccELukx5.ltrans3.ltrans.o
                                                  /tmp/ccELukx5.ltrans29.ltrans.o
                                                  /tmp/ccELukx5.ltrans0.ltrans.o
activeFeaturesLatch.lto_priv.148                  /tmp/ccELukx5.ltrans18.ltrans.o
                                                  /tmp/ccELukx5.ltrans30.ltrans.o
                                                  /tmp/ccELukx5.ltrans27.ltrans.o
                                                  /tmp/ccELukx5.ltrans23.ltrans.o
                                                  /tmp/ccELukx5.ltrans15.ltrans.o
                                                  /tmp/ccELukx5.ltrans10.ltrans.o
                                                  /tmp/ccELukx5.ltrans9.ltrans.o
                                                  /tmp/ccELukx5.ltrans7.ltrans.o
                                                  /tmp/ccELukx5.ltrans6.ltrans.o
                                                  /tmp/ccELukx5.ltrans4.ltrans.o
                                                  /tmp/ccELukx5.ltrans1.ltrans.o
                                                  /tmp/ccELukx5.ltrans0.ltrans.o
adcChannelConfig_Copy                             obj/main/NAZE/fc/config.o (symbol from plugin)
adcChannelConfig_Registry                         /tmp/ccELukx5.ltrans5.ltrans.o
                                                  obj/main/NAZE/fc/config.o (symbol from plugin)
adcChannelConfig_System                           obj/main/NAZE/fc/config.o (symbol from plugin)
adcGetChannel                                     obj/main/NAZE/drivers/adc.o (symbol from plugin)
                                                  obj/main/NAZE/sensors/battery.o (symbol from plugin)
addBootlogEvent2                                  obj/main/NAZE/drivers/logging.o (symbol from plugin)
                                                  obj/main/NAZE/sensors/compass.o (symbol from plugin)
                                                  obj/main/NAZE/fc/fc_init.o (symbol from plugin)
addBootlogEvent4                                  obj/main/NAZE/drivers/logging.o (symbol from plugin)
                                                  obj/main/NAZE/drivers/compass/compass_hmc5883l.o (symbol from plugin)
addBootlogEvent6                                  obj/main/NAZE/drivers/logging.o (symbol from plugin)
                                                  obj/main/NAZE/sensors/gyro.o (symbol from plugin)
                                                  obj/main/NAZE/sensors/compass.o (symbol from plugin)
                                                  obj/main/NAZE/sensors/acceleration.o (symbol from plugin)
                                                  obj/main/NAZE/drivers/pwm_mapping.o (symbol from plugin)
                                                  obj/main/NAZE/sensors/barometer.o (symbol from plugin)
adjustFixedWingAltitudeFromRCInput                obj/main/NAZE/navigation/navigation_fixedwing.o (symbol from plugin)
                                                  obj/main/NAZE/navigation/navigation.o (symbol from plugin)
adjustFixedWingHeadingFromRCInput                 obj/main/NAZE/navigation/navigation_fixedwing.o (symbol from plugin)
                                                  obj/main/NAZE/navigation/navigation.o (symbol from plugin)
adjustFixedWingPositionFromRCInput                obj/main/NAZE/navigation/navigation_fixedwing.o (symbol from plugin)
                                                  obj/main/NAZE/navigation/navigation.o (symbol from plugin)
adjustMulticopterAltitudeFromRCInput              obj/main/NAZE/navigation/navigation_multicopter.o (symbol from plugin)
                                                  obj/main/NAZE/navigation/navigation.o (symbol from plugin)
adjustMulticopterHeadingFromRCInput               obj/main/NAZE/navigation/navigation_multicopter.o (symbol from plugin)
                                                  obj/main/NAZE/navigation/navigation.o (symbol from plugin)
adjustMulticopterPositionFromRCInput              obj/main/NAZE/navigation/navigation_multicopter.o (symbol from plugin)
                                                  obj/main/NAZE/navigation/navigation.o (symbol from plugin)
adjustmentRanges_CopyArray                        /tmp/ccELukx5.ltrans3.ltrans.o
                                                  obj/main/NAZE/fc/rc_adjustments.o (symbol from plugin)
                                                  /tmp/ccELukx5.ltrans21.ltrans.o
                                                  obj/main/NAZE/fc/cli.o (symbol from plugin)
adjustmentRanges_Registry                         /tmp/ccELukx5.ltrans3.ltrans.o
                                                  obj/main/NAZE/fc/rc_adjustments.o (symbol from plugin)
adjustmentRanges_SystemArray                      /tmp/ccELukx5.ltrans3.ltrans.o
                                                  obj/main/NAZE/fc/rc_adjustments.o (symbol from plugin)
                                                  /tmp/ccELukx5.ltrans21.ltrans.o
                                                  /tmp/ccELukx5.ltrans16.ltrans.o
                                                  /tmp/ccELukx5.ltrans4.ltrans.o
                                                  /tmp/ccELukx5.ltrans2.ltrans.o
                                                  obj/main/NAZE/fc/fc_msp.o (symbol from plugin)
                                                  obj/main/NAZE/fc/cli.o (symbol from plugin)
adjustmentStates.lto_priv.309                     /tmp/ccELukx5.ltrans4.ltrans.o
                                                  /tmp/ccELukx5.ltrans21.ltrans.o
alignSensors                                      /tmp/ccELukx5.ltrans18.ltrans.o
                                                  obj/main/NAZE/sensors/boardalignment.o (symbol from plugin)
                                                  /tmp/ccELukx5.ltrans27.ltrans.o
                                                  /tmp/ccELukx5.ltrans1.ltrans.o
                                                  obj/main/NAZE/sensors/gyro.o (symbol from plugin)
                                                  obj/main/NAZE/sensors/compass.o (symbol from plugin)
                                                  obj/main/NAZE/sensors/acceleration.o (symbol from plugin)
altHoldThrottleRCZero.lto_priv.449                /tmp/ccELukx5.ltrans1.ltrans.o
                                                  /tmp/ccELukx5.ltrans13.ltrans.o
amperage                                          /tmp/ccELukx5.ltrans3.ltrans.o
                                                  obj/main/NAZE/sensors/battery.o (symbol from plugin)
                                                  /tmp/ccELukx5.ltrans27.ltrans.o
                                                  /tmp/ccELukx5.ltrans10.ltrans.o
                                                  obj/main/NAZE/fc/fc_msp.o (symbol from plugin)
                                                  obj/main/NAZE/telemetry/frsky.o (symbol from plugin)
amperageLatestADC                                 /tmp/ccELukx5.ltrans27.ltrans.o
                                                  obj/main/NAZE/sensors/battery.o (symbol from plugin)
                                                  /tmp/ccELukx5.ltrans6.ltrans.o
                                                  obj/main/NAZE/blackbox/blackbox.o (symbol from plugin)
annexCode                                         obj/main/NAZE/fc/fc_core.o (symbol from plugin)
applyAndSaveBoardAlignmentDelta                   /tmp/ccELukx5.ltrans21.ltrans.o
                                                  obj/main/NAZE/fc/config.o (symbol from plugin)
                                                  /tmp/ccELukx5.ltrans4.ltrans.o
                                                  obj/main/NAZE/fc/rc_controls.o (symbol from plugin)
applyChangedBits                                  obj/main/NAZE/drivers/serial_softserial.o (symbol from plugin)
applyDeadband                                     /tmp/ccELukx5.ltrans22.ltrans.o
                                                  obj/main/NAZE/common/maths.o (symbol from plugin)
                                                  /tmp/ccELukx5.ltrans15.ltrans.o
                                                  /tmp/ccELukx5.ltrans13.ltrans.o
                                                  /tmp/ccELukx5.ltrans1.ltrans.o
                                                  obj/main/NAZE/fc/fc_core.o (symbol from plugin)
                                                  obj/main/NAZE/navigation/navigation_multicopter.o (symbol from plugin)
                                                  obj/main/NAZE/navigation/navigation_fixedwing.o (symbol from plugin)
applyFixedWingAltitudeAndThrottleController       obj/main/NAZE/navigation/navigation_fixedwing.o (symbol from plugin)
applyFixedWingEmergencyLandingController          obj/main/NAZE/navigation/navigation_fixedwing.o (symbol from plugin)
applyFixedWingLaunchController                    obj/main/NAZE/navigation/navigation_fw_launch.o (symbol from plugin)
                                                  obj/main/NAZE/navigation/navigation_fixedwing.o (symbol from plugin)
applyFixedWingLaunchIdleLogic.lto_priv.451        /tmp/ccELukx5.ltrans28.ltrans.o
                                                  /tmp/ccELukx5.ltrans13.ltrans.o
applyFixedWingMinSpeedController                  obj/main/NAZE/navigation/navigation_fixedwing.o (symbol from plugin)
applyFixedWingNavigationController                /tmp/ccELukx5.ltrans13.ltrans.o
                                                  obj/main/NAZE/navigation/navigation_fixedwing.o (symbol from plugin)
                                                  /tmp/ccELukx5.ltrans1.ltrans.o
                                                  obj/main/NAZE/navigation/navigation.o (symbol from plugin)
applyFixedWingPitchRollThrottleController         obj/main/NAZE/navigation/navigation_fixedwing.o (symbol from plugin)
applyFixedWingPositionController                  obj/main/NAZE/navigation/navigation_fixedwing.o (symbol from plugin)
applyMulticopterNavigationController              obj/main/NAZE/navigation/navigation_multicopter.o (symbol from plugin)
                                                  obj/main/NAZE/navigation/navigation.o (symbol from plugin)
applyWaypointNavigationAndAltitudeHold            obj/main/NAZE/navigation/navigation.o (symbol from plugin)
                                                  obj/main/NAZE/fc/fc_core.o (symbol from plugin)
areSticksInApModePosition                         obj/main/NAZE/fc/rc_controls.o (symbol from plugin)
armingBeepTimeMicros.lto_priv.293                 /tmp/ccELukx5.ltrans9.ltrans.o
                                                  /tmp/ccELukx5.ltrans23.ltrans.o
                                                  /tmp/ccELukx5.ltrans15.ltrans.o
armingConfig_Copy                                 obj/main/NAZE/fc/rc_controls.o (symbol from plugin)
armingConfig_Registry                             /tmp/ccELukx5.ltrans3.ltrans.o
                                                  obj/main/NAZE/fc/rc_controls.o (symbol from plugin)
armingConfig_System                               /tmp/ccELukx5.ltrans3.ltrans.o
                                                  obj/main/NAZE/fc/rc_controls.o (symbol from plugin)
                                                  /tmp/ccELukx5.ltrans15.ltrans.o
                                                  /tmp/ccELukx5.ltrans4.ltrans.o
                                                  /tmp/ccELukx5.ltrans2.ltrans.o
                                                  obj/main/NAZE/fc/fc_msp.o (symbol from plugin)
                                                  obj/main/NAZE/fc/fc_core.o (symbol from plugin)
armingFlags                                       /tmp/ccELukx5.ltrans7.ltrans.o
                                                  obj/main/NAZE/fc/runtime_config.o (symbol from plugin)
                                                  /tmp/ccELukx5.ltrans29.ltrans.o
                                                  /tmp/ccELukx5.ltrans27.ltrans.o
                                                  /tmp/ccELukx5.ltrans25.ltrans.o
                                                  /tmp/ccELukx5.ltrans15.ltrans.o
                                                  /tmp/ccELukx5.ltrans13.ltrans.o
                                                  /tmp/ccELukx5.ltrans12.ltrans.o
                                                  /tmp/ccELukx5.ltrans11.ltrans.o
                                                  /tmp/ccELukx5.ltrans10.ltrans.o
                                                  /tmp/ccELukx5.ltrans4.ltrans.o
                                                  /tmp/ccELukx5.ltrans3.ltrans.o
                                                  /tmp/ccELukx5.ltrans2.ltrans.o
                                                  /tmp/ccELukx5.ltrans1.ltrans.o
                                                  obj/main/NAZE/sensors/battery.o (symbol from plugin)
                                                  obj/main/NAZE/flight/servos.o (symbol from plugin)
                                                  obj/main/NAZE/flight/mixer.o (symbol from plugin)
                                                  obj/main/NAZE/flight/imu.o (symbol from plugin)
                                                  obj/main/NAZE/flight/failsafe.o (symbol from plugin)
                                                  obj/main/NAZE/fc/rc_controls.o (symbol from plugin)
                                                  obj/main/NAZE/fc/fc_msp.o (symbol from plugin)
                                                  obj/main/NAZE/fc/fc_tasks.o (symbol from plugin)
                                                  obj/main/NAZE/fc/fc_core.o (symbol from plugin)
                                                  obj/main/NAZE/fc/cli.o (symbol from plugin)
                                                  obj/main/NAZE/telemetry/telemetry.o (symbol from plugin)
                                                  obj/main/NAZE/telemetry/ltm.o (symbol from plugin)
                                                  obj/main/NAZE/telemetry/frsky.o (symbol from plugin)
                                                  obj/main/NAZE/navigation/navigation_pos_estimator.o (symbol from plugin)
                                                  obj/main/NAZE/navigation/navigation.o (symbol from plugin)
arraySubInt32                                     obj/main/NAZE/common/maths.o (symbol from plugin)
                                                  obj/main/NAZE/blackbox/blackbox.o (symbol from plugin)
arraySubInt32.constprop.82                        /tmp/ccELukx5.ltrans24.ltrans.o
                                                  /tmp/ccELukx5.ltrans23.ltrans.o
atan2_approx                                      /tmp/ccELukx5.ltrans22.ltrans.o
                                                  obj/main/NAZE/common/maths.o (symbol from plugin)
                                                  /tmp/ccELukx5.ltrans25.ltrans.o
                                                  /tmp/ccELukx5.ltrans13.ltrans.o
                                                  /tmp/ccELukx5.ltrans7.ltrans.o
                                                  /tmp/ccELukx5.ltrans1.ltrans.o
                                                  obj/main/NAZE/flight/imu.o (symbol from plugin)
                                                  obj/main/NAZE/navigation/navigation_multicopter.o (symbol from plugin)
                                                  obj/main/NAZE/navigation/navigation_fixedwing.o (symbol from plugin)
                                                  obj/main/NAZE/navigation/navigation.o (symbol from plugin)
attitude                                          /tmp/ccELukx5.ltrans9.ltrans.o
                                                  obj/main/NAZE/flight/imu.o (symbol from plugin)
                                                  /tmp/ccELukx5.ltrans15.ltrans.o
                                                  /tmp/ccELukx5.ltrans10.ltrans.o
                                                  /tmp/ccELukx5.ltrans7.ltrans.o
                                                  /tmp/ccELukx5.ltrans6.ltrans.o
                                                  /tmp/ccELukx5.ltrans4.ltrans.o
                                                  /tmp/ccELukx5.ltrans3.ltrans.o
                                                  /tmp/ccELukx5.ltrans1.ltrans.o
                                                  obj/main/NAZE/flight/servos.o (symbol from plugin)
                                                  obj/main/NAZE/flight/pid.o (symbol from plugin)
                                                  obj/main/NAZE/fc/fc_msp.o (symbol from plugin)
                                                  obj/main/NAZE/fc/fc_core.o (symbol from plugin)
                                                  obj/main/NAZE/telemetry/ltm.o (symbol from plugin)
                                                  obj/main/NAZE/telemetry/frsky.o (symbol from plugin)
                                                  obj/main/NAZE/navigation/navigation_pos_estimator.o (symbol from plugin)
                                                  obj/main/NAZE/blackbox/blackbox.o (symbol from plugin)
averageSystemLoadPercent                          /tmp/ccELukx5.ltrans18.ltrans.o
                                                  obj/main/NAZE/scheduler/scheduler.o (symbol from plugin)
                                                  /tmp/ccELukx5.ltrans17.ltrans.o
                                                  /tmp/ccELukx5.ltrans15.ltrans.o
                                                  /tmp/ccELukx5.ltrans3.ltrans.o
                                                  obj/main/NAZE/fc/fc_msp.o (symbol from plugin)
                                                  obj/main/NAZE/fc/fc_core.o (symbol from plugin)
                                                  obj/main/NAZE/fc/cli.o (symbol from plugin)
axisPID                                           /tmp/ccELukx5.ltrans9.ltrans.o
                                                  obj/main/NAZE/flight/pid.o (symbol from plugin)
                                                  /tmp/ccELukx5.ltrans1.ltrans.o
                                                  obj/main/NAZE/flight/servos.o (symbol from plugin)
                                                  obj/main/NAZE/flight/mixer.o (symbol from plugin)
axisPID_D                                         /tmp/ccELukx5.ltrans9.ltrans.o
                                                  obj/main/NAZE/flight/pid.o (symbol from plugin)
                                                  /tmp/ccELukx5.ltrans6.ltrans.o
                                                  obj/main/NAZE/blackbox/blackbox.o (symbol from plugin)
axisPID_I                                         /tmp/ccELukx5.ltrans9.ltrans.o
                                                  obj/main/NAZE/flight/pid.o (symbol from plugin)
                                                  /tmp/ccELukx5.ltrans6.ltrans.o
                                                  obj/main/NAZE/blackbox/blackbox.o (symbol from plugin)
axisPID_P                                         /tmp/ccELukx5.ltrans9.ltrans.o
                                                  obj/main/NAZE/flight/pid.o (symbol from plugin)
                                                  /tmp/ccELukx5.ltrans6.ltrans.o
                                                  obj/main/NAZE/blackbox/blackbox.o (symbol from plugin)
axisPID_Setpoint                                  /tmp/ccELukx5.ltrans9.ltrans.o
                                                  obj/main/NAZE/flight/pid.o (symbol from plugin)
                                                  /tmp/ccELukx5.ltrans6.ltrans.o
                                                  obj/main/NAZE/blackbox/blackbox.o (symbol from plugin)
baro                                              /tmp/ccELukx5.ltrans3.ltrans.o
                                                  obj/main/NAZE/sensors/barometer.o (symbol from plugin)
                                                  /tmp/ccELukx5.ltrans10.ltrans.o
                                                  /tmp/ccELukx5.ltrans6.ltrans.o
                                                  /tmp/ccELukx5.ltrans0.ltrans.o
                                                  obj/main/NAZE/telemetry/frsky.o (symbol from plugin)
                                                  obj/main/NAZE/blackbox/blackbox.o (symbol from plugin)
baroCalculateAltitude                             obj/main/NAZE/sensors/barometer.o (symbol from plugin)
                                                  obj/main/NAZE/navigation/navigation_pos_estimator.o (symbol from plugin)
baroCalibrationFinished.lto_priv.303              /tmp/ccELukx5.ltrans10.ltrans.o
                                                  /tmp/ccELukx5.ltrans15.ltrans.o
                                                  /tmp/ccELukx5.ltrans0.ltrans.o
baroCalibrationTimeout.lto_priv.363               /tmp/ccELukx5.ltrans10.ltrans.o
                                                  /tmp/ccELukx5.ltrans0.ltrans.o
baroDetect                                        obj/main/NAZE/sensors/barometer.o (symbol from plugin)
baroGetLatestAltitude                             obj/main/NAZE/sensors/barometer.o (symbol from plugin)
                                                  obj/main/NAZE/fc/fc_msp.o (symbol from plugin)
baroInit                                          obj/main/NAZE/sensors/barometer.o (symbol from plugin)
                                                  obj/main/NAZE/sensors/initialisation.o (symbol from plugin)
baroIsCalibrationComplete                         obj/main/NAZE/sensors/barometer.o (symbol from plugin)
                                                  obj/main/NAZE/fc/fc_core.o (symbol from plugin)
                                                  obj/main/NAZE/navigation/navigation_pos_estimator.o (symbol from plugin)
baroIsHealthy                                     obj/main/NAZE/sensors/barometer.o (symbol from plugin)
                                                  obj/main/NAZE/sensors/diagnostics.o (symbol from plugin)
baroStartCalibration                              obj/main/NAZE/sensors/barometer.o (symbol from plugin)
                                                  obj/main/NAZE/fc/fc_init.o (symbol from plugin)
baroUpdate                                        obj/main/NAZE/sensors/barometer.o (symbol from plugin)
                                                  obj/main/NAZE/fc/fc_tasks.o (symbol from plugin)
barometerConfig_Copy                              obj/main/NAZE/sensors/barometer.o (symbol from plugin)
barometerConfig_Registry                          /tmp/ccELukx5.ltrans3.ltrans.o
                                                  obj/main/NAZE/sensors/barometer.o (symbol from plugin)
barometerConfig_System                            /tmp/ccELukx5.ltrans3.ltrans.o
                                                  obj/main/NAZE/sensors/barometer.o (symbol from plugin)
                                                  /tmp/ccELukx5.ltrans10.ltrans.o
                                                  /tmp/ccELukx5.ltrans6.ltrans.o
                                                  /tmp/ccELukx5.ltrans2.ltrans.o
                                                  /tmp/ccELukx5.ltrans0.ltrans.o
                                                  obj/main/NAZE/sensors/initialisation.o (symbol from plugin)
                                                  obj/main/NAZE/fc/fc_msp.o (symbol from plugin)
                                                  obj/main/NAZE/blackbox/blackbox.o (symbol from plugin)
batteryAdcToVoltage                               obj/main/NAZE/sensors/battery.o (symbol from plugin)
batteryCellCount                                  /tmp/ccELukx5.ltrans9.ltrans.o
                                                  obj/main/NAZE/sensors/battery.o (symbol from plugin)
                                                  /tmp/ccELukx5.ltrans17.ltrans.o
                                                  /tmp/ccELukx5.ltrans10.ltrans.o
                                                  /tmp/ccELukx5.ltrans0.ltrans.o
                                                  obj/main/NAZE/io/beeper.o (symbol from plugin)
                                                  obj/main/NAZE/fc/cli.o (symbol from plugin)
                                                  obj/main/NAZE/telemetry/frsky.o (symbol from plugin)
batteryConfig_Copy                                obj/main/NAZE/sensors/battery.o (symbol from plugin)
batteryConfig_Registry                            /tmp/ccELukx5.ltrans3.ltrans.o
                                                  obj/main/NAZE/sensors/battery.o (symbol from plugin)
batteryConfig_System                              /tmp/ccELukx5.ltrans3.ltrans.o
                                                  obj/main/NAZE/sensors/battery.o (symbol from plugin)
                                                  /tmp/ccELukx5.ltrans27.ltrans.o
                                                  /tmp/ccELukx5.ltrans21.ltrans.o
                                                  /tmp/ccELukx5.ltrans15.ltrans.o
                                                  /tmp/ccELukx5.ltrans10.ltrans.o
                                                  /tmp/ccELukx5.ltrans6.ltrans.o
                                                  /tmp/ccELukx5.ltrans2.ltrans.o
                                                  /tmp/ccELukx5.ltrans0.ltrans.o
                                                  obj/main/NAZE/fc/fc_msp.o (symbol from plugin)
                                                  obj/main/NAZE/fc/fc_init.o (symbol from plugin)
                                                  obj/main/NAZE/fc/config.o (symbol from plugin)
                                                  obj/main/NAZE/telemetry/frsky.o (symbol from plugin)
                                                  obj/main/NAZE/blackbox/blackbox.o (symbol from plugin)
batteryCriticalVoltage                            obj/main/NAZE/sensors/battery.o (symbol from plugin)
batteryInit                                       obj/main/NAZE/sensors/battery.o (symbol from plugin)
                                                  obj/main/NAZE/fc/fc_init.o (symbol from plugin)
batteryState.lto_priv.362                         /tmp/ccELukx5.ltrans17.ltrans.o
                                                  /tmp/ccELukx5.ltrans0.ltrans.o
batteryUpdate                                     obj/main/NAZE/sensors/battery.o (symbol from plugin)
batteryWarningVoltage                             obj/main/NAZE/sensors/battery.o (symbol from plugin)
baudRates                                         /tmp/ccELukx5.ltrans18.ltrans.o
                                                  obj/main/NAZE/io/serial.o (symbol from plugin)
                                                  /tmp/ccELukx5.ltrans16.ltrans.o
                                                  /tmp/ccELukx5.ltrans15.ltrans.o
                                                  /tmp/ccELukx5.ltrans14.ltrans.o
                                                  /tmp/ccELukx5.ltrans12.ltrans.o
                                                  /tmp/ccELukx5.ltrans11.ltrans.o
                                                  /tmp/ccELukx5.ltrans0.ltrans.o
                                                  obj/main/NAZE/msp/msp_serial.o (symbol from plugin)
                                                  obj/main/NAZE/fc/cli.o (symbol from plugin)
                                                  obj/main/NAZE/telemetry/ltm.o (symbol from plugin)
                                                  obj/main/NAZE/io/gps_ublox.o (symbol from plugin)
                                                  obj/main/NAZE/io/gps.o (symbol from plugin)
                                                  obj/main/NAZE/blackbox/blackbox_io.o (symbol from plugin)
beep_2longerBeeps.lto_priv.322                    /tmp/ccELukx5.ltrans9.ltrans.o
beep_2shortBeeps.lto_priv.321                     /tmp/ccELukx5.ltrans9.ltrans.o
beep_armedBeep.lto_priv.325                       /tmp/ccELukx5.ltrans9.ltrans.o
beep_armedGpsFix.lto_priv.316                     /tmp/ccELukx5.ltrans9.ltrans.o
beep_armingBeep.lto_priv.315                      /tmp/ccELukx5.ltrans9.ltrans.o
beep_critBatteryBeep.lto_priv.317                 /tmp/ccELukx5.ltrans9.ltrans.o
beep_disarmBeep.lto_priv.314                      /tmp/ccELukx5.ltrans9.ltrans.o
beep_disarmRepeatBeep.lto_priv.324                /tmp/ccELukx5.ltrans9.ltrans.o
beep_hardwareFailure.lto_priv.311                 /tmp/ccELukx5.ltrans9.ltrans.o
beep_launchModeBeep.lto_priv.326                  /tmp/ccELukx5.ltrans9.ltrans.o
beep_lowBatteryBeep.lto_priv.318                  /tmp/ccELukx5.ltrans9.ltrans.o
beep_multiBeeps.lto_priv.319                      /tmp/ccELukx5.ltrans9.ltrans.o
beep_readyBeep.lto_priv.323                       /tmp/ccELukx5.ltrans9.ltrans.o
beep_runtimeCalibrationDone.lto_priv.310          /tmp/ccELukx5.ltrans9.ltrans.o
beep_shortBeep.lto_priv.320                       /tmp/ccELukx5.ltrans9.ltrans.o
beep_sos.lto_priv.313                             /tmp/ccELukx5.ltrans9.ltrans.o
beep_txLostBeep.lto_priv.312                      /tmp/ccELukx5.ltrans9.ltrans.o
beeper                                            /tmp/ccELukx5.ltrans9.ltrans.o
                                                  obj/main/NAZE/io/beeper.o (symbol from plugin)
                                                  /tmp/ccELukx5.ltrans27.ltrans.o
                                                  /tmp/ccELukx5.ltrans15.ltrans.o
                                                  /tmp/ccELukx5.ltrans13.ltrans.o
                                                  /tmp/ccELukx5.ltrans4.ltrans.o
                                                  /tmp/ccELukx5.ltrans1.ltrans.o
                                                  obj/main/NAZE/sensors/compass.o (symbol from plugin)
                                                  obj/main/NAZE/sensors/battery.o (symbol from plugin)
                                                  obj/main/NAZE/flight/failsafe.o (symbol from plugin)
                                                  obj/main/NAZE/fc/rc_controls.o (symbol from plugin)
                                                  obj/main/NAZE/fc/fc_core.o (symbol from plugin)
                                                  obj/main/NAZE/navigation/navigation_fw_launch.o (symbol from plugin)
                                                  obj/main/NAZE/navigation/navigation.o (symbol from plugin)
beeperConfig_Copy                                 /tmp/ccELukx5.ltrans9.ltrans.o
                                                  obj/main/NAZE/fc/config.o (symbol from plugin)
                                                  /tmp/ccELukx5.ltrans21.ltrans.o
                                                  obj/main/NAZE/fc/cli.o (symbol from plugin)
beeperConfig_Registry                             /tmp/ccELukx5.ltrans9.ltrans.o
                                                  obj/main/NAZE/fc/config.o (symbol from plugin)
beeperConfig_System                               /tmp/ccELukx5.ltrans9.ltrans.o
                                                  obj/main/NAZE/fc/config.o (symbol from plugin)
                                                  /tmp/ccELukx5.ltrans21.ltrans.o
                                                  /tmp/ccELukx5.ltrans17.ltrans.o
                                                  /tmp/ccELukx5.ltrans0.ltrans.o
                                                  obj/main/NAZE/fc/cli.o (symbol from plugin)
beeperConfirmationBeeps                           /tmp/ccELukx5.ltrans9.ltrans.o
                                                  obj/main/NAZE/io/beeper.o (symbol from plugin)
                                                  /tmp/ccELukx5.ltrans15.ltrans.o
                                                  /tmp/ccELukx5.ltrans7.ltrans.o
                                                  /tmp/ccELukx5.ltrans4.ltrans.o
                                                  /tmp/ccELukx5.ltrans1.ltrans.o
                                                  obj/main/NAZE/sensors/acceleration.o (symbol from plugin)
                                                  obj/main/NAZE/fc/runtime_config.o (symbol from plugin)
                                                  obj/main/NAZE/fc/rc_adjustments.o (symbol from plugin)
                                                  obj/main/NAZE/fc/fc_core.o (symbol from plugin)
                                                  obj/main/NAZE/fc/config.o (symbol from plugin)
beeperGpsStatus                                   obj/main/NAZE/io/beeper.o (symbol from plugin)
beeperIO.lto_priv.405                             /tmp/ccELukx5.ltrans19.ltrans.o
                                                  /tmp/ccELukx5.ltrans0.ltrans.o
beeperInit                                        obj/main/NAZE/drivers/sound_beeper.o (symbol from plugin)
                                                  obj/main/NAZE/fc/fc_init.o (symbol from plugin)
beeperInverted.lto_priv.406                       /tmp/ccELukx5.ltrans19.ltrans.o
                                                  /tmp/ccELukx5.ltrans0.ltrans.o
beeperModeForTableIndex                           obj/main/NAZE/io/beeper.o (symbol from plugin)
                                                  obj/main/NAZE/fc/cli.o (symbol from plugin)
beeperNameForTableIndex                           obj/main/NAZE/io/beeper.o (symbol from plugin)
                                                  obj/main/NAZE/fc/cli.o (symbol from plugin)
beeperOffClear                                    obj/main/NAZE/fc/config.o (symbol from plugin)
                                                  obj/main/NAZE/fc/cli.o (symbol from plugin)
beeperOffClearAll                                 obj/main/NAZE/fc/config.o (symbol from plugin)
                                                  obj/main/NAZE/fc/cli.o (symbol from plugin)
beeperOffSet                                      obj/main/NAZE/fc/config.o (symbol from plugin)
                                                  obj/main/NAZE/fc/cli.o (symbol from plugin)
beeperOffSetAll                                   obj/main/NAZE/fc/config.o (symbol from plugin)
                                                  obj/main/NAZE/fc/cli.o (symbol from plugin)
beeperSilence                                     /tmp/ccELukx5.ltrans9.ltrans.o
                                                  obj/main/NAZE/io/beeper.o (symbol from plugin)
                                                  /tmp/ccELukx5.ltrans4.ltrans.o
                                                  obj/main/NAZE/fc/fc_core.o (symbol from plugin)
beeperTable                                       /tmp/ccELukx5.ltrans9.ltrans.o
                                                  obj/main/NAZE/io/beeper.o (symbol from plugin)
                                                  /tmp/ccELukx5.ltrans21.ltrans.o
                                                  /tmp/ccELukx5.ltrans17.ltrans.o
beeperTableEntryCount                             obj/main/NAZE/io/beeper.o (symbol from plugin)
                                                  obj/main/NAZE/fc/cli.o (symbol from plugin)
beeperUpdate                                      /tmp/ccELukx5.ltrans9.ltrans.o
                                                  obj/main/NAZE/io/beeper.o (symbol from plugin)
                                                  /tmp/ccELukx5.ltrans18.ltrans.o
                                                  obj/main/NAZE/fc/fc_tasks.o (symbol from plugin)
bellCurve                                         obj/main/NAZE/common/maths.o (symbol from plugin)
biquadFilterApply                                 /tmp/ccELukx5.ltrans22.ltrans.o
                                                  obj/main/NAZE/common/filter.o (symbol from plugin)
                                                  /tmp/ccELukx5.ltrans1.ltrans.o
                                                  /tmp/ccELukx5.ltrans0.ltrans.o
                                                  obj/main/NAZE/sensors/gyro.o (symbol from plugin)
                                                  obj/main/NAZE/sensors/acceleration.o (symbol from plugin)
                                                  obj/main/NAZE/flight/servos.o (symbol from plugin)
                                                  obj/main/NAZE/fc/fc_core.o (symbol from plugin)
biquadFilterInit                                  obj/main/NAZE/common/filter.o (symbol from plugin)
biquadFilterInit.constprop.49                     /tmp/ccELukx5.ltrans24.ltrans.o
                                                  /tmp/ccELukx5.ltrans18.ltrans.o
                                                  /tmp/ccELukx5.ltrans1.ltrans.o
                                                  /tmp/ccELukx5.ltrans0.ltrans.o
biquadFilterInitLPF                               obj/main/NAZE/common/filter.o (symbol from plugin)
                                                  obj/main/NAZE/sensors/gyro.o (symbol from plugin)
                                                  obj/main/NAZE/sensors/acceleration.o (symbol from plugin)
                                                  obj/main/NAZE/flight/servos.o (symbol from plugin)
                                                  obj/main/NAZE/fc/fc_core.o (symbol from plugin)
biquadFilterInitNotch                             obj/main/NAZE/common/filter.o (symbol from plugin)
bitArrayClr                                       obj/main/NAZE/common/bitarray.o (symbol from plugin)
bitArrayGet                                       obj/main/NAZE/common/bitarray.o (symbol from plugin)
                                                  obj/main/NAZE/fc/rc_modes.o (symbol from plugin)
bitArraySet                                       /tmp/ccELukx5.ltrans22.ltrans.o
                                                  obj/main/NAZE/common/bitarray.o (symbol from plugin)
                                                  /tmp/ccELukx5.ltrans29.ltrans.o
                                                  /tmp/ccELukx5.ltrans4.ltrans.o
                                                  obj/main/NAZE/fc/rc_modes.o (symbol from plugin)
                                                  obj/main/NAZE/fc/fc_msp.o (symbol from plugin)
blackboxAdvanceIterationTimers.lto_priv.276       /tmp/ccELukx5.ltrans23.ltrans.o
                                                  /tmp/ccELukx5.ltrans1.ltrans.o
blackboxConditionCache.lto_priv.472               /tmp/ccELukx5.ltrans15.ltrans.o
                                                  /tmp/ccELukx5.ltrans23.ltrans.o
                                                  /tmp/ccELukx5.ltrans6.ltrans.o
blackboxConfig_Copy                               obj/main/NAZE/blackbox/blackbox.o (symbol from plugin)
blackboxConfig_Registry                           /tmp/ccELukx5.ltrans3.ltrans.o
                                                  obj/main/NAZE/blackbox/blackbox.o (symbol from plugin)
blackboxConfig_System                             /tmp/ccELukx5.ltrans3.ltrans.o
                                                  obj/main/NAZE/blackbox/blackbox.o (symbol from plugin)
                                                  /tmp/ccELukx5.ltrans26.ltrans.o
                                                  /tmp/ccELukx5.ltrans23.ltrans.o
                                                  /tmp/ccELukx5.ltrans15.ltrans.o
                                                  /tmp/ccELukx5.ltrans6.ltrans.o
                                                  /tmp/ccELukx5.ltrans2.ltrans.o
                                                  /tmp/ccELukx5.ltrans1.ltrans.o
                                                  /tmp/ccELukx5.ltrans0.ltrans.o
                                                  obj/main/NAZE/fc/fc_msp.o (symbol from plugin)
                                                  obj/main/NAZE/blackbox/blackbox_io.o (symbol from plugin)
blackboxDeviceBeginLog                            obj/main/NAZE/blackbox/blackbox_io.o (symbol from plugin)
                                                  obj/main/NAZE/blackbox/blackbox.o (symbol from plugin)
blackboxDeviceClose                               obj/main/NAZE/blackbox/blackbox_io.o (symbol from plugin)
                                                  obj/main/NAZE/blackbox/blackbox.o (symbol from plugin)
blackboxDeviceEndLog                              obj/main/NAZE/blackbox/blackbox_io.o (symbol from plugin)
                                                  obj/main/NAZE/blackbox/blackbox.o (symbol from plugin)
blackboxDeviceFlush                               obj/main/NAZE/blackbox/blackbox_io.o (symbol from plugin)
                                                  obj/main/NAZE/blackbox/blackbox.o (symbol from plugin)
blackboxDeviceFlushForce                          /tmp/ccELukx5.ltrans26.ltrans.o
                                                  obj/main/NAZE/blackbox/blackbox_io.o (symbol from plugin)
                                                  /tmp/ccELukx5.ltrans1.ltrans.o
                                                  obj/main/NAZE/blackbox/blackbox.o (symbol from plugin)
blackboxDeviceOpen                                obj/main/NAZE/blackbox/blackbox_io.o (symbol from plugin)
                                                  obj/main/NAZE/blackbox/blackbox.o (symbol from plugin)
blackboxDeviceReserveBufferSpace                  /tmp/ccELukx5.ltrans26.ltrans.o
                                                  obj/main/NAZE/blackbox/blackbox_io.o (symbol from plugin)
                                                  /tmp/ccELukx5.ltrans6.ltrans.o
                                                  /tmp/ccELukx5.ltrans1.ltrans.o
                                                  obj/main/NAZE/blackbox/blackbox.o (symbol from plugin)
blackboxFinish                                    obj/main/NAZE/blackbox/blackbox.o (symbol from plugin)
                                                  obj/main/NAZE/fc/fc_core.o (symbol from plugin)
blackboxGetStartDateTime                          obj/main/NAZE/blackbox/blackbox.o (symbol from plugin)
blackboxHeaderBudget                              /tmp/ccELukx5.ltrans1.ltrans.o
                                                  obj/main/NAZE/blackbox/blackbox_io.o (symbol from plugin)
                                                  /tmp/ccELukx5.ltrans26.ltrans.o
                                                  /tmp/ccELukx5.ltrans6.ltrans.o
                                                  obj/main/NAZE/blackbox/blackbox_encoding.o (symbol from plugin)
                                                  obj/main/NAZE/blackbox/blackbox.o (symbol from plugin)
blackboxHistory.lto_priv.470                      /tmp/ccELukx5.ltrans15.ltrans.o
                                                  /tmp/ccELukx5.ltrans23.ltrans.o
                                                  /tmp/ccELukx5.ltrans6.ltrans.o
blackboxHistoryRing.lto_priv.471                  /tmp/ccELukx5.ltrans15.ltrans.o
                                                  /tmp/ccELukx5.ltrans23.ltrans.o
blackboxIFrameIndex.lto_priv.469                  /tmp/ccELukx5.ltrans15.ltrans.o
                                                  /tmp/ccELukx5.ltrans23.ltrans.o
blackboxIFrameInterval.lto_priv.364               /tmp/ccELukx5.ltrans1.ltrans.o
                                                  /tmp/ccELukx5.ltrans23.ltrans.o
                                                  /tmp/ccELukx5.ltrans0.ltrans.o
blackboxInit                                      obj/main/NAZE/blackbox/blackbox.o (symbol from plugin)
                                                  obj/main/NAZE/fc/fc_init.o (symbol from plugin)
blackboxIteration.lto_priv.291                    /tmp/ccELukx5.ltrans1.ltrans.o
                                                  /tmp/ccELukx5.ltrans23.ltrans.o
                                                  /tmp/ccELukx5.ltrans15.ltrans.o
blackboxLastArmingBeep.lto_priv.474               /tmp/ccELukx5.ltrans15.ltrans.o
                                                  /tmp/ccELukx5.ltrans23.ltrans.o
blackboxLastFlightModeFlags.lto_priv.473          /tmp/ccELukx5.ltrans15.ltrans.o
                                                  /tmp/ccELukx5.ltrans23.ltrans.o
blackboxLogEvent                                  /tmp/ccELukx5.ltrans23.ltrans.o
                                                  obj/main/NAZE/blackbox/blackbox.o (symbol from plugin)
                                                  /tmp/ccELukx5.ltrans15.ltrans.o
                                                  /tmp/ccELukx5.ltrans7.ltrans.o
                                                  /tmp/ccELukx5.ltrans1.ltrans.o
                                                  obj/main/NAZE/flight/imu.o (symbol from plugin)
                                                  obj/main/NAZE/fc/rc_adjustments.o (symbol from plugin)
blackboxLogInflightAdjustmentEvent.lto_priv.249   /tmp/ccELukx5.ltrans7.ltrans.o
                                                  /tmp/ccELukx5.ltrans4.ltrans.o
blackboxLogIteration.lto_priv.277                 /tmp/ccELukx5.ltrans23.ltrans.o
                                                  /tmp/ccELukx5.ltrans1.ltrans.o
blackboxLoggedAnyFrames.lto_priv.294              /tmp/ccELukx5.ltrans1.ltrans.o
                                                  /tmp/ccELukx5.ltrans23.ltrans.o
                                                  /tmp/ccELukx5.ltrans15.ltrans.o
blackboxMaxHeaderBytesPerIteration.lto_priv.297   /tmp/ccELukx5.ltrans1.ltrans.o
                                                  /tmp/ccELukx5.ltrans15.ltrans.o
blackboxMayEditConfig                             obj/main/NAZE/blackbox/blackbox.o (symbol from plugin)
                                                  obj/main/NAZE/fc/fc_msp.o (symbol from plugin)
blackboxModeActivationConditionPresent.lto_priv.290 /tmp/ccELukx5.ltrans1.ltrans.o
                                                  /tmp/ccELukx5.ltrans15.ltrans.o
blackboxOpen                                      obj/main/NAZE/blackbox/blackbox_io.o (symbol from plugin)
blackboxPFrameIndex.lto_priv.292                  /tmp/ccELukx5.ltrans1.ltrans.o
                                                  /tmp/ccELukx5.ltrans23.ltrans.o
                                                  /tmp/ccELukx5.ltrans15.ltrans.o
blackboxPort.lto_priv.299                         /tmp/ccELukx5.ltrans1.ltrans.o
                                                  /tmp/ccELukx5.ltrans26.ltrans.o
                                                  /tmp/ccELukx5.ltrans15.ltrans.o
blackboxPortSharing.lto_priv.298                  /tmp/ccELukx5.ltrans1.ltrans.o
                                                  /tmp/ccELukx5.ltrans15.ltrans.o
blackboxPrint                                     /tmp/ccELukx5.ltrans26.ltrans.o
                                                  obj/main/NAZE/blackbox/blackbox_io.o (symbol from plugin)
                                                  /tmp/ccELukx5.ltrans6.ltrans.o
                                                  obj/main/NAZE/blackbox/blackbox_encoding.o (symbol from plugin)
                                                  obj/main/NAZE/blackbox/blackbox.o (symbol from plugin)
blackboxPrintf                                    /tmp/ccELukx5.ltrans26.ltrans.o
                                                  obj/main/NAZE/blackbox/blackbox_encoding.o (symbol from plugin)
                                                  /tmp/ccELukx5.ltrans23.ltrans.o
                                                  /tmp/ccELukx5.ltrans6.ltrans.o
                                                  obj/main/NAZE/blackbox/blackbox.o (symbol from plugin)
blackboxPrintfHeaderLine                          /tmp/ccELukx5.ltrans26.ltrans.o
                                                  obj/main/NAZE/blackbox/blackbox_encoding.o (symbol from plugin)
                                                  /tmp/ccELukx5.ltrans6.ltrans.o
                                                  /tmp/ccELukx5.ltrans1.ltrans.o
                                                  obj/main/NAZE/blackbox/blackbox.o (symbol from plugin)
blackboxReplenishHeaderBudget                     obj/main/NAZE/blackbox/blackbox_io.o (symbol from plugin)
                                                  obj/main/NAZE/blackbox/blackbox.o (symbol from plugin)
blackboxSetStartDateTime                          obj/main/NAZE/blackbox/blackbox.o (symbol from plugin)
blackboxSlowFrameIterationTimer.lto_priv.296      /tmp/ccELukx5.ltrans1.ltrans.o
                                                  /tmp/ccELukx5.ltrans23.ltrans.o
                                                  /tmp/ccELukx5.ltrans6.ltrans.o
blackboxStart                                     obj/main/NAZE/blackbox/blackbox.o (symbol from plugin)
                                                  obj/main/NAZE/fc/fc_core.o (symbol from plugin)
blackboxState.lto_priv.263                        /tmp/ccELukx5.ltrans2.ltrans.o
                                                  /tmp/ccELukx5.ltrans23.ltrans.o
                                                  /tmp/ccELukx5.ltrans15.ltrans.o
                                                  /tmp/ccELukx5.ltrans1.ltrans.o
                                                  /tmp/ccELukx5.ltrans0.ltrans.o
blackboxUpdate                                    obj/main/NAZE/blackbox/blackbox.o (symbol from plugin)
                                                  obj/main/NAZE/fc/fc_core.o (symbol from plugin)
blackboxWrite                                     /tmp/ccELukx5.ltrans26.ltrans.o
                                                  obj/main/NAZE/blackbox/blackbox_io.o (symbol from plugin)
                                                  /tmp/ccELukx5.ltrans23.ltrans.o
                                                  /tmp/ccELukx5.ltrans6.ltrans.o
                                                  /tmp/ccELukx5.ltrans1.ltrans.o
                                                  obj/main/NAZE/blackbox/blackbox_encoding.o (symbol from plugin)
                                                  obj/main/NAZE/blackbox/blackbox.o (symbol from plugin)
blackboxWriteFloat                                obj/main/NAZE/blackbox/blackbox_encoding.o (symbol from plugin)
                                                  obj/main/NAZE/blackbox/blackbox.o (symbol from plugin)
blackboxWriteMainStateArrayUsingAveragePredictor.lto_priv.479 /tmp/ccELukx5.ltrans6.ltrans.o
                                                  /tmp/ccELukx5.ltrans23.ltrans.o
blackboxWriteS16                                  obj/main/NAZE/blackbox/blackbox_encoding.o (symbol from plugin)
blackboxWriteSigned16VBArray                      /tmp/ccELukx5.ltrans26.ltrans.o
                                                  obj/main/NAZE/blackbox/blackbox_encoding.o (symbol from plugin)
                                                  /tmp/ccELukx5.ltrans23.ltrans.o
                                                  obj/main/NAZE/blackbox/blackbox.o (symbol from plugin)
blackboxWriteSignedVB                             /tmp/ccELukx5.ltrans26.ltrans.o
                                                  obj/main/NAZE/blackbox/blackbox_encoding.o (symbol from plugin)
                                                  /tmp/ccELukx5.ltrans24.ltrans.o
                                                  /tmp/ccELukx5.ltrans23.ltrans.o
                                                  /tmp/ccELukx5.ltrans6.ltrans.o
                                                  obj/main/NAZE/blackbox/blackbox.o (symbol from plugin)
blackboxWriteSignedVBArray                        obj/main/NAZE/blackbox/blackbox_encoding.o (symbol from plugin)
                                                  obj/main/NAZE/blackbox/blackbox.o (symbol from plugin)
blackboxWriteSignedVBArray.constprop.83           /tmp/ccELukx5.ltrans24.ltrans.o
                                                  /tmp/ccELukx5.ltrans23.ltrans.o
blackboxWriteSysinfo.lto_priv.278                 /tmp/ccELukx5.ltrans6.ltrans.o
                                                  /tmp/ccELukx5.ltrans1.ltrans.o
blackboxWriteTag2_3S32                            /tmp/ccELukx5.ltrans26.ltrans.o
                                                  obj/main/NAZE/blackbox/blackbox_encoding.o (symbol from plugin)
                                                  /tmp/ccELukx5.ltrans23.ltrans.o
                                                  /tmp/ccELukx5.ltrans6.ltrans.o
                                                  obj/main/NAZE/blackbox/blackbox.o (symbol from plugin)
blackboxWriteTag8_4S16                            obj/main/NAZE/blackbox/blackbox_encoding.o (symbol from plugin)
                                                  obj/main/NAZE/blackbox/blackbox.o (symbol from plugin)
blackboxWriteTag8_8SVB                            obj/main/NAZE/blackbox/blackbox_encoding.o (symbol from plugin)
                                                  obj/main/NAZE/blackbox/blackbox.o (symbol from plugin)
blackboxWriteU32                                  obj/main/NAZE/blackbox/blackbox_encoding.o (symbol from plugin)
blackboxWriteUnsignedVB                           /tmp/ccELukx5.ltrans26.ltrans.o
                                                  obj/main/NAZE/blackbox/blackbox_encoding.o (symbol from plugin)
                                                  /tmp/ccELukx5.ltrans23.ltrans.o
                                                  /tmp/ccELukx5.ltrans6.ltrans.o
                                                  obj/main/NAZE/blackbox/blackbox.o (symbol from plugin)
bmp280Detect                                      obj/main/NAZE/drivers/barometer/barometer_bmp280.o (symbol from plugin)
                                                  obj/main/NAZE/sensors/barometer.o (symbol from plugin)
bmp280_cal.lto_priv.490                           /tmp/ccELukx5.ltrans0.ltrans.o
                                                  /tmp/ccELukx5.ltrans5.ltrans.o
bmp280_calculate.lto_priv.395                     /tmp/ccELukx5.ltrans5.ltrans.o
                                                  /tmp/ccELukx5.ltrans0.ltrans.o
bmp280_get_up.lto_priv.394                        /tmp/ccELukx5.ltrans5.ltrans.o
                                                  /tmp/ccELukx5.ltrans0.ltrans.o
bmp280_get_ut.lto_priv.391                        /tmp/ccELukx5.ltrans5.ltrans.o
                                                  /tmp/ccELukx5.ltrans0.ltrans.o
bmp280_start_up.lto_priv.393                      /tmp/ccELukx5.ltrans5.ltrans.o
                                                  /tmp/ccELukx5.ltrans0.ltrans.o
bmp280_start_ut.lto_priv.392                      /tmp/ccELukx5.ltrans5.ltrans.o
                                                  /tmp/ccELukx5.ltrans0.ltrans.o
bmp280_up                                         obj/main/NAZE/drivers/barometer/barometer_bmp280.o (symbol from plugin)
bmp280_ut                                         obj/main/NAZE/drivers/barometer/barometer_bmp280.o (symbol from plugin)
boardAlignment_Copy                               obj/main/NAZE/sensors/boardalignment.o (symbol from plugin)
boardAlignment_Registry                           /tmp/ccELukx5.ltrans18.ltrans.o
                                                  obj/main/NAZE/sensors/boardalignment.o (symbol from plugin)
boardAlignment_System                             /tmp/ccELukx5.ltrans18.ltrans.o
                                                  obj/main/NAZE/sensors/boardalignment.o (symbol from plugin)
                                                  /tmp/ccELukx5.ltrans21.ltrans.o
                                                  /tmp/ccELukx5.ltrans3.ltrans.o
                                                  /tmp/ccELukx5.ltrans2.ltrans.o
                                                  obj/main/NAZE/fc/fc_msp.o (symbol from plugin)
boxes.lto_priv.201                                /tmp/ccELukx5.ltrans3.ltrans.o
                                                  /tmp/ccELukx5.ltrans2.ltrans.o
bufWriterAppend                                   obj/main/NAZE/drivers/buf_writer.o (symbol from plugin)
                                                  obj/main/NAZE/fc/cli.o (symbol from plugin)
bufWriterFlush                                    /tmp/ccELukx5.ltrans8.ltrans.o
                                                  obj/main/NAZE/drivers/buf_writer.o (symbol from plugin)
                                                  /tmp/ccELukx5.ltrans17.ltrans.o
                                                  /tmp/ccELukx5.ltrans14.ltrans.o
                                                  /tmp/ccELukx5.ltrans2.ltrans.o
                                                  obj/main/NAZE/fc/cli.o (symbol from plugin)
bufWriterInit                                     obj/main/NAZE/drivers/buf_writer.o (symbol from plugin)
                                                  obj/main/NAZE/fc/cli.o (symbol from plugin)
bufferHead.lto_priv.481                           /tmp/ccELukx5.ltrans26.ltrans.o
                                                  /tmp/ccELukx5.ltrans6.ltrans.o
bufferIndex.lto_priv.344                          /tmp/ccELukx5.ltrans2.ltrans.o
                                                  /tmp/ccELukx5.ltrans17.ltrans.o
bufferTail.lto_priv.482                           /tmp/ccELukx5.ltrans26.ltrans.o
                                                  /tmp/ccELukx5.ltrans6.ltrans.o
buildDate                                         /tmp/ccELukx5.ltrans3.ltrans.o
                                                  obj/main/NAZE/build/version.o (symbol from plugin)
                                                  obj/main/NAZE/fc/fc_msp.o (symbol from plugin)
                                                  obj/main/NAZE/fc/cli.o (symbol from plugin)
                                                  obj/main/NAZE/blackbox/blackbox.o (symbol from plugin)
buildRotationMatrix                               obj/main/NAZE/common/maths.o (symbol from plugin)
                                                  obj/main/NAZE/sensors/boardalignment.o (symbol from plugin)
buildTime                                         /tmp/ccELukx5.ltrans3.ltrans.o
                                                  obj/main/NAZE/build/version.o (symbol from plugin)
                                                  obj/main/NAZE/fc/fc_msp.o (symbol from plugin)
                                                  obj/main/NAZE/fc/cli.o (symbol from plugin)
                                                  obj/main/NAZE/blackbox/blackbox.o (symbol from plugin)
busState.lto_priv.493                             /tmp/ccELukx5.ltrans20.ltrans.o
                                                  /tmp/ccELukx5.ltrans5.ltrans.o
cachedRccCsrValue                                 /tmp/ccELukx5.ltrans27.ltrans.o
                                                  obj/main/NAZE/drivers/system.o (symbol from plugin)
                                                  /tmp/ccELukx5.ltrans0.ltrans.o
                                                  obj/main/NAZE/drivers/system_stm32f10x.o (symbol from plugin)
calcualteAndSetActiveWaypointToLocalPosition.lto_priv.454 /tmp/ccELukx5.ltrans13.ltrans.o
                                                  /tmp/ccELukx5.ltrans25.ltrans.o
calculateBatteryCapacityRemainingPercentage       obj/main/NAZE/sensors/battery.o (symbol from plugin)
                                                  obj/main/NAZE/telemetry/frsky.o (symbol from plugin)
calculateBatteryPercentage                        obj/main/NAZE/sensors/battery.o (symbol from plugin)
calculateBearingToDestination                     /tmp/ccELukx5.ltrans25.ltrans.o
                                                  obj/main/NAZE/navigation/navigation.o (symbol from plugin)
                                                  /tmp/ccELukx5.ltrans13.ltrans.o
                                                  /tmp/ccELukx5.ltrans1.ltrans.o
                                                  obj/main/NAZE/navigation/navigation_fixedwing.o (symbol from plugin)
calculateCosTiltAngle                             obj/main/NAZE/flight/imu.o (symbol from plugin)
                                                  obj/main/NAZE/flight/pid.o (symbol from plugin)
                                                  obj/main/NAZE/fc/fc_core.o (symbol from plugin)
                                                  obj/main/NAZE/navigation/navigation_fw_launch.o (symbol from plugin)
                                                  obj/main/NAZE/navigation/navigation.o (symbol from plugin)
calculateDistanceToDestination                    /tmp/ccELukx5.ltrans25.ltrans.o
                                                  obj/main/NAZE/navigation/navigation.o (symbol from plugin)
                                                  /tmp/ccELukx5.ltrans15.ltrans.o
                                                  /tmp/ccELukx5.ltrans1.ltrans.o
calculateFarAwayTarget                            obj/main/NAZE/navigation/navigation.o (symbol from plugin)
calculateFixedWingInitialHoldPosition             obj/main/NAZE/navigation/navigation_fixedwing.o (symbol from plugin)
                                                  obj/main/NAZE/navigation/navigation.o (symbol from plugin)
calculateInitialHoldPosition                      /tmp/ccELukx5.ltrans25.ltrans.o
                                                  obj/main/NAZE/navigation/navigation.o (symbol from plugin)
                                                  /tmp/ccELukx5.ltrans12.ltrans.o
calculateMulticopterInitialHoldPosition           /tmp/ccELukx5.ltrans28.ltrans.o
                                                  obj/main/NAZE/navigation/navigation_multicopter.o (symbol from plugin)
                                                  /tmp/ccELukx5.ltrans25.ltrans.o
                                                  /tmp/ccELukx5.ltrans1.ltrans.o
                                                  obj/main/NAZE/navigation/navigation.o (symbol from plugin)
calculateRollPitchCenterStatus                    obj/main/NAZE/fc/rc_controls.o (symbol from plugin)
                                                  obj/main/NAZE/fc/fc_core.o (symbol from plugin)
calculateRxChannelsAndUpdateFailsafe              obj/main/NAZE/rx/rx.o (symbol from plugin)
                                                  obj/main/NAZE/fc/fc_core.o (symbol from plugin)
calculateThrottleStatus                           /tmp/ccELukx5.ltrans7.ltrans.o
                                                  obj/main/NAZE/fc/rc_controls.o (symbol from plugin)
                                                  /tmp/ccELukx5.ltrans27.ltrans.o
                                                  /tmp/ccELukx5.ltrans15.ltrans.o
                                                  /tmp/ccELukx5.ltrans13.ltrans.o
                                                  /tmp/ccELukx5.ltrans10.ltrans.o
                                                  /tmp/ccELukx5.ltrans4.ltrans.o
                                                  obj/main/NAZE/sensors/battery.o (symbol from plugin)
                                                  obj/main/NAZE/flight/failsafe.o (symbol from plugin)
                                                  obj/main/NAZE/fc/fc_core.o (symbol from plugin)
                                                  obj/main/NAZE/telemetry/frsky.o (symbol from plugin)
                                                  obj/main/NAZE/navigation/navigation_multicopter.o (symbol from plugin)
calibratedAxis.lto_priv.274                       /tmp/ccELukx5.ltrans3.ltrans.o
                                                  /tmp/ccELukx5.ltrans1.ltrans.o
calibratingA.lto_priv.200                         /tmp/ccELukx5.ltrans3.ltrans.o
                                                  /tmp/ccELukx5.ltrans15.ltrans.o
                                                  /tmp/ccELukx5.ltrans4.ltrans.o
                                                  /tmp/ccELukx5.ltrans2.ltrans.o
                                                  /tmp/ccELukx5.ltrans1.ltrans.o
cameraState                                       obj/main/NAZE/io/rcsplit.o (symbol from plugin)
captures.lto_priv.261                             /tmp/ccELukx5.ltrans18.ltrans.o
                                                  /tmp/ccELukx5.ltrans30.ltrans.o
                                                  /tmp/ccELukx5.ltrans8.ltrans.o
castFloatBytesToInt                               obj/main/NAZE/common/encoding.o (symbol from plugin)
                                                  obj/main/NAZE/blackbox/blackbox_encoding.o (symbol from plugin)
                                                  obj/main/NAZE/blackbox/blackbox.o (symbol from plugin)
cfTasks                                           /tmp/ccELukx5.ltrans18.ltrans.o
                                                  obj/main/NAZE/fc/fc_tasks.o (symbol from plugin)
                                                  /tmp/ccELukx5.ltrans17.ltrans.o
                                                  /tmp/ccELukx5.ltrans0.ltrans.o
                                                  obj/main/NAZE/scheduler/scheduler.o (symbol from plugin)
changeControlRateProfile                          obj/main/NAZE/fc/controlrate_profile.o (symbol from plugin)
checkCommand.lto_priv.339                         /tmp/ccELukx5.ltrans17.ltrans.o
                                                  /tmp/ccELukx5.ltrans21.ltrans.o
checkForBootLoaderRequest                         obj/main/NAZE/drivers/system_stm32f10x.o (symbol from plugin)
checkForPositionSensorTimeout                     /tmp/ccELukx5.ltrans25.ltrans.o
                                                  obj/main/NAZE/navigation/navigation.o (symbol from plugin)
                                                  /tmp/ccELukx5.ltrans12.ltrans.o
checkFrSkyTelemetryState                          /tmp/ccELukx5.ltrans11.ltrans.o
                                                  obj/main/NAZE/telemetry/frsky.o (symbol from plugin)
                                                  /tmp/ccELukx5.ltrans10.ltrans.o
                                                  /tmp/ccELukx5.ltrans4.ltrans.o
                                                  /tmp/ccELukx5.ltrans0.ltrans.o
                                                  obj/main/NAZE/telemetry/telemetry.o (symbol from plugin)
checkLtmTelemetryState                            /tmp/ccELukx5.ltrans11.ltrans.o
                                                  obj/main/NAZE/telemetry/ltm.o (symbol from plugin)
                                                  /tmp/ccELukx5.ltrans10.ltrans.o
                                                  /tmp/ccELukx5.ltrans4.ltrans.o
                                                  /tmp/ccELukx5.ltrans0.ltrans.o
                                                  obj/main/NAZE/telemetry/telemetry.o (symbol from plugin)
checkStickPosition                                obj/main/NAZE/fc/rc_controls.o (symbol from plugin)
cleanup_glue                                      /usr/bin/../lib/gcc/arm-none-eabi/4.9.3/../../../../arm-none-eabi/lib/armv7-m/libc_nano.a(lib_a-reent.o)
cliAdjustmentRange.lto_priv.203                   /tmp/ccELukx5.ltrans16.ltrans.o
                                                  /tmp/ccELukx5.ltrans2.ltrans.o
cliAux.lto_priv.204                               /tmp/ccELukx5.ltrans14.ltrans.o
                                                  /tmp/ccELukx5.ltrans2.ltrans.o
cliBeeper.lto_priv.205                            /tmp/ccELukx5.ltrans17.ltrans.o
                                                  /tmp/ccELukx5.ltrans2.ltrans.o
cliBuffer.lto_priv.343                            /tmp/ccELukx5.ltrans2.ltrans.o
                                                  /tmp/ccELukx5.ltrans17.ltrans.o
cliDefaultPrintLinef.lto_priv.338                 /tmp/ccELukx5.ltrans14.ltrans.o
                                                  /tmp/ccELukx5.ltrans21.ltrans.o
                                                  /tmp/ccELukx5.ltrans16.ltrans.o
cliDefaults.lto_priv.206                          /tmp/ccELukx5.ltrans17.ltrans.o
                                                  /tmp/ccELukx5.ltrans2.ltrans.o
cliDfu.lto_priv.207                               /tmp/ccELukx5.ltrans17.ltrans.o
                                                  /tmp/ccELukx5.ltrans2.ltrans.o
cliDiff.lto_priv.208                              /tmp/ccELukx5.ltrans21.ltrans.o
                                                  /tmp/ccELukx5.ltrans2.ltrans.o
cliDump.lto_priv.209                              /tmp/ccELukx5.ltrans21.ltrans.o
                                                  /tmp/ccELukx5.ltrans2.ltrans.o
cliDumpPrintLinef.lto_priv.335                    /tmp/ccELukx5.ltrans14.ltrans.o
                                                  /tmp/ccELukx5.ltrans21.ltrans.o
                                                  /tmp/ccELukx5.ltrans17.ltrans.o
                                                  /tmp/ccELukx5.ltrans16.ltrans.o
cliDumpProfile.lto_priv.327                       /tmp/ccELukx5.ltrans17.ltrans.o
                                                  /tmp/ccELukx5.ltrans21.ltrans.o
cliEnter                                          obj/main/NAZE/fc/cli.o (symbol from plugin)
                                                  obj/main/NAZE/io/serial.o (symbol from plugin)
cliExit.lto_priv.210                              /tmp/ccELukx5.ltrans17.ltrans.o
                                                  /tmp/ccELukx5.ltrans2.ltrans.o
cliFeature.lto_priv.211                           /tmp/ccELukx5.ltrans16.ltrans.o
                                                  /tmp/ccELukx5.ltrans2.ltrans.o
cliFlashErase.lto_priv.212                        /tmp/ccELukx5.ltrans16.ltrans.o
                                                  /tmp/ccELukx5.ltrans2.ltrans.o
cliFlashInfo.lto_priv.213                         /tmp/ccELukx5.ltrans16.ltrans.o
                                                  /tmp/ccELukx5.ltrans2.ltrans.o
cliGet.lto_priv.214                               /tmp/ccELukx5.ltrans17.ltrans.o
                                                  /tmp/ccELukx5.ltrans2.ltrans.o
cliGpsPassthrough.lto_priv.215                    /tmp/ccELukx5.ltrans17.ltrans.o
                                                  /tmp/ccELukx5.ltrans2.ltrans.o
cliHelp.lto_priv.216                              /tmp/ccELukx5.ltrans21.ltrans.o
                                                  /tmp/ccELukx5.ltrans2.ltrans.o
cliInit                                           obj/main/NAZE/fc/cli.o (symbol from plugin)
                                                  obj/main/NAZE/fc/fc_init.o (symbol from plugin)
cliLookupTables                                   /tmp/ccELukx5.ltrans17.ltrans.o
                                                  obj/main/NAZE/fc/settings.o (symbol from plugin)
                                                  /tmp/ccELukx5.ltrans14.ltrans.o
                                                  obj/main/NAZE/fc/cli.o (symbol from plugin)
cliMap.lto_priv.217                               /tmp/ccELukx5.ltrans17.ltrans.o
                                                  /tmp/ccELukx5.ltrans2.ltrans.o
cliMixer.lto_priv.218                             /tmp/ccELukx5.ltrans17.ltrans.o
                                                  /tmp/ccELukx5.ltrans2.ltrans.o
cliMode                                           /tmp/ccELukx5.ltrans10.ltrans.o
                                                  obj/main/NAZE/fc/cli.o (symbol from plugin)
                                                  /tmp/ccELukx5.ltrans17.ltrans.o
                                                  /tmp/ccELukx5.ltrans4.ltrans.o
                                                  /tmp/ccELukx5.ltrans2.ltrans.o
                                                  /tmp/ccELukx5.ltrans1.ltrans.o
                                                  obj/main/NAZE/fc/fc_tasks.o (symbol from plugin)
                                                  obj/main/NAZE/fc/fc_core.o (symbol from plugin)
cliMotor.lto_priv.220                             /tmp/ccELukx5.ltrans17.ltrans.o
                                                  /tmp/ccELukx5.ltrans2.ltrans.o
cliMotorMix.lto_priv.219                          /tmp/ccELukx5.ltrans16.ltrans.o
                                                  /tmp/ccELukx5.ltrans2.ltrans.o
cliName.lto_priv.221                              /tmp/ccELukx5.ltrans17.ltrans.o
                                                  /tmp/ccELukx5.ltrans2.ltrans.o
cliPort.lto_priv.341                              /tmp/ccELukx5.ltrans2.ltrans.o
                                                  /tmp/ccELukx5.ltrans17.ltrans.o
cliPrint.lto_priv.238                             /tmp/ccELukx5.ltrans14.ltrans.o
                                                  /tmp/ccELukx5.ltrans21.ltrans.o
                                                  /tmp/ccELukx5.ltrans17.ltrans.o
                                                  /tmp/ccELukx5.ltrans16.ltrans.o
                                                  /tmp/ccELukx5.ltrans2.ltrans.o
cliPrintLine.lto_priv.234                         /tmp/ccELukx5.ltrans14.ltrans.o
                                                  /tmp/ccELukx5.ltrans17.ltrans.o
                                                  /tmp/ccELukx5.ltrans16.ltrans.o
                                                  /tmp/ccELukx5.ltrans2.ltrans.o
cliPrintLinef.lto_priv.328                        /tmp/ccELukx5.ltrans14.ltrans.o
                                                  /tmp/ccELukx5.ltrans21.ltrans.o
                                                  /tmp/ccELukx5.ltrans17.ltrans.o
                                                  /tmp/ccELukx5.ltrans16.ltrans.o
cliPrintLinefeed.lto_priv.240                     /tmp/ccELukx5.ltrans14.ltrans.o
                                                  /tmp/ccELukx5.ltrans21.ltrans.o
                                                  /tmp/ccELukx5.ltrans17.ltrans.o
                                                  /tmp/ccELukx5.ltrans16.ltrans.o
                                                  /tmp/ccELukx5.ltrans2.ltrans.o
cliPrintVar.lto_priv.347                          /tmp/ccELukx5.ltrans14.ltrans.o
                                                  /tmp/ccELukx5.ltrans17.ltrans.o
cliPrintVarRange.lto_priv.346                     /tmp/ccELukx5.ltrans14.ltrans.o
                                                  /tmp/ccELukx5.ltrans17.ltrans.o
cliPrintf.lto_priv.345                            /tmp/ccELukx5.ltrans14.ltrans.o
                                                  /tmp/ccELukx5.ltrans17.ltrans.o
                                                  /tmp/ccELukx5.ltrans16.ltrans.o
cliProcess                                        obj/main/NAZE/fc/cli.o (symbol from plugin)
                                                  obj/main/NAZE/fc/fc_tasks.o (symbol from plugin)
cliProfile.lto_priv.222                           /tmp/ccELukx5.ltrans17.ltrans.o
                                                  /tmp/ccELukx5.ltrans2.ltrans.o
cliPrompt.lto_priv.233                            /tmp/ccELukx5.ltrans14.ltrans.o
                                                  /tmp/ccELukx5.ltrans2.ltrans.o
cliRxRange.lto_priv.223                           /tmp/ccELukx5.ltrans16.ltrans.o
                                                  /tmp/ccELukx5.ltrans2.ltrans.o
cliSave.lto_priv.224                              /tmp/ccELukx5.ltrans17.ltrans.o
                                                  /tmp/ccELukx5.ltrans2.ltrans.o
cliSerial.lto_priv.225                            /tmp/ccELukx5.ltrans16.ltrans.o
                                                  /tmp/ccELukx5.ltrans2.ltrans.o
cliServo.lto_priv.226                             /tmp/ccELukx5.ltrans16.ltrans.o
                                                  /tmp/ccELukx5.ltrans2.ltrans.o
cliServoMix.lto_priv.228                          /tmp/ccELukx5.ltrans16.ltrans.o
                                                  /tmp/ccELukx5.ltrans2.ltrans.o
cliSet.lto_priv.227                               /tmp/ccELukx5.ltrans17.ltrans.o
                                                  /tmp/ccELukx5.ltrans2.ltrans.o
cliShowParseError.lto_priv.350                    /tmp/ccELukx5.ltrans14.ltrans.o
                                                  /tmp/ccELukx5.ltrans17.ltrans.o
                                                  /tmp/ccELukx5.ltrans16.ltrans.o
cliStatus.lto_priv.229                            /tmp/ccELukx5.ltrans17.ltrans.o
                                                  /tmp/ccELukx5.ltrans2.ltrans.o
cliValueMinMaxTable                               /tmp/ccELukx5.ltrans17.ltrans.o
                                                  obj/main/NAZE/fc/settings.o (symbol from plugin)
                                                  /tmp/ccELukx5.ltrans14.ltrans.o
cliValuePgn                                       obj/main/NAZE/fc/settings.o (symbol from plugin)
cliValuePgnCounts                                 obj/main/NAZE/fc/settings.o (symbol from plugin)
cliValueTable                                     /tmp/ccELukx5.ltrans7.ltrans.o
                                                  obj/main/NAZE/fc/settings.o (symbol from plugin)
                                                  /tmp/ccELukx5.ltrans17.ltrans.o
                                                  /tmp/ccELukx5.ltrans14.ltrans.o
                                                  obj/main/NAZE/fc/cli.o (symbol from plugin)
cliVersion.lto_priv.230                           /tmp/ccELukx5.ltrans21.ltrans.o
                                                  /tmp/ccELukx5.ltrans2.ltrans.o
cliWrite.lto_priv.239                             /tmp/ccELukx5.ltrans14.ltrans.o
                                                  /tmp/ccELukx5.ltrans2.ltrans.o
cliWriter.lto_priv.342                            /tmp/ccELukx5.ltrans2.ltrans.o
                                                  /tmp/ccELukx5.ltrans17.ltrans.o
                                                  /tmp/ccELukx5.ltrans14.ltrans.o
clivalue_get_max                                  obj/main/NAZE/fc/settings.o (symbol from plugin)
                                                  obj/main/NAZE/fc/cli.o (symbol from plugin)
clivalue_get_min                                  obj/main/NAZE/fc/settings.o (symbol from plugin)
                                                  obj/main/NAZE/fc/cli.o (symbol from plugin)
clivalue_get_name                                 /tmp/ccELukx5.ltrans7.ltrans.o
                                                  obj/main/NAZE/fc/settings.o (symbol from plugin)
                                                  /tmp/ccELukx5.ltrans17.ltrans.o
                                                  /tmp/ccELukx5.ltrans14.ltrans.o
                                                  obj/main/NAZE/fc/cli.o (symbol from plugin)
clivalue_get_pgn                                  /tmp/ccELukx5.ltrans7.ltrans.o
                                                  obj/main/NAZE/fc/settings.o (symbol from plugin)
                                                  /tmp/ccELukx5.ltrans14.ltrans.o
                                                  obj/main/NAZE/fc/cli.o (symbol from plugin)
clivalue_name_contains                            obj/main/NAZE/fc/settings.o (symbol from plugin)
                                                  obj/main/NAZE/fc/cli.o (symbol from plugin)
clivalue_name_exact_match                         obj/main/NAZE/fc/settings.o (symbol from plugin)
                                                  obj/main/NAZE/fc/cli.o (symbol from plugin)
closeSerialPort                                   /tmp/ccELukx5.ltrans18.ltrans.o
                                                  obj/main/NAZE/io/serial.o (symbol from plugin)
                                                  /tmp/ccELukx5.ltrans11.ltrans.o
                                                  /tmp/ccELukx5.ltrans1.ltrans.o
                                                  obj/main/NAZE/msp/msp_serial.o (symbol from plugin)
                                                  obj/main/NAZE/telemetry/ltm.o (symbol from plugin)
                                                  obj/main/NAZE/telemetry/frsky.o (symbol from plugin)
                                                  obj/main/NAZE/blackbox/blackbox_io.o (symbol from plugin)
cmdTable                                          /tmp/ccELukx5.ltrans2.ltrans.o
                                                  obj/main/NAZE/fc/cli.o (symbol from plugin)
                                                  /tmp/ccELukx5.ltrans21.ltrans.o
compassConfig_Copy                                obj/main/NAZE/sensors/compass.o (symbol from plugin)
compassConfig_Registry                            /tmp/ccELukx5.ltrans3.ltrans.o
                                                  obj/main/NAZE/sensors/compass.o (symbol from plugin)
compassConfig_System                              /tmp/ccELukx5.ltrans3.ltrans.o
                                                  obj/main/NAZE/sensors/compass.o (symbol from plugin)
                                                  /tmp/ccELukx5.ltrans27.ltrans.o
                                                  /tmp/ccELukx5.ltrans6.ltrans.o
                                                  /tmp/ccELukx5.ltrans2.ltrans.o
                                                  /tmp/ccELukx5.ltrans0.ltrans.o
                                                  obj/main/NAZE/sensors/initialisation.o (symbol from plugin)
                                                  obj/main/NAZE/fc/fc_msp.o (symbol from plugin)
                                                  obj/main/NAZE/blackbox/blackbox.o (symbol from plugin)
compassDetect                                     obj/main/NAZE/sensors/compass.o (symbol from plugin)
compassInit                                       obj/main/NAZE/sensors/compass.o (symbol from plugin)
                                                  obj/main/NAZE/sensors/initialisation.o (symbol from plugin)
compassIsHealthy                                  /tmp/ccELukx5.ltrans18.ltrans.o
                                                  obj/main/NAZE/sensors/compass.o (symbol from plugin)
                                                  /tmp/ccELukx5.ltrans7.ltrans.o
                                                  obj/main/NAZE/sensors/diagnostics.o (symbol from plugin)
                                                  obj/main/NAZE/flight/imu.o (symbol from plugin)
compassIsReady                                    obj/main/NAZE/sensors/compass.o (symbol from plugin)
compassUpdate                                     obj/main/NAZE/sensors/compass.o (symbol from plugin)
                                                  obj/main/NAZE/fc/fc_tasks.o (symbol from plugin)
configTimeBase                                    /tmp/ccELukx5.ltrans14.ltrans.o
                                                  obj/main/NAZE/drivers/timer.o (symbol from plugin)
                                                  /tmp/ccELukx5.ltrans8.ltrans.o
                                                  obj/main/NAZE/drivers/pwm_output.o (symbol from plugin)
config_streamer_finish                            obj/main/NAZE/config/config_streamer.o (symbol from plugin)
                                                  obj/main/NAZE/config/config_eeprom.o (symbol from plugin)
config_streamer_flush                             obj/main/NAZE/config/config_streamer.o (symbol from plugin)
                                                  obj/main/NAZE/config/config_eeprom.o (symbol from plugin)
config_streamer_init                              obj/main/NAZE/config/config_streamer.o (symbol from plugin)
                                                  obj/main/NAZE/config/config_eeprom.o (symbol from plugin)
config_streamer_start                             obj/main/NAZE/config/config_streamer.o (symbol from plugin)
                                                  obj/main/NAZE/config/config_eeprom.o (symbol from plugin)
config_streamer_status                            obj/main/NAZE/config/config_streamer.o (symbol from plugin)
config_streamer_write                             /tmp/ccELukx5.ltrans8.ltrans.o
                                                  obj/main/NAZE/config/config_streamer.o (symbol from plugin)
                                                  /tmp/ccELukx5.ltrans15.ltrans.o
                                                  obj/main/NAZE/config/config_eeprom.o (symbol from plugin)
configureFrSkyTelemetryPort                       obj/main/NAZE/telemetry/frsky.o (symbol from plugin)
configureLtmTelemetryPort                         obj/main/NAZE/telemetry/ltm.o (symbol from plugin)
configureModeActivationCondition                  obj/main/NAZE/fc/rc_modes.o (symbol from plugin)
configureNAV5.constprop.68                        /tmp/ccELukx5.ltrans24.ltrans.o
                                                  /tmp/ccELukx5.ltrans12.ltrans.o
constrain                                         obj/main/NAZE/common/maths.o (symbol from plugin)
                                                  obj/main/NAZE/sensors/battery.o (symbol from plugin)
                                                  obj/main/NAZE/rx/rx.o (symbol from plugin)
                                                  obj/main/NAZE/flight/servos.o (symbol from plugin)
                                                  obj/main/NAZE/flight/pid.o (symbol from plugin)
                                                  obj/main/NAZE/flight/mixer.o (symbol from plugin)
                                                  obj/main/NAZE/fc/rc_modes.o (symbol from plugin)
                                                  obj/main/NAZE/fc/rc_adjustments.o (symbol from plugin)
                                                  obj/main/NAZE/fc/fc_msp.o (symbol from plugin)
                                                  obj/main/NAZE/fc/fc_core.o (symbol from plugin)
                                                  obj/main/NAZE/fc/config.o (symbol from plugin)
                                                  obj/main/NAZE/fc/cli.o (symbol from plugin)
                                                  obj/main/NAZE/telemetry/ltm.o (symbol from plugin)
                                                  obj/main/NAZE/telemetry/frsky.o (symbol from plugin)
                                                  obj/main/NAZE/navigation/navigation_pos_estimator.o (symbol from plugin)
                                                  obj/main/NAZE/navigation/navigation_multicopter.o (symbol from plugin)
                                                  obj/main/NAZE/navigation/navigation_fixedwing.o (symbol from plugin)
                                                  obj/main/NAZE/navigation/navigation.o (symbol from plugin)
                                                  obj/main/NAZE/blackbox/blackbox_io.o (symbol from plugin)
constrainf                                        obj/main/NAZE/common/maths.o (symbol from plugin)
                                                  obj/main/NAZE/flight/pid.o (symbol from plugin)
                                                  obj/main/NAZE/fc/fc_msp.o (symbol from plugin)
                                                  obj/main/NAZE/fc/fc_core.o (symbol from plugin)
                                                  obj/main/NAZE/common/filter.o (symbol from plugin)
                                                  obj/main/NAZE/navigation/navigation_pos_estimator.o (symbol from plugin)
                                                  obj/main/NAZE/navigation/navigation_multicopter.o (symbol from plugin)
                                                  obj/main/NAZE/navigation/navigation_geo.o (symbol from plugin)
                                                  obj/main/NAZE/navigation/navigation_fw_launch.o (symbol from plugin)
                                                  obj/main/NAZE/navigation/navigation_fixedwing.o (symbol from plugin)
                                                  obj/main/NAZE/navigation/navigation.o (symbol from plugin)
controlRateProfiles_CopyArray                     obj/main/NAZE/fc/controlrate_profile.o (symbol from plugin)
controlRateProfiles_Registry                      /tmp/ccELukx5.ltrans15.ltrans.o
                                                  obj/main/NAZE/fc/controlrate_profile.o (symbol from plugin)
controlRateProfiles_SystemArray                   obj/main/NAZE/fc/controlrate_profile.o (symbol from plugin)
copysignf                                         /usr/bin/../lib/gcc/arm-none-eabi/4.9.3/../../../../arm-none-eabi/lib/armv7-m/libm.a(lib_a-sf_copysign.o)
                                                  /usr/bin/../lib/gcc/arm-none-eabi/4.9.3/../../../../arm-none-eabi/lib/armv7-m/libm.a(lib_a-sf_scalbn.o)
cos_approx                                        /tmp/ccELukx5.ltrans22.ltrans.o
                                                  obj/main/NAZE/common/maths.o (symbol from plugin)
                                                  /tmp/ccELukx5.ltrans28.ltrans.o
                                                  /tmp/ccELukx5.ltrans24.ltrans.o
                                                  /tmp/ccELukx5.ltrans21.ltrans.o
                                                  /tmp/ccELukx5.ltrans18.ltrans.o
                                                  /tmp/ccELukx5.ltrans13.ltrans.o
                                                  /tmp/ccELukx5.ltrans12.ltrans.o
                                                  /tmp/ccELukx5.ltrans11.ltrans.o
                                                  /tmp/ccELukx5.ltrans9.ltrans.o
                                                  /tmp/ccELukx5.ltrans7.ltrans.o
                                                  /tmp/ccELukx5.ltrans1.ltrans.o
                                                  /tmp/ccELukx5.ltrans0.ltrans.o
                                                  obj/main/NAZE/sensors/boardalignment.o (symbol from plugin)
                                                  obj/main/NAZE/flight/pid.o (symbol from plugin)
                                                  obj/main/NAZE/flight/imu.o (symbol from plugin)
                                                  obj/main/NAZE/fc/fc_core.o (symbol from plugin)
                                                  obj/main/NAZE/common/filter.o (symbol from plugin)
                                                  obj/main/NAZE/navigation/navigation_pos_estimator.o (symbol from plugin)
                                                  obj/main/NAZE/navigation/navigation_multicopter.o (symbol from plugin)
                                                  obj/main/NAZE/navigation/navigation_geo.o (symbol from plugin)
                                                  obj/main/NAZE/navigation/navigation_fw_launch.o (symbol from plugin)
                                                  obj/main/NAZE/navigation/navigation_fixedwing.o (symbol from plugin)
                                                  obj/main/NAZE/navigation/navigation.o (symbol from plugin)
couldBeBusy.lto_priv.485                          /tmp/ccELukx5.ltrans0.ltrans.o
                                                  /tmp/ccELukx5.ltrans6.ltrans.o
crc16_ccitt                                       obj/main/NAZE/common/crc.o (symbol from plugin)
                                                  obj/main/NAZE/drivers/rx_xn297.o (symbol from plugin)
                                                  obj/main/NAZE/config/config_eeprom.o (symbol from plugin)
crc16_ccitt_sbuf_append                           obj/main/NAZE/common/crc.o (symbol from plugin)
crc16_ccitt_update                                obj/main/NAZE/common/crc.o (symbol from plugin)
crc8_dvb_s2                                       /tmp/ccELukx5.ltrans22.ltrans.o
                                                  obj/main/NAZE/common/crc.o (symbol from plugin)
                                                  /tmp/ccELukx5.ltrans2.ltrans.o
                                                  obj/main/NAZE/msp/msp_serial.o (symbol from plugin)
crc8_dvb_s2_sbuf_append                           obj/main/NAZE/common/crc.o (symbol from plugin)
crc8_dvb_s2_update                                /tmp/ccELukx5.ltrans22.ltrans.o
                                                  obj/main/NAZE/common/crc.o (symbol from plugin)
                                                  /tmp/ccELukx5.ltrans2.ltrans.o
                                                  obj/main/NAZE/msp/msp_serial.o (symbol from plugin)
createDefaultConfig                               obj/main/NAZE/fc/config.o (symbol from plugin)
currentControlRateProfile                         /tmp/ccELukx5.ltrans9.ltrans.o
                                                  obj/main/NAZE/fc/controlrate_profile.o (symbol from plugin)
                                                  /tmp/ccELukx5.ltrans21.ltrans.o
                                                  /tmp/ccELukx5.ltrans15.ltrans.o
                                                  /tmp/ccELukx5.ltrans13.ltrans.o
                                                  /tmp/ccELukx5.ltrans6.ltrans.o
                                                  /tmp/ccELukx5.ltrans4.ltrans.o
                                                  /tmp/ccELukx5.ltrans3.ltrans.o
                                                  /tmp/ccELukx5.ltrans2.ltrans.o
                                                  /tmp/ccELukx5.ltrans1.ltrans.o
                                                  obj/main/NAZE/flight/pid.o (symbol from plugin)
                                                  obj/main/NAZE/flight/failsafe.o (symbol from plugin)
                                                  obj/main/NAZE/fc/fc_msp.o (symbol from plugin)
                                                  obj/main/NAZE/fc/fc_core.o (symbol from plugin)
                                                  obj/main/NAZE/navigation/navigation_fixedwing.o (symbol from plugin)
                                                  obj/main/NAZE/blackbox/blackbox.o (symbol from plugin)
currentMeterUpdate                                obj/main/NAZE/sensors/battery.o (symbol from plugin)
                                                  obj/main/NAZE/fc/fc_tasks.o (symbol from plugin)
currentMixer.lto_priv.407                         /tmp/ccELukx5.ltrans1.ltrans.o
                                                  /tmp/ccELukx5.ltrans0.ltrans.o
currentOutputState                                obj/main/NAZE/drivers/io_pca9685.o (symbol from plugin)
currentSensorToCentiamps                          obj/main/NAZE/sensors/battery.o (symbol from plugin)
currentServoMixer.lto_priv.267                    /tmp/ccELukx5.ltrans9.ltrans.o
                                                  /tmp/ccELukx5.ltrans1.ltrans.o
                                                  /tmp/ccELukx5.ltrans0.ltrans.o
currentTask.lto_priv.189                          /tmp/ccELukx5.ltrans18.ltrans.o
                                                  /tmp/ccELukx5.ltrans10.ltrans.o
                                                  /tmp/ccELukx5.ltrans1.ltrans.o
                                                  /tmp/ccELukx5.ltrans0.ltrans.o
customMotorMixer_CopyArray                        obj/main/NAZE/flight/mixer.o (symbol from plugin)
                                                  obj/main/NAZE/fc/cli.o (symbol from plugin)
customMotorMixer_Registry                         /tmp/ccELukx5.ltrans21.ltrans.o
                                                  obj/main/NAZE/flight/mixer.o (symbol from plugin)
customMotorMixer_SystemArray                      /tmp/ccELukx5.ltrans21.ltrans.o
                                                  obj/main/NAZE/flight/mixer.o (symbol from plugin)
                                                  /tmp/ccELukx5.ltrans16.ltrans.o
                                                  /tmp/ccELukx5.ltrans0.ltrans.o
                                                  obj/main/NAZE/fc/cli.o (symbol from plugin)
customServoMixers_CopyArray                       /tmp/ccELukx5.ltrans9.ltrans.o
                                                  obj/main/NAZE/flight/servos.o (symbol from plugin)
                                                  /tmp/ccELukx5.ltrans21.ltrans.o
                                                  obj/main/NAZE/fc/cli.o (symbol from plugin)
customServoMixers_Registry                        /tmp/ccELukx5.ltrans9.ltrans.o
                                                  obj/main/NAZE/flight/servos.o (symbol from plugin)
customServoMixers_SystemArray                     /tmp/ccELukx5.ltrans9.ltrans.o
                                                  obj/main/NAZE/flight/servos.o (symbol from plugin)
                                                  /tmp/ccELukx5.ltrans21.ltrans.o
                                                  /tmp/ccELukx5.ltrans16.ltrans.o
                                                  /tmp/ccELukx5.ltrans3.ltrans.o
                                                  /tmp/ccELukx5.ltrans2.ltrans.o
                                                  obj/main/NAZE/fc/fc_msp.o (symbol from plugin)
                                                  obj/main/NAZE/fc/cli.o (symbol from plugin)
cycleCounterInit                                  obj/main/NAZE/drivers/system.o (symbol from plugin)
                                                  obj/main/NAZE/drivers/system_stm32f10x.o (symbol from plugin)
cycleTime                                         /tmp/ccELukx5.ltrans3.ltrans.o
                                                  obj/main/NAZE/fc/fc_core.o (symbol from plugin)
                                                  /tmp/ccELukx5.ltrans17.ltrans.o
                                                  /tmp/ccELukx5.ltrans1.ltrans.o
                                                  obj/main/NAZE/fc/fc_msp.o (symbol from plugin)
                                                  obj/main/NAZE/fc/cli.o (symbol from plugin)
dT                                                /tmp/ccELukx5.ltrans9.ltrans.o
                                                  obj/main/NAZE/fc/fc_core.o (symbol from plugin)
                                                  /tmp/ccELukx5.ltrans1.ltrans.o
                                                  obj/main/NAZE/flight/pid.o (symbol from plugin)
debug                                             /tmp/ccELukx5.ltrans3.ltrans.o
                                                  obj/main/NAZE/build/debug.o (symbol from plugin)
                                                  /tmp/ccELukx5.ltrans25.ltrans.o
                                                  /tmp/ccELukx5.ltrans12.ltrans.o
                                                  /tmp/ccELukx5.ltrans6.ltrans.o
                                                  /tmp/ccELukx5.ltrans1.ltrans.o
                                                  obj/main/NAZE/sensors/gyro.o (symbol from plugin)
                                                  obj/main/NAZE/fc/fc_msp.o (symbol from plugin)
                                                  obj/main/NAZE/navigation/navigation_multicopter.o (symbol from plugin)
                                                  obj/main/NAZE/navigation/navigation.o (symbol from plugin)
                                                  obj/main/NAZE/blackbox/blackbox.o (symbol from plugin)
debugMode                                         /tmp/ccELukx5.ltrans1.ltrans.o
                                                  obj/main/NAZE/build/debug.o (symbol from plugin)
                                                  /tmp/ccELukx5.ltrans25.ltrans.o
                                                  /tmp/ccELukx5.ltrans15.ltrans.o
                                                  /tmp/ccELukx5.ltrans12.ltrans.o
                                                  /tmp/ccELukx5.ltrans0.ltrans.o
                                                  obj/main/NAZE/sensors/gyro.o (symbol from plugin)
                                                  obj/main/NAZE/fc/fc_init.o (symbol from plugin)
                                                  obj/main/NAZE/navigation/navigation_multicopter.o (symbol from plugin)
                                                  obj/main/NAZE/navigation/navigation.o (symbol from plugin)
                                                  obj/main/NAZE/blackbox/blackbox.o (symbol from plugin)
degreesToRadians                                  obj/main/NAZE/common/maths.o (symbol from plugin)
                                                  obj/main/NAZE/flight/imu.o (symbol from plugin)
                                                  obj/main/NAZE/fc/fc_core.o (symbol from plugin)
delay                                             /tmp/ccELukx5.ltrans19.ltrans.o
                                                  obj/main/NAZE/drivers/system.o (symbol from plugin)
                                                  /tmp/ccELukx5.ltrans29.ltrans.o
                                                  /tmp/ccELukx5.ltrans18.ltrans.o
                                                  /tmp/ccELukx5.ltrans17.ltrans.o
                                                  /tmp/ccELukx5.ltrans16.ltrans.o
                                                  /tmp/ccELukx5.ltrans14.ltrans.o
                                                  /tmp/ccELukx5.ltrans7.ltrans.o
                                                  /tmp/ccELukx5.ltrans6.ltrans.o
                                                  /tmp/ccELukx5.ltrans5.ltrans.o
                                                  /tmp/ccELukx5.ltrans2.ltrans.o
                                                  /tmp/ccELukx5.ltrans0.ltrans.o
                                                  obj/main/NAZE/sensors/battery.o (symbol from plugin)
                                                  obj/main/NAZE/io/serial.o (symbol from plugin)
                                                  obj/main/NAZE/flight/mixer.o (symbol from plugin)
                                                  obj/main/NAZE/fc/fc_msp.o (symbol from plugin)
                                                  obj/main/NAZE/fc/fc_init.o (symbol from plugin)
                                                  obj/main/NAZE/fc/cli.o (symbol from plugin)
                                                  obj/main/NAZE/drivers/io_pca9685.o (symbol from plugin)
                                                  obj/main/NAZE/hardware_revision.o (symbol from plugin)
                                                  obj/main/NAZE/drivers/flash_m25p16.o (symbol from plugin)
                                                  obj/main/NAZE/drivers/compass/compass_qmc5883l.o (symbol from plugin)
                                                  obj/main/NAZE/drivers/compass/compass_hmc5883l.o (symbol from plugin)
                                                  obj/main/NAZE/drivers/barometer/barometer_ms56xx.o (symbol from plugin)
                                                  obj/main/NAZE/drivers/barometer/barometer_bmp280.o (symbol from plugin)
                                                  obj/main/NAZE/drivers/accgyro/accgyro_mpu6500.o (symbol from plugin)
                                                  obj/main/NAZE/drivers/accgyro/accgyro_mpu6050.o (symbol from plugin)
                                                  obj/main/NAZE/drivers/accgyro/accgyro_mpu.o (symbol from plugin)
                                                  obj/main/NAZE/drivers/serial_softserial.o (symbol from plugin)
delayMicroseconds                                 /tmp/ccELukx5.ltrans19.ltrans.o
                                                  obj/main/NAZE/drivers/system.o (symbol from plugin)
                                                  /tmp/ccELukx5.ltrans20.ltrans.o
                                                  /tmp/ccELukx5.ltrans0.ltrans.o
                                                  obj/main/NAZE/drivers/barometer/barometer_ms56xx.o (symbol from plugin)
                                                  obj/main/NAZE/drivers/bus_i2c_stm32f10x.o (symbol from plugin)
detectHardwareRevision                            obj/main/NAZE/hardware_revision.o (symbol from plugin)
                                                  obj/main/NAZE/fc/fc_init.o (symbol from plugin)
detectSpiDevice                                   obj/main/NAZE/hardware_revision.o (symbol from plugin)
detectedSensors                                   /tmp/ccELukx5.ltrans18.ltrans.o
                                                  obj/main/NAZE/sensors/initialisation.o (symbol from plugin)
                                                  /tmp/ccELukx5.ltrans17.ltrans.o
                                                  /tmp/ccELukx5.ltrans0.ltrans.o
                                                  obj/main/NAZE/sensors/gyro.o (symbol from plugin)
                                                  obj/main/NAZE/sensors/diagnostics.o (symbol from plugin)
                                                  obj/main/NAZE/sensors/compass.o (symbol from plugin)
                                                  obj/main/NAZE/sensors/acceleration.o (symbol from plugin)
                                                  obj/main/NAZE/fc/cli.o (symbol from plugin)
                                                  obj/main/NAZE/sensors/barometer.o (symbol from plugin)
determinePortSharing                              /tmp/ccELukx5.ltrans18.ltrans.o
                                                  obj/main/NAZE/io/serial.o (symbol from plugin)
                                                  /tmp/ccELukx5.ltrans15.ltrans.o
                                                  /tmp/ccELukx5.ltrans0.ltrans.o
                                                  obj/main/NAZE/telemetry/ltm.o (symbol from plugin)
                                                  obj/main/NAZE/telemetry/frsky.o (symbol from plugin)
                                                  obj/main/NAZE/blackbox/blackbox_io.o (symbol from plugin)
determineServoMiddleOrForwardFromChannel          /tmp/ccELukx5.ltrans9.ltrans.o
                                                  obj/main/NAZE/flight/servos.o (symbol from plugin)
                                                  /tmp/ccELukx5.ltrans1.ltrans.o
devClear                                          obj/main/NAZE/common/maths.o (symbol from plugin)
                                                  obj/main/NAZE/sensors/gyro.o (symbol from plugin)
devPush                                           obj/main/NAZE/common/maths.o (symbol from plugin)
                                                  obj/main/NAZE/sensors/gyro.o (symbol from plugin)
devStandardDeviation                              obj/main/NAZE/common/maths.o (symbol from plugin)
                                                  obj/main/NAZE/sensors/gyro.o (symbol from plugin)
devVariance                                       obj/main/NAZE/common/maths.o (symbol from plugin)
disableFlightMode                                 /tmp/ccELukx5.ltrans7.ltrans.o
                                                  obj/main/NAZE/fc/runtime_config.o (symbol from plugin)
                                                  /tmp/ccELukx5.ltrans4.ltrans.o
                                                  /tmp/ccELukx5.ltrans1.ltrans.o
                                                  obj/main/NAZE/flight/failsafe.o (symbol from plugin)
                                                  obj/main/NAZE/fc/fc_core.o (symbol from plugin)
                                                  obj/main/NAZE/navigation/navigation.o (symbol from plugin)
disarmAt.lto_priv.289                             /tmp/ccELukx5.ltrans4.ltrans.o
                                                  /tmp/ccELukx5.ltrans15.ltrans.o
displayClearScreen                                obj/main/NAZE/drivers/display.o (symbol from plugin)
displayDrawScreen                                 obj/main/NAZE/drivers/display.o (symbol from plugin)
displayGrab                                       obj/main/NAZE/drivers/display.o (symbol from plugin)
displayHeartbeat                                  obj/main/NAZE/drivers/display.o (symbol from plugin)
displayInit                                       obj/main/NAZE/drivers/display.o (symbol from plugin)
                                                  obj/main/NAZE/io/displayport_oled.o (symbol from plugin)
displayIsGrabbed                                  obj/main/NAZE/drivers/display.o (symbol from plugin)
displayIsTransferInProgress                       obj/main/NAZE/drivers/display.o (symbol from plugin)
displayPortOledInit                               obj/main/NAZE/io/displayport_oled.o (symbol from plugin)
displayRelease                                    obj/main/NAZE/drivers/display.o (symbol from plugin)
displayReleaseAll                                 obj/main/NAZE/drivers/display.o (symbol from plugin)
displayResync                                     obj/main/NAZE/drivers/display.o (symbol from plugin)
displayScreenSize                                 obj/main/NAZE/drivers/display.o (symbol from plugin)
displaySetXY                                      obj/main/NAZE/drivers/display.o (symbol from plugin)
displayTxBytesFree                                obj/main/NAZE/drivers/display.o (symbol from plugin)
displayWrite                                      obj/main/NAZE/drivers/display.o (symbol from plugin)
displayWriteChar                                  obj/main/NAZE/drivers/display.o (symbol from plugin)
dmaEnableClock                                    obj/main/NAZE/drivers/dma.o (symbol from plugin)
dmaFindHandlerIdentifier                          obj/main/NAZE/drivers/dma.o (symbol from plugin)
dmaInit                                           obj/main/NAZE/drivers/dma.o (symbol from plugin)
dmaSetHandler                                     obj/main/NAZE/drivers/dma.o (symbol from plugin)
doesConfigurationUsePort                          obj/main/NAZE/io/serial.o (symbol from plugin)
                                                  obj/main/NAZE/fc/fc_init.o (symbol from plugin)
dumpAllValues.lto_priv.329                        /tmp/ccELukx5.ltrans14.ltrans.o
                                                  /tmp/ccELukx5.ltrans21.ltrans.o
                                                  /tmp/ccELukx5.ltrans17.ltrans.o
eepromConfigSize.lto_priv.356                     /tmp/ccELukx5.ltrans17.ltrans.o
                                                  /tmp/ccELukx5.ltrans8.ltrans.o
enableFixedWingLaunchController                   obj/main/NAZE/navigation/navigation_fw_launch.o (symbol from plugin)
                                                  obj/main/NAZE/navigation/navigation.o (symbol from plugin)
enableFlightMode                                  /tmp/ccELukx5.ltrans7.ltrans.o
                                                  obj/main/NAZE/fc/runtime_config.o (symbol from plugin)
                                                  /tmp/ccELukx5.ltrans4.ltrans.o
                                                  /tmp/ccELukx5.ltrans1.ltrans.o
                                                  obj/main/NAZE/flight/failsafe.o (symbol from plugin)
                                                  obj/main/NAZE/fc/fc_core.o (symbol from plugin)
                                                  obj/main/NAZE/navigation/navigation.o (symbol from plugin)
enableGPIOPowerUsageAndNoiseReductions            obj/main/NAZE/drivers/system_stm32f10x.o (symbol from plugin)
enableInverter                                    obj/main/NAZE/drivers/inverter.o (symbol from plugin)
                                                  obj/main/NAZE/drivers/serial_uart.o (symbol from plugin)
enabledSensors.lto_priv.178                       /tmp/ccELukx5.ltrans18.ltrans.o
                                                  /tmp/ccELukx5.ltrans27.ltrans.o
                                                  /tmp/ccELukx5.ltrans17.ltrans.o
                                                  /tmp/ccELukx5.ltrans15.ltrans.o
                                                  /tmp/ccELukx5.ltrans11.ltrans.o
                                                  /tmp/ccELukx5.ltrans10.ltrans.o
                                                  /tmp/ccELukx5.ltrans7.ltrans.o
                                                  /tmp/ccELukx5.ltrans4.ltrans.o
                                                  /tmp/ccELukx5.ltrans3.ltrans.o
                                                  /tmp/ccELukx5.ltrans1.ltrans.o
                                                  /tmp/ccELukx5.ltrans0.ltrans.o
end                                               /usr/bin/../lib/gcc/arm-none-eabi/4.9.3/../../../../arm-none-eabi/lib/armv7-m/libnosys.a(sbrk.o)
ensureEEPROMContainsValidData                     obj/main/NAZE/fc/config.o (symbol from plugin)
                                                  obj/main/NAZE/fc/fc_init.o (symbol from plugin)
errno                                             /usr/bin/../lib/gcc/arm-none-eabi/4.9.3/../../../../arm-none-eabi/lib/armv7-m/libc_nano.a(lib_a-reent.o)
                                                  /usr/bin/../lib/gcc/arm-none-eabi/4.9.3/../../../../arm-none-eabi/lib/armv7-m/libc_nano.a(lib_a-sbrkr.o)
extiChannelRecs                                   /tmp/ccELukx5.ltrans24.ltrans.o
                                                  obj/main/NAZE/drivers/exti.o (symbol from plugin)
                                                  /tmp/ccELukx5.ltrans8.ltrans.o
                                                  /tmp/ccELukx5.ltrans0.ltrans.o
extiGroupPriority.lto_priv.423                    /tmp/ccELukx5.ltrans24.ltrans.o
                                                  /tmp/ccELukx5.ltrans0.ltrans.o
extiHandlerConfigs                                obj/main/NAZE/drivers/system.o (symbol from plugin)
                                                  obj/main/NAZE/drivers/system_stm32f10x.o (symbol from plugin)
extractAndStoreRxByte                             obj/main/NAZE/drivers/serial_softserial.o (symbol from plugin)
fabsf                                             /usr/bin/../lib/gcc/arm-none-eabi/4.9.3/../../../../arm-none-eabi/lib/armv7-m/libm.a(lib_a-sf_fabs.o)
                                                  /usr/bin/../lib/gcc/arm-none-eabi/4.9.3/../../../../arm-none-eabi/lib/armv7-m/libm.a(lib_a-ef_pow.o)
failsafeActivate.lto_priv.253                     /tmp/ccELukx5.ltrans7.ltrans.o
                                                  /tmp/ccELukx5.ltrans4.ltrans.o
failsafeApplyControlInput                         obj/main/NAZE/flight/failsafe.o (symbol from plugin)
                                                  obj/main/NAZE/fc/fc_core.o (symbol from plugin)
failsafeConfig_Copy                               obj/main/NAZE/flight/failsafe.o (symbol from plugin)
failsafeConfig_Registry                           /tmp/ccELukx5.ltrans7.ltrans.o
                                                  obj/main/NAZE/flight/failsafe.o (symbol from plugin)
failsafeConfig_System                             /tmp/ccELukx5.ltrans7.ltrans.o
                                                  obj/main/NAZE/flight/failsafe.o (symbol from plugin)
                                                  /tmp/ccELukx5.ltrans21.ltrans.o
                                                  /tmp/ccELukx5.ltrans15.ltrans.o
                                                  /tmp/ccELukx5.ltrans13.ltrans.o
                                                  /tmp/ccELukx5.ltrans4.ltrans.o
                                                  /tmp/ccELukx5.ltrans3.ltrans.o
                                                  /tmp/ccELukx5.ltrans2.ltrans.o
                                                  /tmp/ccELukx5.ltrans1.ltrans.o
                                                  obj/main/NAZE/fc/fc_msp.o (symbol from plugin)
                                                  obj/main/NAZE/navigation/navigation_multicopter.o (symbol from plugin)
                                                  obj/main/NAZE/navigation/navigation_fixedwing.o (symbol from plugin)
failsafeInit                                      obj/main/NAZE/flight/failsafe.o (symbol from plugin)
                                                  obj/main/NAZE/fc/fc_init.o (symbol from plugin)
failsafeIsActive                                  obj/main/NAZE/flight/failsafe.o (symbol from plugin)
                                                  obj/main/NAZE/flight/mixer.o (symbol from plugin)
                                                  obj/main/NAZE/fc/rc_controls.o (symbol from plugin)
                                                  obj/main/NAZE/fc/fc_core.o (symbol from plugin)
                                                  obj/main/NAZE/telemetry/ltm.o (symbol from plugin)
failsafeIsMonitoring                              obj/main/NAZE/flight/failsafe.o (symbol from plugin)
                                                  obj/main/NAZE/fc/fc_core.o (symbol from plugin)
failsafeIsReceivingRxData                         obj/main/NAZE/flight/failsafe.o (symbol from plugin)
                                                  obj/main/NAZE/fc/fc_core.o (symbol from plugin)
failsafeMayRequireNavigationMode                  obj/main/NAZE/flight/failsafe.o (symbol from plugin)
                                                  obj/main/NAZE/navigation/navigation.o (symbol from plugin)
failsafeOnRxResume                                obj/main/NAZE/flight/failsafe.o (symbol from plugin)
                                                  obj/main/NAZE/rx/rx.o (symbol from plugin)
failsafeOnRxSuspend                               obj/main/NAZE/flight/failsafe.o (symbol from plugin)
                                                  obj/main/NAZE/rx/rx.o (symbol from plugin)
failsafeOnValidDataFailed                         obj/main/NAZE/flight/failsafe.o (symbol from plugin)
                                                  obj/main/NAZE/rx/rx.o (symbol from plugin)
failsafeOnValidDataReceived                       obj/main/NAZE/flight/failsafe.o (symbol from plugin)
                                                  obj/main/NAZE/rx/rx.o (symbol from plugin)
failsafePhase                                     obj/main/NAZE/flight/failsafe.o (symbol from plugin)
                                                  obj/main/NAZE/blackbox/blackbox.o (symbol from plugin)
failsafeProcedureLogic.lto_priv.272               /tmp/ccELukx5.ltrans7.ltrans.o
                                                  /tmp/ccELukx5.ltrans1.ltrans.o
failsafeRequiresAngleMode                         /tmp/ccELukx5.ltrans7.ltrans.o
                                                  obj/main/NAZE/flight/failsafe.o (symbol from plugin)
                                                  /tmp/ccELukx5.ltrans4.ltrans.o
                                                  obj/main/NAZE/fc/fc_core.o (symbol from plugin)
failsafeRequiresMotorStop                         obj/main/NAZE/flight/failsafe.o (symbol from plugin)
                                                  obj/main/NAZE/flight/mixer.o (symbol from plugin)
failsafeReset                                     obj/main/NAZE/flight/failsafe.o (symbol from plugin)
                                                  obj/main/NAZE/fc/config.o (symbol from plugin)
failsafeShouldApplyControlInput                   obj/main/NAZE/flight/failsafe.o (symbol from plugin)
                                                  obj/main/NAZE/fc/fc_core.o (symbol from plugin)
failsafeStartMonitoring                           obj/main/NAZE/flight/failsafe.o (symbol from plugin)
                                                  obj/main/NAZE/fc/fc_core.o (symbol from plugin)
failsafeState.lto_priv.181                        /tmp/ccELukx5.ltrans18.ltrans.o
                                                  /tmp/ccELukx5.ltrans21.ltrans.o
                                                  /tmp/ccELukx5.ltrans15.ltrans.o
                                                  /tmp/ccELukx5.ltrans10.ltrans.o
                                                  /tmp/ccELukx5.ltrans7.ltrans.o
                                                  /tmp/ccELukx5.ltrans6.ltrans.o
                                                  /tmp/ccELukx5.ltrans4.ltrans.o
                                                  /tmp/ccELukx5.ltrans1.ltrans.o
                                                  /tmp/ccELukx5.ltrans0.ltrans.o
failsafeUpdateRcCommandValues                     obj/main/NAZE/flight/failsafe.o (symbol from plugin)
                                                  obj/main/NAZE/fc/fc_core.o (symbol from plugin)
failsafeUpdateState                               obj/main/NAZE/flight/failsafe.o (symbol from plugin)
                                                  obj/main/NAZE/fc/fc_core.o (symbol from plugin)
failureMode                                       /tmp/ccELukx5.ltrans14.ltrans.o
                                                  obj/main/NAZE/drivers/system.o (symbol from plugin)
                                                  /tmp/ccELukx5.ltrans15.ltrans.o
                                                  /tmp/ccELukx5.ltrans0.ltrans.o
                                                  obj/main/NAZE/fc/fc_init.o (symbol from plugin)
                                                  obj/main/NAZE/fc/config.o (symbol from plugin)
                                                  obj/main/NAZE/config/config_eeprom.o (symbol from plugin)
                                                  obj/main/NAZE/drivers/accgyro/accgyro_mpu.o (symbol from plugin)
fastA2F                                           /tmp/ccELukx5.ltrans22.ltrans.o
                                                  obj/main/NAZE/common/typeconversion.o (symbol from plugin)
                                                  /tmp/ccELukx5.ltrans17.ltrans.o
                                                  /tmp/ccELukx5.ltrans16.ltrans.o
                                                  obj/main/NAZE/fc/cli.o (symbol from plugin)
fastA2I                                           /tmp/ccELukx5.ltrans8.ltrans.o
                                                  obj/main/NAZE/common/typeconversion.o (symbol from plugin)
                                                  /tmp/ccELukx5.ltrans17.ltrans.o
                                                  /tmp/ccELukx5.ltrans16.ltrans.o
                                                  /tmp/ccELukx5.ltrans14.ltrans.o
                                                  obj/main/NAZE/fc/cli.o (symbol from plugin)
fastA2UL                                          obj/main/NAZE/common/typeconversion.o (symbol from plugin)
                                                  obj/main/NAZE/fc/cli.o (symbol from plugin)
fcTasksInit                                       obj/main/NAZE/fc/fc_tasks.o (symbol from plugin)
                                                  obj/main/NAZE/fc/fc_init.o (symbol from plugin)
feature                                           obj/main/NAZE/config/feature.o (symbol from plugin)
                                                  obj/main/NAZE/sensors/diagnostics.o (symbol from plugin)
                                                  obj/main/NAZE/sensors/battery.o (symbol from plugin)
                                                  obj/main/NAZE/rx/rx.o (symbol from plugin)
                                                  obj/main/NAZE/rx/pwm.o (symbol from plugin)
                                                  obj/main/NAZE/io/beeper.o (symbol from plugin)
                                                  obj/main/NAZE/flight/servos.o (symbol from plugin)
                                                  obj/main/NAZE/flight/mixer.o (symbol from plugin)
                                                  obj/main/NAZE/flight/imu.o (symbol from plugin)
                                                  obj/main/NAZE/flight/failsafe.o (symbol from plugin)
                                                  obj/main/NAZE/fc/rc_modes.o (symbol from plugin)
                                                  obj/main/NAZE/fc/rc_controls.o (symbol from plugin)
                                                  obj/main/NAZE/fc/rc_adjustments.o (symbol from plugin)
                                                  obj/main/NAZE/fc/fc_msp.o (symbol from plugin)
                                                  obj/main/NAZE/fc/fc_tasks.o (symbol from plugin)
                                                  obj/main/NAZE/fc/fc_init.o (symbol from plugin)
                                                  obj/main/NAZE/fc/fc_core.o (symbol from plugin)
                                                  obj/main/NAZE/telemetry/frsky.o (symbol from plugin)
                                                  obj/main/NAZE/io/gps.o (symbol from plugin)
                                                  obj/main/NAZE/blackbox/blackbox.o (symbol from plugin)
featureClear                                      /tmp/ccELukx5.ltrans8.ltrans.o
                                                  obj/main/NAZE/config/feature.o (symbol from plugin)
                                                  /tmp/ccELukx5.ltrans21.ltrans.o
                                                  /tmp/ccELukx5.ltrans16.ltrans.o
                                                  /tmp/ccELukx5.ltrans0.ltrans.o
                                                  obj/main/NAZE/rx/rx.o (symbol from plugin)
                                                  obj/main/NAZE/fc/fc_init.o (symbol from plugin)
                                                  obj/main/NAZE/fc/config.o (symbol from plugin)
                                                  obj/main/NAZE/fc/cli.o (symbol from plugin)
                                                  obj/main/NAZE/io/gps.o (symbol from plugin)
featureClearAll                                   obj/main/NAZE/config/feature.o (symbol from plugin)
                                                  obj/main/NAZE/fc/fc_msp.o (symbol from plugin)
featureConfig_Copy                                /tmp/ccELukx5.ltrans3.ltrans.o
                                                  obj/main/NAZE/fc/config.o (symbol from plugin)
                                                  /tmp/ccELukx5.ltrans21.ltrans.o
                                                  obj/main/NAZE/fc/cli.o (symbol from plugin)
featureConfig_Registry                            /tmp/ccELukx5.ltrans3.ltrans.o
                                                  obj/main/NAZE/fc/config.o (symbol from plugin)
featureConfig_System                              /tmp/ccELukx5.ltrans3.ltrans.o
                                                  obj/main/NAZE/fc/config.o (symbol from plugin)
                                                  /tmp/ccELukx5.ltrans21.ltrans.o
                                                  /tmp/ccELukx5.ltrans16.ltrans.o
                                                  /tmp/ccELukx5.ltrans8.ltrans.o
                                                  /tmp/ccELukx5.ltrans6.ltrans.o
                                                  /tmp/ccELukx5.ltrans2.ltrans.o
                                                  /tmp/ccELukx5.ltrans0.ltrans.o
                                                  obj/main/NAZE/fc/cli.o (symbol from plugin)
                                                  obj/main/NAZE/config/feature.o (symbol from plugin)
                                                  obj/main/NAZE/blackbox/blackbox.o (symbol from plugin)
featureConfigured                                 obj/main/NAZE/config/feature.o (symbol from plugin)
                                                  obj/main/NAZE/fc/config.o (symbol from plugin)
featureMask                                       obj/main/NAZE/config/feature.o (symbol from plugin)
                                                  obj/main/NAZE/fc/fc_msp.o (symbol from plugin)
                                                  obj/main/NAZE/fc/cli.o (symbol from plugin)
featureNames.lto_priv.351                         /tmp/ccELukx5.ltrans21.ltrans.o
                                                  /tmp/ccELukx5.ltrans16.ltrans.o
featureSet                                        obj/main/NAZE/config/feature.o (symbol from plugin)
                                                  obj/main/NAZE/fc/fc_msp.o (symbol from plugin)
                                                  obj/main/NAZE/fc/config.o (symbol from plugin)
                                                  obj/main/NAZE/fc/cli.o (symbol from plugin)
filterGetNotchQ                                   obj/main/NAZE/common/filter.o (symbol from plugin)
filterRc                                          obj/main/NAZE/fc/fc_core.o (symbol from plugin)
findMixer                                         /tmp/ccELukx5.ltrans7.ltrans.o
                                                  obj/main/NAZE/flight/mixer.o (symbol from plugin)
                                                  /tmp/ccELukx5.ltrans21.ltrans.o
                                                  /tmp/ccELukx5.ltrans16.ltrans.o
                                                  /tmp/ccELukx5.ltrans0.ltrans.o
                                                  obj/main/NAZE/flight/servos.o (symbol from plugin)
findNextSerialPortConfig                          obj/main/NAZE/io/serial.o (symbol from plugin)
                                                  obj/main/NAZE/msp/msp_serial.o (symbol from plugin)
findNextSharedSerialPort                          obj/main/NAZE/io/serial.o (symbol from plugin)
                                                  obj/main/NAZE/fc/fc_core.o (symbol from plugin)
findNextSharedSerialPort.constprop.11             /tmp/ccELukx5.ltrans24.ltrans.o
                                                  /tmp/ccELukx5.ltrans15.ltrans.o
                                                  /tmp/ccELukx5.ltrans4.ltrans.o
findSerialPortConfig                              /tmp/ccELukx5.ltrans9.ltrans.o
                                                  obj/main/NAZE/io/serial.o (symbol from plugin)
                                                  /tmp/ccELukx5.ltrans18.ltrans.o
                                                  /tmp/ccELukx5.ltrans15.ltrans.o
                                                  /tmp/ccELukx5.ltrans0.ltrans.o
                                                  obj/main/NAZE/rx/spektrum.o (symbol from plugin)
                                                  obj/main/NAZE/rx/sbus.o (symbol from plugin)
                                                  obj/main/NAZE/msp/msp_serial.o (symbol from plugin)
                                                  obj/main/NAZE/io/rcsplit.o (symbol from plugin)
                                                  obj/main/NAZE/telemetry/ltm.o (symbol from plugin)
                                                  obj/main/NAZE/telemetry/frsky.o (symbol from plugin)
                                                  obj/main/NAZE/io/gps.o (symbol from plugin)
                                                  obj/main/NAZE/blackbox/blackbox_io.o (symbol from plugin)
findSerialPortConfigState.lto_priv.145            /tmp/ccELukx5.ltrans18.ltrans.o
                                                  /tmp/ccELukx5.ltrans9.ltrans.o
findSerialPortIndexByIdentifier                   obj/main/NAZE/io/serial.o (symbol from plugin)
findSerialPortUsageByIdentifier                   obj/main/NAZE/io/serial.o (symbol from plugin)
findSerialPortUsageByPort                         obj/main/NAZE/io/serial.o (symbol from plugin)
findSharedSerialPort                              obj/main/NAZE/io/serial.o (symbol from plugin)
                                                  obj/main/NAZE/fc/fc_core.o (symbol from plugin)
                                                  obj/main/NAZE/blackbox/blackbox_io.o (symbol from plugin)
findSharedSerialPortState.lto_priv.241            /tmp/ccELukx5.ltrans24.ltrans.o
                                                  /tmp/ccELukx5.ltrans15.ltrans.o
                                                  /tmp/ccELukx5.ltrans4.ltrans.o
finitef                                           /usr/bin/../lib/gcc/arm-none-eabi/4.9.3/../../../../arm-none-eabi/lib/armv7-m/libm.a(lib_a-sf_finite.o)
                                                  /usr/bin/../lib/gcc/arm-none-eabi/4.9.3/../../../../arm-none-eabi/lib/armv7-m/libm.a(lib_a-wf_pow.o)
firFilterApply                                    obj/main/NAZE/common/filter.o (symbol from plugin)
                                                  obj/main/NAZE/flight/pid.o (symbol from plugin)
firFilterInit                                     obj/main/NAZE/common/filter.o (symbol from plugin)
                                                  obj/main/NAZE/flight/pid.o (symbol from plugin)
firFilterInit2                                    obj/main/NAZE/common/filter.o (symbol from plugin)
firFilterUpdate                                   obj/main/NAZE/common/filter.o (symbol from plugin)
                                                  obj/main/NAZE/flight/pid.o (symbol from plugin)
flashLedsAndBeep                                  obj/main/NAZE/fc/fc_init.o (symbol from plugin)
flashWriteBuffer.lto_priv.483                     /tmp/ccELukx5.ltrans26.ltrans.o
                                                  /tmp/ccELukx5.ltrans6.ltrans.o
flashfsAdvanceTailInBuffer.lto_priv.467           /tmp/ccELukx5.ltrans6.ltrans.o
                                                  /tmp/ccELukx5.ltrans26.ltrans.o
flashfsEraseCompletely                            /tmp/ccELukx5.ltrans6.ltrans.o
                                                  obj/main/NAZE/io/flashfs.o (symbol from plugin)
                                                  /tmp/ccELukx5.ltrans16.ltrans.o
                                                  /tmp/ccELukx5.ltrans2.ltrans.o
                                                  obj/main/NAZE/fc/fc_msp.o (symbol from plugin)
                                                  obj/main/NAZE/fc/cli.o (symbol from plugin)
flashfsEraseRange                                 obj/main/NAZE/io/flashfs.o (symbol from plugin)
flashfsFlushAsync                                 /tmp/ccELukx5.ltrans6.ltrans.o
                                                  obj/main/NAZE/io/flashfs.o (symbol from plugin)
                                                  /tmp/ccELukx5.ltrans26.ltrans.o
                                                  /tmp/ccELukx5.ltrans23.ltrans.o
                                                  obj/main/NAZE/blackbox/blackbox_io.o (symbol from plugin)
flashfsFlushSync                                  /tmp/ccELukx5.ltrans6.ltrans.o
                                                  obj/main/NAZE/io/flashfs.o (symbol from plugin)
                                                  /tmp/ccELukx5.ltrans2.ltrans.o
                                                  /tmp/ccELukx5.ltrans0.ltrans.o
flashfsGetDirtyDataBuffers.lto_priv.465           /tmp/ccELukx5.ltrans6.ltrans.o
                                                  /tmp/ccELukx5.ltrans26.ltrans.o
flashfsGetGeometry                                obj/main/NAZE/io/flashfs.o (symbol from plugin)
                                                  obj/main/NAZE/fc/fc_msp.o (symbol from plugin)
                                                  obj/main/NAZE/fc/cli.o (symbol from plugin)
flashfsGetOffset                                  /tmp/ccELukx5.ltrans6.ltrans.o
                                                  obj/main/NAZE/io/flashfs.o (symbol from plugin)
                                                  /tmp/ccELukx5.ltrans16.ltrans.o
                                                  /tmp/ccELukx5.ltrans3.ltrans.o
                                                  obj/main/NAZE/fc/fc_msp.o (symbol from plugin)
                                                  obj/main/NAZE/fc/cli.o (symbol from plugin)
flashfsGetSize                                    obj/main/NAZE/io/flashfs.o (symbol from plugin)
                                                  obj/main/NAZE/fc/fc_msp.o (symbol from plugin)
                                                  obj/main/NAZE/blackbox/blackbox_io.o (symbol from plugin)
flashfsGetWriteBufferFreeSpace                    obj/main/NAZE/io/flashfs.o (symbol from plugin)
                                                  obj/main/NAZE/blackbox/blackbox_io.o (symbol from plugin)
flashfsGetWriteBufferSize                         obj/main/NAZE/io/flashfs.o (symbol from plugin)
                                                  obj/main/NAZE/blackbox/blackbox_io.o (symbol from plugin)
flashfsIdentifyStartOfFreeSpace                   obj/main/NAZE/io/flashfs.o (symbol from plugin)
flashfsInit                                       obj/main/NAZE/io/flashfs.o (symbol from plugin)
                                                  obj/main/NAZE/fc/fc_init.o (symbol from plugin)
flashfsIsEOF                                      obj/main/NAZE/io/flashfs.o (symbol from plugin)
                                                  obj/main/NAZE/blackbox/blackbox_io.o (symbol from plugin)
flashfsIsReady                                    obj/main/NAZE/io/flashfs.o (symbol from plugin)
                                                  obj/main/NAZE/fc/fc_msp.o (symbol from plugin)
                                                  obj/main/NAZE/fc/cli.o (symbol from plugin)
flashfsReadAbs                                    obj/main/NAZE/io/flashfs.o (symbol from plugin)
                                                  obj/main/NAZE/fc/fc_msp.o (symbol from plugin)
flashfsSeekAbs                                    obj/main/NAZE/io/flashfs.o (symbol from plugin)
flashfsSeekRel                                    obj/main/NAZE/io/flashfs.o (symbol from plugin)
flashfsTransmitBufferUsed.lto_priv.280            /tmp/ccELukx5.ltrans6.ltrans.o
                                                  /tmp/ccELukx5.ltrans26.ltrans.o
                                                  /tmp/ccELukx5.ltrans1.ltrans.o
flashfsWrite                                      obj/main/NAZE/io/flashfs.o (symbol from plugin)
                                                  obj/main/NAZE/blackbox/blackbox_io.o (symbol from plugin)
flashfsWriteBuffers.lto_priv.466                  /tmp/ccELukx5.ltrans6.ltrans.o
                                                  /tmp/ccELukx5.ltrans26.ltrans.o
flashfsWriteByte                                  obj/main/NAZE/io/flashfs.o (symbol from plugin)
                                                  obj/main/NAZE/blackbox/blackbox_io.o (symbol from plugin)
flight3DConfig_Copy                               obj/main/NAZE/flight/mixer.o (symbol from plugin)
flight3DConfig_Registry                           /tmp/ccELukx5.ltrans7.ltrans.o
                                                  obj/main/NAZE/flight/mixer.o (symbol from plugin)
flight3DConfig_System                             /tmp/ccELukx5.ltrans7.ltrans.o
                                                  obj/main/NAZE/flight/mixer.o (symbol from plugin)
                                                  /tmp/ccELukx5.ltrans3.ltrans.o
                                                  /tmp/ccELukx5.ltrans2.ltrans.o
                                                  /tmp/ccELukx5.ltrans1.ltrans.o
                                                  /tmp/ccELukx5.ltrans0.ltrans.o
                                                  obj/main/NAZE/fc/fc_msp.o (symbol from plugin)
                                                  obj/main/NAZE/fc/fc_init.o (symbol from plugin)
flightModeFlags                                   /tmp/ccELukx5.ltrans9.ltrans.o
                                                  obj/main/NAZE/fc/runtime_config.o (symbol from plugin)
                                                  /tmp/ccELukx5.ltrans29.ltrans.o
                                                  /tmp/ccELukx5.ltrans13.ltrans.o
                                                  /tmp/ccELukx5.ltrans10.ltrans.o
                                                  /tmp/ccELukx5.ltrans7.ltrans.o
                                                  /tmp/ccELukx5.ltrans4.ltrans.o
                                                  /tmp/ccELukx5.ltrans1.ltrans.o
                                                  obj/main/NAZE/flight/servos.o (symbol from plugin)
                                                  obj/main/NAZE/flight/pid.o (symbol from plugin)
                                                  obj/main/NAZE/flight/mixer.o (symbol from plugin)
                                                  obj/main/NAZE/fc/fc_msp.o (symbol from plugin)
                                                  obj/main/NAZE/fc/fc_core.o (symbol from plugin)
                                                  obj/main/NAZE/telemetry/ltm.o (symbol from plugin)
                                                  obj/main/NAZE/navigation/navigation.o (symbol from plugin)
free                                              /usr/bin/../lib/gcc/arm-none-eabi/4.9.3/../../../../arm-none-eabi/lib/armv7-m/libc_nano.a(lib_a-malloc.o)
freeFrSkyTelemetryPort                            obj/main/NAZE/telemetry/frsky.o (symbol from plugin)
freeLtmTelemetryPort                              obj/main/NAZE/telemetry/ltm.o (symbol from plugin)
frskyPortSharing.lto_priv.442                     /tmp/ccELukx5.ltrans0.ltrans.o
                                                  /tmp/ccELukx5.ltrans11.ltrans.o
frskyTelemetryEnabled.lto_priv.441                /tmp/ccELukx5.ltrans10.ltrans.o
                                                  /tmp/ccELukx5.ltrans11.ltrans.o
ftoa                                              /tmp/ccELukx5.ltrans22.ltrans.o
                                                  obj/main/NAZE/common/typeconversion.o (symbol from plugin)
                                                  /tmp/ccELukx5.ltrans16.ltrans.o
                                                  /tmp/ccELukx5.ltrans14.ltrans.o
                                                  obj/main/NAZE/fc/cli.o (symbol from plugin)
g_pfnVectors                                      obj/main/NAZE/startup_stm32f10x_md_gcc.o
gcd                                               obj/main/NAZE/common/maths.o (symbol from plugin)
                                                  obj/main/NAZE/blackbox/blackbox.o (symbol from plugin)
generateThrottleCurve                             /tmp/ccELukx5.ltrans7.ltrans.o
                                                  obj/main/NAZE/fc/rc_curves.o (symbol from plugin)
                                                  /tmp/ccELukx5.ltrans21.ltrans.o
                                                  /tmp/ccELukx5.ltrans4.ltrans.o
                                                  obj/main/NAZE/fc/rc_adjustments.o (symbol from plugin)
                                                  obj/main/NAZE/fc/controlrate_profile.o (symbol from plugin)
geoCalculateMagDeclination                        obj/main/NAZE/navigation/navigation_geo.o (symbol from plugin)
                                                  obj/main/NAZE/navigation/navigation_pos_estimator.o (symbol from plugin)
geoConvertGeodeticToLocal                         obj/main/NAZE/navigation/navigation_geo.o (symbol from plugin)
                                                  obj/main/NAZE/navigation/navigation_pos_estimator.o (symbol from plugin)
                                                  obj/main/NAZE/navigation/navigation.o (symbol from plugin)
geoConvertGeodeticToLocal.constprop.74            /tmp/ccELukx5.ltrans24.ltrans.o
                                                  /tmp/ccELukx5.ltrans25.ltrans.o
                                                  /tmp/ccELukx5.ltrans15.ltrans.o
                                                  /tmp/ccELukx5.ltrans11.ltrans.o
                                                  /tmp/ccELukx5.ltrans2.ltrans.o
geoConvertLocalToGeodetic                         obj/main/NAZE/navigation/navigation_geo.o (symbol from plugin)
                                                  obj/main/NAZE/navigation/navigation.o (symbol from plugin)
geoConvertLocalToGeodetic.constprop.66            /tmp/ccELukx5.ltrans24.ltrans.o
                                                  /tmp/ccELukx5.ltrans25.ltrans.o
                                                  /tmp/ccELukx5.ltrans2.ltrans.o
geoSetOrigin                                      obj/main/NAZE/navigation/navigation_geo.o (symbol from plugin)
                                                  obj/main/NAZE/navigation/navigation_pos_estimator.o (symbol from plugin)
geometry.lto_priv.202                             /tmp/ccELukx5.ltrans3.ltrans.o
                                                  /tmp/ccELukx5.ltrans26.ltrans.o
                                                  /tmp/ccELukx5.ltrans16.ltrans.o
                                                  /tmp/ccELukx5.ltrans15.ltrans.o
                                                  /tmp/ccELukx5.ltrans6.ltrans.o
                                                  /tmp/ccELukx5.ltrans2.ltrans.o
                                                  /tmp/ccELukx5.ltrans0.ltrans.o
getAccUpdateRate                                  obj/main/NAZE/fc/config.o (symbol from plugin)
                                                  obj/main/NAZE/sensors/initialisation.o (symbol from plugin)
getActiveWaypointSpeed                            obj/main/NAZE/navigation/navigation.o (symbol from plugin)
                                                  obj/main/NAZE/navigation/navigation_multicopter.o (symbol from plugin)
getArmingBeepTimeMicros                           obj/main/NAZE/io/beeper.o (symbol from plugin)
                                                  obj/main/NAZE/blackbox/blackbox.o (symbol from plugin)
getAxisRcCommand                                  /tmp/ccELukx5.ltrans15.ltrans.o
                                                  obj/main/NAZE/fc/fc_core.o (symbol from plugin)
                                                  /tmp/ccELukx5.ltrans1.ltrans.o
getBatteryState                                   obj/main/NAZE/sensors/battery.o (symbol from plugin)
                                                  obj/main/NAZE/fc/cli.o (symbol from plugin)
getBeeperOffMask                                  obj/main/NAZE/fc/config.o (symbol from plugin)
                                                  obj/main/NAZE/io/beeper.o (symbol from plugin)
                                                  obj/main/NAZE/fc/cli.o (symbol from plugin)
getBootlogEvent                                   obj/main/NAZE/drivers/logging.o (symbol from plugin)
getBootlogEventCount                              obj/main/NAZE/drivers/logging.o (symbol from plugin)
getBootlogEventDescription                        obj/main/NAZE/drivers/logging.o (symbol from plugin)
getConfigProfile                                  obj/main/NAZE/fc/config.o (symbol from plugin)
                                                  obj/main/NAZE/fc/fc_msp.o (symbol from plugin)
                                                  obj/main/NAZE/fc/cli.o (symbol from plugin)
getDisarmReason                                   obj/main/NAZE/fc/fc_core.o (symbol from plugin)
                                                  obj/main/NAZE/telemetry/ltm.o (symbol from plugin)
                                                  obj/main/NAZE/blackbox/blackbox.o (symbol from plugin)
getEEPROMConfigSize                               obj/main/NAZE/config/config_eeprom.o (symbol from plugin)
                                                  obj/main/NAZE/fc/cli.o (symbol from plugin)
getEstimatedActualPosition                        obj/main/NAZE/navigation/navigation.o (symbol from plugin)
                                                  obj/main/NAZE/fc/fc_msp.o (symbol from plugin)
                                                  obj/main/NAZE/telemetry/ltm.o (symbol from plugin)
                                                  obj/main/NAZE/telemetry/frsky.o (symbol from plugin)
getEstimatedActualVelocity                        obj/main/NAZE/navigation/navigation.o (symbol from plugin)
                                                  obj/main/NAZE/fc/fc_msp.o (symbol from plugin)
                                                  obj/main/NAZE/telemetry/frsky.o (symbol from plugin)
getFlaperonDirection                              obj/main/NAZE/flight/servos.o (symbol from plugin)
getFlightModeForTelemetry                         obj/main/NAZE/fc/runtime_config.o (symbol from plugin)
getFlyingPlatformType                             obj/main/NAZE/flight/mixer.o (symbol from plugin)
                                                  obj/main/NAZE/fc/fc_init.o (symbol from plugin)
getGyroUpdateRate                                 obj/main/NAZE/fc/config.o (symbol from plugin)
                                                  obj/main/NAZE/sensors/gyro.o (symbol from plugin)
                                                  obj/main/NAZE/fc/fc_tasks.o (symbol from plugin)
                                                  obj/main/NAZE/fc/fc_core.o (symbol from plugin)
getHeadingHoldTarget                              obj/main/NAZE/flight/pid.o (symbol from plugin)
                                                  obj/main/NAZE/fc/fc_msp.o (symbol from plugin)
getHwAccelerometerStatus                          /tmp/ccELukx5.ltrans18.ltrans.o
                                                  obj/main/NAZE/sensors/diagnostics.o (symbol from plugin)
                                                  /tmp/ccELukx5.ltrans17.ltrans.o
                                                  /tmp/ccELukx5.ltrans6.ltrans.o
                                                  /tmp/ccELukx5.ltrans3.ltrans.o
                                                  obj/main/NAZE/fc/fc_msp.o (symbol from plugin)
                                                  obj/main/NAZE/fc/cli.o (symbol from plugin)
                                                  obj/main/NAZE/blackbox/blackbox.o (symbol from plugin)
getHwBarometerStatus                              /tmp/ccELukx5.ltrans18.ltrans.o
                                                  obj/main/NAZE/sensors/diagnostics.o (symbol from plugin)
                                                  /tmp/ccELukx5.ltrans17.ltrans.o
                                                  /tmp/ccELukx5.ltrans6.ltrans.o
                                                  /tmp/ccELukx5.ltrans3.ltrans.o
                                                  obj/main/NAZE/fc/fc_msp.o (symbol from plugin)
                                                  obj/main/NAZE/fc/cli.o (symbol from plugin)
                                                  obj/main/NAZE/blackbox/blackbox.o (symbol from plugin)
getHwCompassStatus                                /tmp/ccELukx5.ltrans18.ltrans.o
                                                  obj/main/NAZE/sensors/diagnostics.o (symbol from plugin)
                                                  /tmp/ccELukx5.ltrans17.ltrans.o
                                                  /tmp/ccELukx5.ltrans6.ltrans.o
                                                  /tmp/ccELukx5.ltrans3.ltrans.o
                                                  obj/main/NAZE/fc/fc_msp.o (symbol from plugin)
                                                  obj/main/NAZE/fc/cli.o (symbol from plugin)
                                                  obj/main/NAZE/blackbox/blackbox.o (symbol from plugin)
getHwGPSStatus                                    /tmp/ccELukx5.ltrans18.ltrans.o
                                                  obj/main/NAZE/sensors/diagnostics.o (symbol from plugin)
                                                  /tmp/ccELukx5.ltrans17.ltrans.o
                                                  /tmp/ccELukx5.ltrans6.ltrans.o
                                                  /tmp/ccELukx5.ltrans3.ltrans.o
                                                  obj/main/NAZE/fc/fc_msp.o (symbol from plugin)
                                                  obj/main/NAZE/fc/cli.o (symbol from plugin)
                                                  obj/main/NAZE/blackbox/blackbox.o (symbol from plugin)
getHwGyroStatus                                   obj/main/NAZE/sensors/diagnostics.o (symbol from plugin)
                                                  obj/main/NAZE/fc/fc_msp.o (symbol from plugin)
                                                  obj/main/NAZE/fc/cli.o (symbol from plugin)
                                                  obj/main/NAZE/blackbox/blackbox.o (symbol from plugin)
getHwPitotmeterStatus                             obj/main/NAZE/sensors/diagnostics.o (symbol from plugin)
                                                  obj/main/NAZE/fc/fc_msp.o (symbol from plugin)
                                                  obj/main/NAZE/blackbox/blackbox.o (symbol from plugin)
getHwRangefinderStatus                            obj/main/NAZE/sensors/diagnostics.o (symbol from plugin)
                                                  obj/main/NAZE/fc/fc_msp.o (symbol from plugin)
                                                  obj/main/NAZE/fc/cli.o (symbol from plugin)
                                                  obj/main/NAZE/blackbox/blackbox.o (symbol from plugin)
getLtmFrame                                       obj/main/NAZE/telemetry/ltm.o (symbol from plugin)
getMotorCount                                     obj/main/NAZE/flight/mixer.o (symbol from plugin)
                                                  obj/main/NAZE/flight/pid.o (symbol from plugin)
                                                  obj/main/NAZE/blackbox/blackbox.o (symbol from plugin)
getPidUpdateRate                                  obj/main/NAZE/fc/config.o (symbol from plugin)
                                                  obj/main/NAZE/fc/fc_core.o (symbol from plugin)
                                                  obj/main/NAZE/blackbox/blackbox.o (symbol from plugin)
getPreferredBeeperOffMask                         obj/main/NAZE/fc/config.o (symbol from plugin)
                                                  obj/main/NAZE/fc/fc_init.o (symbol from plugin)
                                                  obj/main/NAZE/fc/cli.o (symbol from plugin)
getPrimaryAxisIndex                               obj/main/NAZE/sensors/acceleration.o (symbol from plugin)
getRcStickDeflection                              obj/main/NAZE/fc/rc_controls.o (symbol from plugin)
                                                  obj/main/NAZE/flight/pid.o (symbol from plugin)
getRcStickPositions                               obj/main/NAZE/fc/rc_controls.o (symbol from plugin)
getStateOfForcedRTH                               obj/main/NAZE/navigation/navigation.o (symbol from plugin)
                                                  obj/main/NAZE/flight/failsafe.o (symbol from plugin)
getTaskDeltaTime                                  obj/main/NAZE/scheduler/scheduler.o (symbol from plugin)
                                                  obj/main/NAZE/fc/fc_core.o (symbol from plugin)
                                                  obj/main/NAZE/fc/cli.o (symbol from plugin)
getTotalTravelDistance                            obj/main/NAZE/navigation/navigation.o (symbol from plugin)
getValuePointer.lto_priv.348                      /tmp/ccELukx5.ltrans14.ltrans.o
                                                  /tmp/ccELukx5.ltrans17.ltrans.o
getWaypoint                                       obj/main/NAZE/navigation/navigation.o (symbol from plugin)
                                                  obj/main/NAZE/fc/fc_msp.o (symbol from plugin)
getWaypointCount                                  obj/main/NAZE/navigation/navigation.o (symbol from plugin)
                                                  obj/main/NAZE/fc/fc_msp.o (symbol from plugin)
gimbalConfig_Copy                                 obj/main/NAZE/flight/servos.o (symbol from plugin)
gimbalConfig_Registry                             /tmp/ccELukx5.ltrans1.ltrans.o
                                                  obj/main/NAZE/flight/servos.o (symbol from plugin)
gimbalConfig_System                               obj/main/NAZE/flight/servos.o (symbol from plugin)
gpioExtiLineConfig                                obj/main/NAZE/drivers/gpio_stm32f10x.o (symbol from plugin)
gpioInit                                          /tmp/ccELukx5.ltrans5.ltrans.o
                                                  obj/main/NAZE/drivers/gpio_stm32f10x.o (symbol from plugin)
                                                  /tmp/ccELukx5.ltrans0.ltrans.o
                                                  obj/main/NAZE/drivers/accgyro/accgyro_mpu6500.o (symbol from plugin)
                                                  obj/main/NAZE/drivers/system_stm32f10x.o (symbol from plugin)
gpioPinRemapConfig                                obj/main/NAZE/drivers/gpio_stm32f10x.o (symbol from plugin)
gpsConfig_Copy                                    obj/main/NAZE/io/gps.o (symbol from plugin)
gpsConfig_Registry                                /tmp/ccELukx5.ltrans3.ltrans.o
                                                  obj/main/NAZE/io/gps.o (symbol from plugin)
gpsConfig_System                                  /tmp/ccELukx5.ltrans3.ltrans.o
                                                  obj/main/NAZE/io/gps.o (symbol from plugin)
                                                  /tmp/ccELukx5.ltrans26.ltrans.o
                                                  /tmp/ccELukx5.ltrans2.ltrans.o
                                                  /tmp/ccELukx5.ltrans0.ltrans.o
                                                  obj/main/NAZE/fc/fc_msp.o (symbol from plugin)
gpsConstrainEPE                                   obj/main/NAZE/io/gps.o (symbol from plugin)
                                                  obj/main/NAZE/io/gps_ublox.o (symbol from plugin)
gpsConstrainHDOP                                  obj/main/NAZE/io/gps.o (symbol from plugin)
                                                  obj/main/NAZE/io/gps_ublox.o (symbol from plugin)
gpsEnablePassthrough                              obj/main/NAZE/io/gps.o (symbol from plugin)
                                                  obj/main/NAZE/fc/cli.o (symbol from plugin)
gpsFinalizeChangeBaud                             obj/main/NAZE/io/gps.o (symbol from plugin)
                                                  obj/main/NAZE/io/gps_ublox.o (symbol from plugin)
gpsHandleProtocol.lto_priv.197                    /tmp/ccELukx5.ltrans26.ltrans.o
                                                  /tmp/ccELukx5.ltrans27.ltrans.o
gpsHandleUBLOX                                    /tmp/ccELukx5.ltrans12.ltrans.o
                                                  obj/main/NAZE/io/gps_ublox.o (symbol from plugin)
                                                  /tmp/ccELukx5.ltrans27.ltrans.o
                                                  obj/main/NAZE/io/gps.o (symbol from plugin)
gpsHistory.lto_priv.468                           /tmp/ccELukx5.ltrans15.ltrans.o
                                                  /tmp/ccELukx5.ltrans23.ltrans.o
                                                  /tmp/ccELukx5.ltrans6.ltrans.o
gpsInit                                           obj/main/NAZE/io/gps.o (symbol from plugin)
                                                  obj/main/NAZE/fc/fc_init.o (symbol from plugin)
gpsMagDetect                                      obj/main/NAZE/io/gps.o (symbol from plugin)
                                                  obj/main/NAZE/sensors/compass.o (symbol from plugin)
gpsMagInit                                        /tmp/ccELukx5.ltrans26.ltrans.o
                                                  obj/main/NAZE/io/gps.o (symbol from plugin)
                                                  /tmp/ccELukx5.ltrans0.ltrans.o
gpsMagRead                                        /tmp/ccELukx5.ltrans26.ltrans.o
                                                  obj/main/NAZE/io/gps.o (symbol from plugin)
                                                  /tmp/ccELukx5.ltrans0.ltrans.o
gpsPreInit                                        obj/main/NAZE/io/gps.o (symbol from plugin)
                                                  obj/main/NAZE/fc/fc_init.o (symbol from plugin)
gpsProviders.lto_priv.367                         /tmp/ccELukx5.ltrans27.ltrans.o
                                                  /tmp/ccELukx5.ltrans26.ltrans.o
                                                  /tmp/ccELukx5.ltrans12.ltrans.o
                                                  /tmp/ccELukx5.ltrans0.ltrans.o
gpsResetSolution.lto_priv.198                     /tmp/ccELukx5.ltrans26.ltrans.o
                                                  /tmp/ccELukx5.ltrans27.ltrans.o
                                                  /tmp/ccELukx5.ltrans0.ltrans.o
gpsSetState                                       /tmp/ccELukx5.ltrans26.ltrans.o
                                                  obj/main/NAZE/io/gps.o (symbol from plugin)
                                                  /tmp/ccELukx5.ltrans27.ltrans.o
                                                  /tmp/ccELukx5.ltrans12.ltrans.o
                                                  /tmp/ccELukx5.ltrans0.ltrans.o
                                                  obj/main/NAZE/io/gps_ublox.o (symbol from plugin)
gpsSol                                            /tmp/ccELukx5.ltrans9.ltrans.o
                                                  obj/main/NAZE/io/gps.o (symbol from plugin)
                                                  /tmp/ccELukx5.ltrans27.ltrans.o
                                                  /tmp/ccELukx5.ltrans26.ltrans.o
                                                  /tmp/ccELukx5.ltrans23.ltrans.o
                                                  /tmp/ccELukx5.ltrans12.ltrans.o
                                                  /tmp/ccELukx5.ltrans11.ltrans.o
                                                  /tmp/ccELukx5.ltrans10.ltrans.o
                                                  /tmp/ccELukx5.ltrans7.ltrans.o
                                                  /tmp/ccELukx5.ltrans6.ltrans.o
                                                  /tmp/ccELukx5.ltrans3.ltrans.o
                                                  /tmp/ccELukx5.ltrans2.ltrans.o
                                                  obj/main/NAZE/io/beeper.o (symbol from plugin)
                                                  obj/main/NAZE/flight/imu.o (symbol from plugin)
                                                  obj/main/NAZE/fc/fc_msp.o (symbol from plugin)
                                                  obj/main/NAZE/telemetry/ltm.o (symbol from plugin)
                                                  obj/main/NAZE/telemetry/frsky.o (symbol from plugin)
                                                  obj/main/NAZE/navigation/navigation_pos_estimator.o (symbol from plugin)
                                                  obj/main/NAZE/io/gps_ublox.o (symbol from plugin)
                                                  obj/main/NAZE/blackbox/blackbox.o (symbol from plugin)
gpsState                                          /tmp/ccELukx5.ltrans27.ltrans.o
                                                  obj/main/NAZE/io/gps.o (symbol from plugin)
                                                  /tmp/ccELukx5.ltrans26.ltrans.o
                                                  /tmp/ccELukx5.ltrans17.ltrans.o
                                                  /tmp/ccELukx5.ltrans12.ltrans.o
                                                  /tmp/ccELukx5.ltrans0.ltrans.o
                                                  obj/main/NAZE/io/gps_ublox.o (symbol from plugin)
gpsStats                                          /tmp/ccELukx5.ltrans18.ltrans.o
                                                  obj/main/NAZE/io/gps.o (symbol from plugin)
                                                  /tmp/ccELukx5.ltrans27.ltrans.o
                                                  /tmp/ccELukx5.ltrans26.ltrans.o
                                                  /tmp/ccELukx5.ltrans12.ltrans.o
                                                  /tmp/ccELukx5.ltrans3.ltrans.o
                                                  /tmp/ccELukx5.ltrans0.ltrans.o
                                                  obj/main/NAZE/sensors/diagnostics.o (symbol from plugin)
                                                  obj/main/NAZE/fc/fc_msp.o (symbol from plugin)
                                                  obj/main/NAZE/io/gps_ublox.o (symbol from plugin)
gpsThread                                         obj/main/NAZE/io/gps.o (symbol from plugin)
                                                  obj/main/NAZE/fc/fc_tasks.o (symbol from plugin)
gpsToSerialBaudRate                               /tmp/ccELukx5.ltrans0.ltrans.o
                                                  obj/main/NAZE/io/gps.o (symbol from plugin)
                                                  /tmp/ccELukx5.ltrans12.ltrans.o
                                                  obj/main/NAZE/io/gps_ublox.o (symbol from plugin)
gyro                                              /tmp/ccELukx5.ltrans9.ltrans.o
                                                  obj/main/NAZE/sensors/gyro.o (symbol from plugin)
                                                  /tmp/ccELukx5.ltrans15.ltrans.o
                                                  /tmp/ccELukx5.ltrans6.ltrans.o
                                                  /tmp/ccELukx5.ltrans3.ltrans.o
                                                  /tmp/ccELukx5.ltrans1.ltrans.o
                                                  /tmp/ccELukx5.ltrans0.ltrans.o
                                                  obj/main/NAZE/flight/servos.o (symbol from plugin)
                                                  obj/main/NAZE/flight/pid.o (symbol from plugin)
                                                  obj/main/NAZE/flight/imu.o (symbol from plugin)
                                                  obj/main/NAZE/fc/config.o (symbol from plugin)
                                                  obj/main/NAZE/blackbox/blackbox_io.o (symbol from plugin)
                                                  obj/main/NAZE/blackbox/blackbox.o (symbol from plugin)
gyroCalibration.lto_priv.245                      /tmp/ccELukx5.ltrans7.ltrans.o
                                                  /tmp/ccELukx5.ltrans15.ltrans.o
                                                  /tmp/ccELukx5.ltrans4.ltrans.o
                                                  /tmp/ccELukx5.ltrans1.ltrans.o
                                                  /tmp/ccELukx5.ltrans0.ltrans.o
gyroConfig_Copy                                   obj/main/NAZE/sensors/gyro.o (symbol from plugin)
gyroConfig_Registry                               /tmp/ccELukx5.ltrans3.ltrans.o
                                                  obj/main/NAZE/sensors/gyro.o (symbol from plugin)
gyroConfig_System                                 /tmp/ccELukx5.ltrans3.ltrans.o
                                                  obj/main/NAZE/sensors/gyro.o (symbol from plugin)
                                                  /tmp/ccELukx5.ltrans21.ltrans.o
                                                  /tmp/ccELukx5.ltrans6.ltrans.o
                                                  /tmp/ccELukx5.ltrans2.ltrans.o
                                                  /tmp/ccELukx5.ltrans1.ltrans.o
                                                  /tmp/ccELukx5.ltrans0.ltrans.o
                                                  obj/main/NAZE/fc/fc_msp.o (symbol from plugin)
                                                  obj/main/NAZE/fc/fc_core.o (symbol from plugin)
                                                  obj/main/NAZE/fc/config.o (symbol from plugin)
                                                  obj/main/NAZE/blackbox/blackbox.o (symbol from plugin)
gyroDev0.lto_priv.275                             /tmp/ccELukx5.ltrans3.ltrans.o
                                                  /tmp/ccELukx5.ltrans1.ltrans.o
                                                  /tmp/ccELukx5.ltrans0.ltrans.o
gyroGetTemperature                                obj/main/NAZE/sensors/gyro.o (symbol from plugin)
gyroInit                                          obj/main/NAZE/sensors/gyro.o (symbol from plugin)
                                                  obj/main/NAZE/sensors/initialisation.o (symbol from plugin)
gyroInitFilters                                   obj/main/NAZE/sensors/gyro.o (symbol from plugin)
gyroIsCalibrationComplete                         obj/main/NAZE/sensors/gyro.o (symbol from plugin)
                                                  obj/main/NAZE/flight/imu.o (symbol from plugin)
                                                  obj/main/NAZE/fc/fc_core.o (symbol from plugin)
gyroMPU6xxxGetDividerDrops                        obj/main/NAZE/drivers/gyro_sync.o (symbol from plugin)
                                                  obj/main/NAZE/drivers/accgyro/accgyro_mpu6500.o (symbol from plugin)
                                                  obj/main/NAZE/drivers/accgyro/accgyro_mpu6050.o (symbol from plugin)
gyroMpuConfiguration                              obj/main/NAZE/sensors/gyro.o (symbol from plugin)
                                                  obj/main/NAZE/sensors/acceleration.o (symbol from plugin)
gyroMpuDetectionResult                            obj/main/NAZE/sensors/gyro.o (symbol from plugin)
                                                  obj/main/NAZE/sensors/acceleration.o (symbol from plugin)
gyroRateDps                                       obj/main/NAZE/sensors/gyro.o (symbol from plugin)
                                                  obj/main/NAZE/fc/fc_msp.o (symbol from plugin)
gyroReadTemperature                               obj/main/NAZE/sensors/gyro.o (symbol from plugin)
gyroSensorBus                                     obj/main/NAZE/sensors/gyro.o (symbol from plugin)
                                                  obj/main/NAZE/sensors/compass.o (symbol from plugin)
                                                  obj/main/NAZE/sensors/acceleration.o (symbol from plugin)
gyroSetCalibrationCycles                          obj/main/NAZE/sensors/gyro.o (symbol from plugin)
                                                  obj/main/NAZE/fc/rc_controls.o (symbol from plugin)
                                                  obj/main/NAZE/fc/fc_init.o (symbol from plugin)
gyroSetSampleRate                                 obj/main/NAZE/drivers/gyro_sync.o (symbol from plugin)
                                                  obj/main/NAZE/sensors/gyro.o (symbol from plugin)
gyroSyncCheckIntStatus                            obj/main/NAZE/drivers/gyro_sync.o (symbol from plugin)
                                                  obj/main/NAZE/sensors/gyro.o (symbol from plugin)
gyroSyncCheckUpdate                               obj/main/NAZE/sensors/gyro.o (symbol from plugin)
                                                  obj/main/NAZE/fc/fc_core.o (symbol from plugin)
gyroUpdate                                        obj/main/NAZE/sensors/gyro.o (symbol from plugin)
                                                  obj/main/NAZE/fc/fc_core.o (symbol from plugin)
handleFrSkyTelemetry                              obj/main/NAZE/telemetry/frsky.o (symbol from plugin)
                                                  obj/main/NAZE/telemetry/telemetry.o (symbol from plugin)
handleLtmTelemetry                                obj/main/NAZE/telemetry/ltm.o (symbol from plugin)
                                                  obj/main/NAZE/telemetry/telemetry.o (symbol from plugin)
hardwareRevision                                  /tmp/ccELukx5.ltrans3.ltrans.o
                                                  obj/main/NAZE/hardware_revision.o (symbol from plugin)
                                                  /tmp/ccELukx5.ltrans0.ltrans.o
                                                  obj/main/NAZE/fc/fc_msp.o (symbol from plugin)
                                                  obj/main/NAZE/fc/fc_init.o (symbol from plugin)
hasEnoughTimeLapsedSinceLastTelemetryTransmission obj/main/NAZE/telemetry/frsky.o (symbol from plugin)
headFreeModeHold                                  /tmp/ccELukx5.ltrans4.ltrans.o
                                                  obj/main/NAZE/fc/fc_core.o (symbol from plugin)
                                                  /tmp/ccELukx5.ltrans15.ltrans.o
                                                  /tmp/ccELukx5.ltrans1.ltrans.o
headingHoldCosZLimit                              /tmp/ccELukx5.ltrans9.ltrans.o
                                                  obj/main/NAZE/flight/pid.o (symbol from plugin)
                                                  /tmp/ccELukx5.ltrans21.ltrans.o
headingHoldRateFilter.lto_priv.180                /tmp/ccELukx5.ltrans9.ltrans.o
                                                  /tmp/ccELukx5.ltrans15.ltrans.o
                                                  /tmp/ccELukx5.ltrans7.ltrans.o
                                                  /tmp/ccELukx5.ltrans4.ltrans.o
headingHoldTarget                                 /tmp/ccELukx5.ltrans9.ltrans.o
                                                  obj/main/NAZE/flight/pid.o (symbol from plugin)
                                                  /tmp/ccELukx5.ltrans15.ltrans.o
                                                  /tmp/ccELukx5.ltrans12.ltrans.o
                                                  /tmp/ccELukx5.ltrans7.ltrans.o
                                                  /tmp/ccELukx5.ltrans4.ltrans.o
                                                  /tmp/ccELukx5.ltrans3.ltrans.o
                                                  /tmp/ccELukx5.ltrans2.ltrans.o
                                                  /tmp/ccELukx5.ltrans1.ltrans.o
hmc5883Config.lto_priv.486                        /tmp/ccELukx5.ltrans0.ltrans.o
                                                  /tmp/ccELukx5.ltrans6.ltrans.o
hmc5883_extiHandler.lto_priv.487                  /tmp/ccELukx5.ltrans5.ltrans.o
                                                  /tmp/ccELukx5.ltrans6.ltrans.o
hmc5883lDetect                                    obj/main/NAZE/drivers/compass/compass_hmc5883l.o (symbol from plugin)
                                                  obj/main/NAZE/sensors/compass.o (symbol from plugin)
hmc5883lInit.lto_priv.397                         /tmp/ccELukx5.ltrans6.ltrans.o
                                                  /tmp/ccELukx5.ltrans0.ltrans.o
hmc5883lRead.lto_priv.398                         /tmp/ccELukx5.ltrans5.ltrans.o
                                                  /tmp/ccELukx5.ltrans6.ltrans.o
                                                  /tmp/ccELukx5.ltrans0.ltrans.o
hse_value                                         /tmp/ccELukx5.ltrans24.ltrans.o
                                                  obj/main/NAZE/system_stm32f10x.o (symbol from plugin)
                                                  /tmp/ccELukx5.ltrans5.ltrans.o
                                                  /tmp/ccELukx5.ltrans0.ltrans.o
                                                  obj/main/NAZE/stm32f10x_rcc.o (symbol from plugin)
                                                  obj/main/NAZE/hardware_revision.o (symbol from plugin)
                                                  obj/main/NAZE/drivers/accgyro/accgyro_mpu6500.o (symbol from plugin)
hsvToRgb24                                        obj/main/NAZE/common/colorconversion.o (symbol from plugin)
i2a                                               obj/main/NAZE/common/typeconversion.o (symbol from plugin)
                                                  obj/main/NAZE/common/printf.o (symbol from plugin)
i2cErrorCount.lto_priv.183                        /tmp/ccELukx5.ltrans20.ltrans.o
                                                  /tmp/ccELukx5.ltrans17.ltrans.o
                                                  /tmp/ccELukx5.ltrans3.ltrans.o
i2cGetErrorCounter                                obj/main/NAZE/drivers/bus_i2c_stm32f10x.o (symbol from plugin)
                                                  obj/main/NAZE/fc/fc_msp.o (symbol from plugin)
                                                  obj/main/NAZE/fc/cli.o (symbol from plugin)
i2cHardwareMap.lto_priv.426                       /tmp/ccELukx5.ltrans20.ltrans.o
                                                  /tmp/ccELukx5.ltrans5.ltrans.o
                                                  /tmp/ccELukx5.ltrans0.ltrans.o
i2cInit                                           obj/main/NAZE/drivers/bus_i2c_stm32f10x.o (symbol from plugin)
                                                  obj/main/NAZE/fc/fc_init.o (symbol from plugin)
i2cInit.part.1.lto_priv.142                       /tmp/ccELukx5.ltrans5.ltrans.o
                                                  /tmp/ccELukx5.ltrans20.ltrans.o
                                                  /tmp/ccELukx5.ltrans0.ltrans.o
i2cRead                                           obj/main/NAZE/drivers/bus_i2c_stm32f10x.o (symbol from plugin)
                                                  obj/main/NAZE/drivers/io_pca9685.o (symbol from plugin)
                                                  obj/main/NAZE/drivers/gps_i2cnav.o (symbol from plugin)
                                                  obj/main/NAZE/drivers/compass/compass_qmc5883l.o (symbol from plugin)
                                                  obj/main/NAZE/drivers/compass/compass_hmc5883l.o (symbol from plugin)
                                                  obj/main/NAZE/drivers/barometer/barometer_ms56xx.o (symbol from plugin)
                                                  obj/main/NAZE/drivers/barometer/barometer_bmp280.o (symbol from plugin)
                                                  obj/main/NAZE/drivers/accgyro/accgyro_mpu.o (symbol from plugin)
i2cRead.constprop.129                             /tmp/ccELukx5.ltrans20.ltrans.o
                                                  /tmp/ccELukx5.ltrans6.ltrans.o
                                                  /tmp/ccELukx5.ltrans5.ltrans.o
                                                  /tmp/ccELukx5.ltrans0.ltrans.o
i2cSetSpeed                                       obj/main/NAZE/drivers/bus_i2c_stm32f10x.o (symbol from plugin)
                                                  obj/main/NAZE/fc/fc_init.o (symbol from plugin)
i2cTimeoutUserCallback                            obj/main/NAZE/drivers/bus_i2c_stm32f10x.o (symbol from plugin)
i2cWrite                                          obj/main/NAZE/drivers/bus_i2c_stm32f10x.o (symbol from plugin)
                                                  obj/main/NAZE/drivers/io_pca9685.o (symbol from plugin)
                                                  obj/main/NAZE/drivers/display_ug2864hsweg01.o (symbol from plugin)
                                                  obj/main/NAZE/drivers/compass/compass_qmc5883l.o (symbol from plugin)
                                                  obj/main/NAZE/drivers/compass/compass_hmc5883l.o (symbol from plugin)
                                                  obj/main/NAZE/drivers/barometer/barometer_ms56xx.o (symbol from plugin)
                                                  obj/main/NAZE/drivers/barometer/barometer_bmp280.o (symbol from plugin)
                                                  obj/main/NAZE/drivers/accgyro/accgyro_mpu.o (symbol from plugin)
i2cWrite.constprop.130                            /tmp/ccELukx5.ltrans20.ltrans.o
                                                  /tmp/ccELukx5.ltrans6.ltrans.o
                                                  /tmp/ccELukx5.ltrans5.ltrans.o
                                                  /tmp/ccELukx5.ltrans0.ltrans.o
i2cWriteBuffer                                    obj/main/NAZE/drivers/bus_i2c_stm32f10x.o (symbol from plugin)
i2c_OLED_clear_display                            obj/main/NAZE/drivers/display_ug2864hsweg01.o (symbol from plugin)
i2c_OLED_clear_display_quick                      obj/main/NAZE/drivers/display_ug2864hsweg01.o (symbol from plugin)
                                                  obj/main/NAZE/io/displayport_oled.o (symbol from plugin)
i2c_OLED_send_byte                                obj/main/NAZE/drivers/display_ug2864hsweg01.o (symbol from plugin)
i2c_OLED_send_char                                obj/main/NAZE/drivers/display_ug2864hsweg01.o (symbol from plugin)
                                                  obj/main/NAZE/io/displayport_oled.o (symbol from plugin)
i2c_OLED_send_string                              obj/main/NAZE/drivers/display_ug2864hsweg01.o (symbol from plugin)
                                                  obj/main/NAZE/io/displayport_oled.o (symbol from plugin)
i2c_OLED_set_line                                 obj/main/NAZE/drivers/display_ug2864hsweg01.o (symbol from plugin)
i2c_OLED_set_xy                                   obj/main/NAZE/drivers/display_ug2864hsweg01.o (symbol from plugin)
                                                  obj/main/NAZE/io/displayport_oled.o (symbol from plugin)
i2cnavGPSModuleDetect                             obj/main/NAZE/drivers/gps_i2cnav.o (symbol from plugin)
i2cnavGPSModuleRead                               obj/main/NAZE/drivers/gps_i2cnav.o (symbol from plugin)
imuCalculateEstimatedAttitude.lto_priv.287        /tmp/ccELukx5.ltrans7.ltrans.o
                                                  /tmp/ccELukx5.ltrans1.ltrans.o
imuComputeRotationMatrix.lto_priv.433             /tmp/ccELukx5.ltrans7.ltrans.o
                                                  /tmp/ccELukx5.ltrans0.ltrans.o
imuConfig_Copy                                    obj/main/NAZE/flight/imu.o (symbol from plugin)
imuConfig_Registry                                /tmp/ccELukx5.ltrans21.ltrans.o
                                                  obj/main/NAZE/flight/imu.o (symbol from plugin)
imuConfig_System                                  obj/main/NAZE/flight/imu.o (symbol from plugin)
imuConfigure                                      obj/main/NAZE/flight/imu.o (symbol from plugin)
                                                  obj/main/NAZE/fc/config.o (symbol from plugin)
imuInit                                           obj/main/NAZE/flight/imu.o (symbol from plugin)
                                                  obj/main/NAZE/fc/fc_init.o (symbol from plugin)
imuMeasuredAccelBF                                /tmp/ccELukx5.ltrans7.ltrans.o
                                                  obj/main/NAZE/flight/imu.o (symbol from plugin)
                                                  /tmp/ccELukx5.ltrans13.ltrans.o
                                                  /tmp/ccELukx5.ltrans1.ltrans.o
                                                  /tmp/ccELukx5.ltrans0.ltrans.o
                                                  obj/main/NAZE/navigation/navigation_pos_estimator.o (symbol from plugin)
                                                  obj/main/NAZE/navigation/navigation_fw_launch.o (symbol from plugin)
imuMeasuredRotationBF                             /tmp/ccELukx5.ltrans7.ltrans.o
                                                  obj/main/NAZE/flight/imu.o (symbol from plugin)
                                                  /tmp/ccELukx5.ltrans13.ltrans.o
                                                  /tmp/ccELukx5.ltrans1.ltrans.o
                                                  obj/main/NAZE/navigation/navigation_fw_launch.o (symbol from plugin)
imuRuntimeConfig.lto_priv.308                     /tmp/ccELukx5.ltrans7.ltrans.o
                                                  /tmp/ccELukx5.ltrans21.ltrans.o
                                                  /tmp/ccELukx5.ltrans0.ltrans.o
imuTransformVectorBodyToEarth                     obj/main/NAZE/flight/imu.o (symbol from plugin)
                                                  obj/main/NAZE/navigation/navigation_pos_estimator.o (symbol from plugin)
imuTransformVectorEarthToBody                     /tmp/ccELukx5.ltrans7.ltrans.o
                                                  obj/main/NAZE/flight/imu.o (symbol from plugin)
                                                  /tmp/ccELukx5.ltrans11.ltrans.o
                                                  /tmp/ccELukx5.ltrans9.ltrans.o
                                                  obj/main/NAZE/flight/pid.o (symbol from plugin)
                                                  obj/main/NAZE/navigation/navigation_pos_estimator.o (symbol from plugin)
imuUpdateAccelerometer                            obj/main/NAZE/flight/imu.o (symbol from plugin)
                                                  obj/main/NAZE/fc/fc_core.o (symbol from plugin)
imuUpdateAttitude                                 obj/main/NAZE/flight/imu.o (symbol from plugin)
                                                  obj/main/NAZE/fc/fc_core.o (symbol from plugin)
inavFilterCorrectPos.lto_priv.443                 /tmp/ccELukx5.ltrans28.ltrans.o
                                                  /tmp/ccELukx5.ltrans11.ltrans.o
inavFilterPredict.lto_priv.444                    /tmp/ccELukx5.ltrans28.ltrans.o
                                                  /tmp/ccELukx5.ltrans11.ltrans.o
init                                              obj/main/NAZE/fc/fc_init.o (symbol from plugin)
                                                  obj/main/NAZE/main.o (symbol from plugin)
initBoardAlignment                                /tmp/ccELukx5.ltrans18.ltrans.o
                                                  obj/main/NAZE/sensors/boardalignment.o (symbol from plugin)
                                                  /tmp/ccELukx5.ltrans21.ltrans.o
                                                  /tmp/ccELukx5.ltrans0.ltrans.o
                                                  obj/main/NAZE/fc/fc_init.o (symbol from plugin)
initBootlog                                       obj/main/NAZE/drivers/logging.o (symbol from plugin)
                                                  obj/main/NAZE/fc/fc_init.o (symbol from plugin)
initEEPROM                                        obj/main/NAZE/config/config_eeprom.o (symbol from plugin)
                                                  obj/main/NAZE/fc/fc_init.o (symbol from plugin)
initFrSkyTelemetry                                obj/main/NAZE/telemetry/frsky.o (symbol from plugin)
                                                  obj/main/NAZE/telemetry/telemetry.o (symbol from plugin)
initInverters                                     obj/main/NAZE/drivers/inverter.o (symbol from plugin)
                                                  obj/main/NAZE/fc/fc_init.o (symbol from plugin)
initLtmTelemetry                                  obj/main/NAZE/telemetry/ltm.o (symbol from plugin)
                                                  obj/main/NAZE/telemetry/telemetry.o (symbol from plugin)
init_printf                                       obj/main/NAZE/common/printf.o (symbol from plugin)
initializePositionEstimator                       obj/main/NAZE/navigation/navigation_pos_estimator.o (symbol from plugin)
initializeRTHSanityChecker                        /tmp/ccELukx5.ltrans25.ltrans.o
                                                  obj/main/NAZE/navigation/navigation.o (symbol from plugin)
                                                  /tmp/ccELukx5.ltrans12.ltrans.o
inputFilteringMode.lto_priv.419                   /tmp/ccELukx5.ltrans8.ltrans.o
                                                  /tmp/ccELukx5.ltrans0.ltrans.o
inputSource_e                                     obj/main/NAZE/rx/eleres.o (symbol from plugin)
                                                  obj/main/NAZE/flight/servos.o (symbol from plugin)
                                                  obj/main/NAZE/flight/mixer.o (symbol from plugin)
                                                  obj/main/NAZE/fc/settings.o (symbol from plugin)
                                                  obj/main/NAZE/fc/fc_msp.o (symbol from plugin)
                                                  obj/main/NAZE/fc/fc_init.o (symbol from plugin)
                                                  obj/main/NAZE/fc/fc_core.o (symbol from plugin)
                                                  obj/main/NAZE/fc/config.o (symbol from plugin)
                                                  obj/main/NAZE/fc/cli.o (symbol from plugin)
                                                  obj/main/NAZE/build/build_config.o (symbol from plugin)
                                                  obj/main/NAZE/blackbox/blackbox.o (symbol from plugin)
ioDefUsedMask.lto_priv.427                        /tmp/ccELukx5.ltrans8.ltrans.o
                                                  /tmp/ccELukx5.ltrans0.ltrans.o
ioPortDefs                                        obj/main/NAZE/drivers/io.o (symbol from plugin)
ioRecs                                            /tmp/ccELukx5.ltrans8.ltrans.o
                                                  obj/main/NAZE/drivers/io.o (symbol from plugin)
                                                  /tmp/ccELukx5.ltrans0.ltrans.o
                                                  obj/main/NAZE/drivers/light_led.o (symbol from plugin)
isAirmodeActive                                   obj/main/NAZE/fc/rc_modes.o (symbol from plugin)
                                                  obj/main/NAZE/fc/fc_core.o (symbol from plugin)
isApproachingLastWaypoint                         obj/main/NAZE/navigation/navigation.o (symbol from plugin)
                                                  obj/main/NAZE/navigation/navigation_fixedwing.o (symbol from plugin)
isBlackboxDeviceFull                              /tmp/ccELukx5.ltrans26.ltrans.o
                                                  obj/main/NAZE/blackbox/blackbox_io.o (symbol from plugin)
                                                  /tmp/ccELukx5.ltrans15.ltrans.o
                                                  /tmp/ccELukx5.ltrans1.ltrans.o
                                                  obj/main/NAZE/blackbox/blackbox.o (symbol from plugin)
isCalibrating                                     /tmp/ccELukx5.ltrans15.ltrans.o
                                                  obj/main/NAZE/fc/fc_core.o (symbol from plugin)
                                                  /tmp/ccELukx5.ltrans4.ltrans.o
isEEPROMContentValid                              obj/main/NAZE/config/config_eeprom.o (symbol from plugin)
                                                  obj/main/NAZE/fc/config.o (symbol from plugin)
isEEPROMContentValid.part.4.lto_priv.305          /tmp/ccELukx5.ltrans8.ltrans.o
                                                  /tmp/ccELukx5.ltrans15.ltrans.o
                                                  /tmp/ccELukx5.ltrans0.ltrans.o
isEmpty.lto_priv.349                              /tmp/ccELukx5.ltrans14.ltrans.o
                                                  /tmp/ccELukx5.ltrans17.ltrans.o
                                                  /tmp/ccELukx5.ltrans16.ltrans.o
isFixedWingLandingDetected                        obj/main/NAZE/navigation/navigation_fixedwing.o (symbol from plugin)
                                                  obj/main/NAZE/navigation/navigation.o (symbol from plugin)
isFixedWingLaunchDetected                         obj/main/NAZE/navigation/navigation_fw_launch.o (symbol from plugin)
                                                  obj/main/NAZE/navigation/navigation.o (symbol from plugin)
isFixedWingLaunchFinishedOrAborted                obj/main/NAZE/navigation/navigation_fw_launch.o (symbol from plugin)
                                                  obj/main/NAZE/navigation/navigation.o (symbol from plugin)
isGPSGlitchDetected                               obj/main/NAZE/navigation/navigation_pos_estimator.o (symbol from plugin)
                                                  obj/main/NAZE/navigation/navigation.o (symbol from plugin)
isGPSHealthy                                      obj/main/NAZE/io/gps.o (symbol from plugin)
                                                  obj/main/NAZE/sensors/diagnostics.o (symbol from plugin)
isHardwareHealthy                                 /tmp/ccELukx5.ltrans18.ltrans.o
                                                  obj/main/NAZE/sensors/diagnostics.o (symbol from plugin)
                                                  /tmp/ccELukx5.ltrans15.ltrans.o
                                                  /tmp/ccELukx5.ltrans10.ltrans.o
                                                  /tmp/ccELukx5.ltrans9.ltrans.o
                                                  /tmp/ccELukx5.ltrans3.ltrans.o
                                                  obj/main/NAZE/io/beeper.o (symbol from plugin)
                                                  obj/main/NAZE/fc/fc_msp.o (symbol from plugin)
                                                  obj/main/NAZE/fc/fc_core.o (symbol from plugin)
                                                  obj/main/NAZE/telemetry/ltm.o (symbol from plugin)
isImuHeadingValid                                 /tmp/ccELukx5.ltrans7.ltrans.o
                                                  obj/main/NAZE/flight/imu.o (symbol from plugin)
                                                  /tmp/ccELukx5.ltrans25.ltrans.o
                                                  /tmp/ccELukx5.ltrans11.ltrans.o
                                                  obj/main/NAZE/navigation/navigation_pos_estimator.o (symbol from plugin)
                                                  obj/main/NAZE/navigation/navigation.o (symbol from plugin)
isImuReady                                        /tmp/ccELukx5.ltrans7.ltrans.o
                                                  obj/main/NAZE/flight/imu.o (symbol from plugin)
                                                  /tmp/ccELukx5.ltrans11.ltrans.o
                                                  /tmp/ccELukx5.ltrans1.ltrans.o
                                                  obj/main/NAZE/navigation/navigation_pos_estimator.o (symbol from plugin)
isLandingDetected                                 obj/main/NAZE/navigation/navigation.o (symbol from plugin)
isMPUSoftReset                                    obj/main/NAZE/drivers/system_stm32f10x.o (symbol from plugin)
                                                  obj/main/NAZE/fc/fc_init.o (symbol from plugin)
                                                  obj/main/NAZE/io/gps.o (symbol from plugin)
isMixerEnabled                                    obj/main/NAZE/flight/mixer.o (symbol from plugin)
                                                  obj/main/NAZE/fc/config.o (symbol from plugin)
isMixerUsingServos                                obj/main/NAZE/flight/servos.o (symbol from plugin)
                                                  obj/main/NAZE/fc/fc_init.o (symbol from plugin)
                                                  obj/main/NAZE/fc/fc_core.o (symbol from plugin)
isModeActivationConditionPresent                  /tmp/ccELukx5.ltrans7.ltrans.o
                                                  obj/main/NAZE/fc/rc_modes.o (symbol from plugin)
                                                  /tmp/ccELukx5.ltrans15.ltrans.o
                                                  obj/main/NAZE/blackbox/blackbox.o (symbol from plugin)
isMotorBrushed                                    obj/main/NAZE/drivers/pwm_output.o (symbol from plugin)
isMulticopterLandingDetected                      obj/main/NAZE/navigation/navigation_multicopter.o (symbol from plugin)
                                                  obj/main/NAZE/navigation/navigation.o (symbol from plugin)
isPPMDataBeingReceived                            obj/main/NAZE/drivers/rx_pwm.o (symbol from plugin)
                                                  obj/main/NAZE/rx/rx.o (symbol from plugin)
isPWMDataBeingReceived                            obj/main/NAZE/drivers/rx_pwm.o (symbol from plugin)
                                                  obj/main/NAZE/rx/rx.o (symbol from plugin)
isPwmDriverEnabled                                obj/main/NAZE/io/pwmdriver_i2c.o (symbol from plugin)
isRXDataNew.lto_priv.262                          /tmp/ccELukx5.ltrans4.ltrans.o
                                                  /tmp/ccELukx5.ltrans1.ltrans.o
isRangeActive                                     obj/main/NAZE/fc/rc_modes.o (symbol from plugin)
                                                  obj/main/NAZE/fc/rc_adjustments.o (symbol from plugin)
isRangeActive.part.0.lto_priv.252                 /tmp/ccELukx5.ltrans7.ltrans.o
                                                  /tmp/ccELukx5.ltrans4.ltrans.o
isSerialConfigValid                               obj/main/NAZE/io/serial.o (symbol from plugin)
                                                  obj/main/NAZE/fc/config.o (symbol from plugin)
isSerialPortShared                                obj/main/NAZE/io/serial.o (symbol from plugin)
isSerialTransmitBufferEmpty                       /tmp/ccELukx5.ltrans19.ltrans.o
                                                  obj/main/NAZE/drivers/serial.o (symbol from plugin)
                                                  /tmp/ccELukx5.ltrans26.ltrans.o
                                                  /tmp/ccELukx5.ltrans18.ltrans.o
                                                  /tmp/ccELukx5.ltrans12.ltrans.o
                                                  /tmp/ccELukx5.ltrans2.ltrans.o
                                                  obj/main/NAZE/msp/msp_serial.o (symbol from plugin)
                                                  obj/main/NAZE/io/serial.o (symbol from plugin)
                                                  obj/main/NAZE/common/printf.o (symbol from plugin)
                                                  obj/main/NAZE/io/gps_ublox.o (symbol from plugin)
                                                  obj/main/NAZE/io/gps.o (symbol from plugin)
                                                  obj/main/NAZE/blackbox/blackbox_io.o (symbol from plugin)
isServoOutputEnabled                              obj/main/NAZE/flight/servos.o (symbol from plugin)
                                                  obj/main/NAZE/fc/fc_core.o (symbol from plugin)
isSoftSerialTransmitBufferEmpty                   obj/main/NAZE/drivers/serial_softserial.o (symbol from plugin)
isThrustFacingDownwards                           obj/main/NAZE/navigation/navigation.o (symbol from plugin)
isUartTransmitBufferEmpty                         obj/main/NAZE/drivers/serial_uart.o (symbol from plugin)
isUsingNAVModes.lto_priv.301                      /tmp/ccELukx5.ltrans7.ltrans.o
                                                  /tmp/ccELukx5.ltrans15.ltrans.o
isUsingNavigationModes                            obj/main/NAZE/fc/rc_modes.o (symbol from plugin)
                                                  obj/main/NAZE/navigation/navigation.o (symbol from plugin)
isUsingSticksForArming                            obj/main/NAZE/fc/rc_modes.o (symbol from plugin)
                                                  obj/main/NAZE/flight/failsafe.o (symbol from plugin)
                                                  obj/main/NAZE/fc/rc_controls.o (symbol from plugin)
                                                  obj/main/NAZE/fc/fc_core.o (symbol from plugin)
isUsingSticksToArm.lto_priv.244                   /tmp/ccELukx5.ltrans7.ltrans.o
                                                  /tmp/ccELukx5.ltrans15.ltrans.o
                                                  /tmp/ccELukx5.ltrans4.ltrans.o
                                                  /tmp/ccELukx5.ltrans1.ltrans.o
isWaypointListValid                               obj/main/NAZE/navigation/navigation.o (symbol from plugin)
                                                  obj/main/NAZE/fc/fc_msp.o (symbol from plugin)
isWaypointMissed                                  obj/main/NAZE/navigation/navigation.o (symbol from plugin)
isWaypointReached                                 /tmp/ccELukx5.ltrans25.ltrans.o
                                                  obj/main/NAZE/navigation/navigation.o (symbol from plugin)
                                                  /tmp/ccELukx5.ltrans12.ltrans.o
itoa                                              obj/main/NAZE/common/typeconversion.o (symbol from plugin)
landingDetectorStartedAt.lto_priv.457             /tmp/ccELukx5.ltrans25.ltrans.o
                                                  /tmp/ccELukx5.ltrans12.ltrans.o
landingThrSamples.lto_priv.458                    /tmp/ccELukx5.ltrans25.ltrans.o
                                                  /tmp/ccELukx5.ltrans12.ltrans.o
landingThrSum.lto_priv.459                        /tmp/ccELukx5.ltrans25.ltrans.o
                                                  /tmp/ccELukx5.ltrans12.ltrans.o
landingTimer.lto_priv.461                         /tmp/ccELukx5.ltrans25.ltrans.o
                                                  /tmp/ccELukx5.ltrans12.ltrans.o
landingTimerUs.lto_priv.462                       /tmp/ccELukx5.ltrans25.ltrans.o
                                                  /tmp/ccELukx5.ltrans12.ltrans.o
lastAccelTargetX.lto_priv.447                     /tmp/ccELukx5.ltrans1.ltrans.o
                                                  /tmp/ccELukx5.ltrans28.ltrans.o
lastAccelTargetY.lto_priv.448                     /tmp/ccELukx5.ltrans1.ltrans.o
                                                  /tmp/ccELukx5.ltrans28.ltrans.o
lastDisarmReason.lto_priv.300                     /tmp/ccELukx5.ltrans10.ltrans.o
                                                  /tmp/ccELukx5.ltrans23.ltrans.o
                                                  /tmp/ccELukx5.ltrans15.ltrans.o
latchActiveFeatures                               obj/main/NAZE/config/feature.o (symbol from plugin)
                                                  obj/main/NAZE/fc/fc_init.o (symbol from plugin)
launchState.lto_priv.452                          /tmp/ccELukx5.ltrans13.ltrans.o
                                                  /tmp/ccELukx5.ltrans25.ltrans.o
ledInit                                           obj/main/NAZE/drivers/light_led.o (symbol from plugin)
                                                  obj/main/NAZE/fc/fc_init.o (symbol from plugin)
ledOffset.lto_priv.424                            /tmp/ccELukx5.ltrans8.ltrans.o
ledPolarity                                       obj/main/NAZE/drivers/light_led.o (symbol from plugin)
ledSet                                            /tmp/ccELukx5.ltrans8.ltrans.o
                                                  obj/main/NAZE/drivers/light_led.o (symbol from plugin)
                                                  /tmp/ccELukx5.ltrans29.ltrans.o
                                                  /tmp/ccELukx5.ltrans18.ltrans.o
                                                  /tmp/ccELukx5.ltrans17.ltrans.o
                                                  /tmp/ccELukx5.ltrans15.ltrans.o
                                                  /tmp/ccELukx5.ltrans14.ltrans.o
                                                  /tmp/ccELukx5.ltrans4.ltrans.o
                                                  /tmp/ccELukx5.ltrans0.ltrans.o
                                                  obj/main/NAZE/sensors/compass.o (symbol from plugin)
                                                  obj/main/NAZE/io/statusindicator.o (symbol from plugin)
                                                  obj/main/NAZE/io/serial.o (symbol from plugin)
                                                  obj/main/NAZE/fc/fc_hardfaults.o (symbol from plugin)
                                                  obj/main/NAZE/fc/fc_init.o (symbol from plugin)
                                                  obj/main/NAZE/fc/fc_core.o (symbol from plugin)
                                                  obj/main/NAZE/drivers/system.o (symbol from plugin)
                                                  obj/main/NAZE/io/gps.o (symbol from plugin)
ledToggle                                         /tmp/ccELukx5.ltrans8.ltrans.o
                                                  obj/main/NAZE/drivers/light_led.o (symbol from plugin)
                                                  /tmp/ccELukx5.ltrans27.ltrans.o
                                                  /tmp/ccELukx5.ltrans18.ltrans.o
                                                  /tmp/ccELukx5.ltrans14.ltrans.o
                                                  /tmp/ccELukx5.ltrans6.ltrans.o
                                                  /tmp/ccELukx5.ltrans0.ltrans.o
                                                  obj/main/NAZE/sensors/compass.o (symbol from plugin)
                                                  obj/main/NAZE/io/statusindicator.o (symbol from plugin)
                                                  obj/main/NAZE/fc/fc_init.o (symbol from plugin)
                                                  obj/main/NAZE/drivers/system.o (symbol from plugin)
                                                  obj/main/NAZE/io/gps.o (symbol from plugin)
                                                  obj/main/NAZE/drivers/compass/compass_hmc5883l.o (symbol from plugin)
leds.lto_priv.425                                 /tmp/ccELukx5.ltrans8.ltrans.o
                                                  /tmp/ccELukx5.ltrans0.ltrans.o
li2a                                              obj/main/NAZE/common/typeconversion.o (symbol from plugin)
                                                  obj/main/NAZE/common/printf.o (symbol from plugin)
loadCustomServoMixer                              /tmp/ccELukx5.ltrans9.ltrans.o
                                                  obj/main/NAZE/flight/servos.o (symbol from plugin)
                                                  /tmp/ccELukx5.ltrans2.ltrans.o
                                                  /tmp/ccELukx5.ltrans0.ltrans.o
                                                  obj/main/NAZE/fc/fc_msp.o (symbol from plugin)
loadEEPROM                                        obj/main/NAZE/config/config_eeprom.o (symbol from plugin)
                                                  obj/main/NAZE/fc/config.o (symbol from plugin)
loadMainState.lto_priv.477                        /tmp/ccELukx5.ltrans6.ltrans.o
                                                  /tmp/ccELukx5.ltrans23.ltrans.o
lookupBaudRateIndex                               obj/main/NAZE/io/serial.o (symbol from plugin)
                                                  obj/main/NAZE/fc/cli.o (symbol from plugin)
lookupThrottleRC.lto_priv.271                     /tmp/ccELukx5.ltrans7.ltrans.o
                                                  /tmp/ccELukx5.ltrans1.ltrans.o
lookupThrottleRCMid                               /tmp/ccELukx5.ltrans7.ltrans.o
                                                  obj/main/NAZE/fc/rc_curves.o (symbol from plugin)
                                                  /tmp/ccELukx5.ltrans13.ltrans.o
lrintf                                            /usr/bin/../lib/gcc/arm-none-eabi/4.9.3/../../../../arm-none-eabi/lib/armv7-m/libm.a(lib_a-sf_lrint.o)
                                                  /tmp/ccELukx5.ltrans28.ltrans.o
                                                  /tmp/ccELukx5.ltrans27.ltrans.o
                                                  /tmp/ccELukx5.ltrans25.ltrans.o
                                                  /tmp/ccELukx5.ltrans24.ltrans.o
                                                  /tmp/ccELukx5.ltrans18.ltrans.o
                                                  /tmp/ccELukx5.ltrans10.ltrans.o
                                                  /tmp/ccELukx5.ltrans8.ltrans.o
                                                  /tmp/ccELukx5.ltrans6.ltrans.o
                                                  /tmp/ccELukx5.ltrans3.ltrans.o
                                                  /tmp/ccELukx5.ltrans1.ltrans.o
ltmEnabled.lto_priv.436                           /tmp/ccELukx5.ltrans10.ltrans.o
                                                  /tmp/ccELukx5.ltrans11.ltrans.o
ltmPort.lto_priv.438                              /tmp/ccELukx5.ltrans10.ltrans.o
                                                  /tmp/ccELukx5.ltrans11.ltrans.o
ltmPortSharing.lto_priv.437                       /tmp/ccELukx5.ltrans0.ltrans.o
                                                  /tmp/ccELukx5.ltrans11.ltrans.o
ltm_aframe                                        obj/main/NAZE/telemetry/ltm.o (symbol from plugin)
ltm_finalise.lto_priv.190                         /tmp/ccELukx5.ltrans11.ltrans.o
                                                  /tmp/ccELukx5.ltrans10.ltrans.o
ltm_gframe                                        obj/main/NAZE/telemetry/ltm.o (symbol from plugin)
ltm_initialise_packet.lto_priv.191                /tmp/ccELukx5.ltrans11.ltrans.o
                                                  /tmp/ccELukx5.ltrans10.ltrans.o
ltm_nframe                                        obj/main/NAZE/telemetry/ltm.o (symbol from plugin)
ltm_oframe                                        obj/main/NAZE/telemetry/ltm.o (symbol from plugin)
ltm_schedule.lto_priv.439                         /tmp/ccELukx5.ltrans10.ltrans.o
                                                  /tmp/ccELukx5.ltrans11.ltrans.o
ltm_sframe                                        obj/main/NAZE/telemetry/ltm.o (symbol from plugin)
ltm_x_counter.lto_priv.440                        /tmp/ccELukx5.ltrans10.ltrans.o
                                                  /tmp/ccELukx5.ltrans11.ltrans.o
ltm_xframe                                        obj/main/NAZE/telemetry/ltm.o (symbol from plugin)
m25p16CsPin.lto_priv.484                          /tmp/ccELukx5.ltrans0.ltrans.o
                                                  /tmp/ccELukx5.ltrans6.ltrans.o
m25p16_eraseCompletely                            obj/main/NAZE/drivers/flash_m25p16.o (symbol from plugin)
                                                  obj/main/NAZE/io/flashfs.o (symbol from plugin)
m25p16_eraseSector                                obj/main/NAZE/drivers/flash_m25p16.o (symbol from plugin)
                                                  obj/main/NAZE/io/flashfs.o (symbol from plugin)
m25p16_getGeometry                                obj/main/NAZE/drivers/flash_m25p16.o (symbol from plugin)
                                                  obj/main/NAZE/io/flashfs.o (symbol from plugin)
m25p16_init                                       obj/main/NAZE/drivers/flash_m25p16.o (symbol from plugin)
                                                  obj/main/NAZE/fc/fc_init.o (symbol from plugin)
m25p16_isReady                                    /tmp/ccELukx5.ltrans6.ltrans.o
                                                  obj/main/NAZE/drivers/flash_m25p16.o (symbol from plugin)
                                                  /tmp/ccELukx5.ltrans16.ltrans.o
                                                  /tmp/ccELukx5.ltrans3.ltrans.o
                                                  obj/main/NAZE/io/flashfs.o (symbol from plugin)
m25p16_pageProgram                                obj/main/NAZE/drivers/flash_m25p16.o (symbol from plugin)
m25p16_pageProgramBegin                           obj/main/NAZE/drivers/flash_m25p16.o (symbol from plugin)
                                                  obj/main/NAZE/io/flashfs.o (symbol from plugin)
m25p16_pageProgramContinue                        obj/main/NAZE/drivers/flash_m25p16.o (symbol from plugin)
                                                  obj/main/NAZE/io/flashfs.o (symbol from plugin)
m25p16_pageProgramFinish                          obj/main/NAZE/drivers/flash_m25p16.o (symbol from plugin)
                                                  obj/main/NAZE/io/flashfs.o (symbol from plugin)
m25p16_readBytes                                  /tmp/ccELukx5.ltrans6.ltrans.o
                                                  obj/main/NAZE/drivers/flash_m25p16.o (symbol from plugin)
                                                  /tmp/ccELukx5.ltrans2.ltrans.o
                                                  /tmp/ccELukx5.ltrans0.ltrans.o
                                                  obj/main/NAZE/io/flashfs.o (symbol from plugin)
m25p16_waitForReady                               obj/main/NAZE/drivers/flash_m25p16.o (symbol from plugin)
mAhDrawn                                          /tmp/ccELukx5.ltrans3.ltrans.o
                                                  obj/main/NAZE/sensors/battery.o (symbol from plugin)
                                                  /tmp/ccELukx5.ltrans27.ltrans.o
                                                  /tmp/ccELukx5.ltrans10.ltrans.o
                                                  obj/main/NAZE/fc/fc_msp.o (symbol from plugin)
                                                  obj/main/NAZE/telemetry/ltm.o (symbol from plugin)
                                                  obj/main/NAZE/telemetry/frsky.o (symbol from plugin)
mag                                               /tmp/ccELukx5.ltrans18.ltrans.o
                                                  obj/main/NAZE/sensors/compass.o (symbol from plugin)
                                                  /tmp/ccELukx5.ltrans27.ltrans.o
                                                  /tmp/ccELukx5.ltrans11.ltrans.o
                                                  /tmp/ccELukx5.ltrans7.ltrans.o
                                                  /tmp/ccELukx5.ltrans6.ltrans.o
                                                  /tmp/ccELukx5.ltrans3.ltrans.o
                                                  /tmp/ccELukx5.ltrans0.ltrans.o
                                                  obj/main/NAZE/sensors/initialisation.o (symbol from plugin)
                                                  obj/main/NAZE/flight/imu.o (symbol from plugin)
                                                  obj/main/NAZE/fc/fc_msp.o (symbol from plugin)
                                                  obj/main/NAZE/navigation/navigation_pos_estimator.o (symbol from plugin)
                                                  obj/main/NAZE/blackbox/blackbox.o (symbol from plugin)
magGain.lto_priv.488                              /tmp/ccELukx5.ltrans6.ltrans.o
                                                  /tmp/ccELukx5.ltrans5.ltrans.o
magInit.lto_priv.396                              /tmp/ccELukx5.ltrans27.ltrans.o
                                                  /tmp/ccELukx5.ltrans0.ltrans.o
main                                              /tmp/ccELukx5.ltrans0.ltrans.o
                                                  obj/main/NAZE/main.o (symbol from plugin)
                                                  obj/main/NAZE/startup_stm32f10x_md_gcc.o
malloc                                            /usr/bin/../lib/gcc/arm-none-eabi/4.9.3/../../../../arm-none-eabi/lib/armv7-m/libc_nano.a(lib_a-malloc.o)
                                                  /usr/bin/../lib/gcc/arm-none-eabi/4.9.3/../../../../arm-none-eabi/lib/armv7-m/libc_nano.a(lib_a-strtok.o)
matherr                                           /usr/bin/../lib/gcc/arm-none-eabi/4.9.3/../../../../arm-none-eabi/lib/armv7-m/libm.a(lib_a-s_matherr.o)
                                                  /usr/bin/../lib/gcc/arm-none-eabi/4.9.3/../../../../arm-none-eabi/lib/armv7-m/libm.a(lib_a-wf_sqrt.o)
                                                  /usr/bin/../lib/gcc/arm-none-eabi/4.9.3/../../../../arm-none-eabi/lib/armv7-m/libm.a(lib_a-wf_pow.o)
maxServoIndex.lto_priv.266                        /tmp/ccELukx5.ltrans9.ltrans.o
                                                  /tmp/ccELukx5.ltrans1.ltrans.o
                                                  /tmp/ccELukx5.ltrans0.ltrans.o
mcPosControllerAccFilterStateX.lto_priv.445       /tmp/ccELukx5.ltrans1.ltrans.o
                                                  /tmp/ccELukx5.ltrans28.ltrans.o
mcPosControllerAccFilterStateY.lto_priv.446       /tmp/ccELukx5.ltrans1.ltrans.o
                                                  /tmp/ccELukx5.ltrans28.ltrans.o
memcmp                                            /usr/bin/../lib/gcc/arm-none-eabi/4.9.3/../../../../arm-none-eabi/lib/armv7-m/libg_nano.a(lib_a-memcmp.o)
                                                  /tmp/ccELukx5.ltrans23.ltrans.o
                                                  /tmp/ccELukx5.ltrans6.ltrans.o
memcpy                                            /usr/bin/../lib/gcc/arm-none-eabi/4.9.3/../../../../arm-none-eabi/lib/armv7-m/libg_nano.a(lib_a-memcpy.o)
                                                  /tmp/ccELukx5.ltrans26.ltrans.o
                                                  /tmp/ccELukx5.ltrans22.ltrans.o
                                                  /tmp/ccELukx5.ltrans21.ltrans.o
                                                  /tmp/ccELukx5.ltrans8.ltrans.o
memmove                                           /usr/bin/../lib/gcc/arm-none-eabi/4.9.3/../../../../arm-none-eabi/lib/armv7-m/libg_nano.a(lib_a-memmove.o)
                                                  /tmp/ccELukx5.ltrans18.ltrans.o
                                                  /tmp/ccELukx5.ltrans9.ltrans.o
memset                                            /usr/bin/../lib/gcc/arm-none-eabi/4.9.3/../../../../arm-none-eabi/lib/armv7-m/libg_nano.a(lib_a-memset.o)
                                                  /tmp/ccELukx5.ltrans29.ltrans.o
                                                  /tmp/ccELukx5.ltrans22.ltrans.o
                                                  /tmp/ccELukx5.ltrans21.ltrans.o
                                                  /tmp/ccELukx5.ltrans18.ltrans.o
                                                  /tmp/ccELukx5.ltrans17.ltrans.o
                                                  /tmp/ccELukx5.ltrans16.ltrans.o
                                                  /tmp/ccELukx5.ltrans15.ltrans.o
                                                  /tmp/ccELukx5.ltrans14.ltrans.o
                                                  /tmp/ccELukx5.ltrans9.ltrans.o
                                                  /tmp/ccELukx5.ltrans8.ltrans.o
                                                  /tmp/ccELukx5.ltrans7.ltrans.o
                                                  /tmp/ccELukx5.ltrans4.ltrans.o
                                                  /tmp/ccELukx5.ltrans2.ltrans.o
                                                  /tmp/ccELukx5.ltrans1.ltrans.o
                                                  /tmp/ccELukx5.ltrans0.ltrans.o
micros                                            /tmp/ccELukx5.ltrans19.ltrans.o
                                                  obj/main/NAZE/drivers/system.o (symbol from plugin)
                                                  /tmp/ccELukx5.ltrans25.ltrans.o
                                                  /tmp/ccELukx5.ltrans18.ltrans.o
                                                  /tmp/ccELukx5.ltrans15.ltrans.o
                                                  /tmp/ccELukx5.ltrans12.ltrans.o
                                                  /tmp/ccELukx5.ltrans11.ltrans.o
                                                  /tmp/ccELukx5.ltrans1.ltrans.o
                                                  /tmp/ccELukx5.ltrans0.ltrans.o
                                                  obj/main/NAZE/scheduler/scheduler.o (symbol from plugin)
                                                  obj/main/NAZE/rx/spektrum.o (symbol from plugin)
                                                  obj/main/NAZE/rx/sbus.o (symbol from plugin)
                                                  obj/main/NAZE/rx/rx.o (symbol from plugin)
                                                  obj/main/NAZE/io/statusindicator.o (symbol from plugin)
                                                  obj/main/NAZE/fc/fc_core.o (symbol from plugin)
                                                  obj/main/NAZE/navigation/navigation_pos_estimator.o (symbol from plugin)
                                                  obj/main/NAZE/navigation/navigation_multicopter.o (symbol from plugin)
                                                  obj/main/NAZE/navigation/navigation_fixedwing.o (symbol from plugin)
                                                  obj/main/NAZE/navigation/navigation.o (symbol from plugin)
microsISR                                         obj/main/NAZE/drivers/system.o (symbol from plugin)
millis                                            obj/main/NAZE/drivers/system.o (symbol from plugin)
                                                  obj/main/NAZE/rx/spektrum.o (symbol from plugin)
                                                  obj/main/NAZE/rx/rx.o (symbol from plugin)
                                                  obj/main/NAZE/io/statusindicator.o (symbol from plugin)
                                                  obj/main/NAZE/io/beeper.o (symbol from plugin)
                                                  obj/main/NAZE/flight/servos.o (symbol from plugin)
                                                  obj/main/NAZE/flight/imu.o (symbol from plugin)
                                                  obj/main/NAZE/flight/failsafe.o (symbol from plugin)
                                                  obj/main/NAZE/fc/rc_controls.o (symbol from plugin)
                                                  obj/main/NAZE/fc/rc_adjustments.o (symbol from plugin)
                                                  obj/main/NAZE/fc/fc_core.o (symbol from plugin)
                                                  obj/main/NAZE/fc/cli.o (symbol from plugin)
                                                  obj/main/NAZE/telemetry/ltm.o (symbol from plugin)
                                                  obj/main/NAZE/telemetry/frsky.o (symbol from plugin)
                                                  obj/main/NAZE/sensors/barometer.o (symbol from plugin)
                                                  obj/main/NAZE/navigation/navigation_pos_estimator.o (symbol from plugin)
                                                  obj/main/NAZE/navigation/navigation.o (symbol from plugin)
                                                  obj/main/NAZE/io/gps.o (symbol from plugin)
                                                  obj/main/NAZE/blackbox/blackbox.o (symbol from plugin)
                                                  obj/main/NAZE/drivers/flash_m25p16.o (symbol from plugin)
minServoIndex.lto_priv.265                        /tmp/ccELukx5.ltrans9.ltrans.o
                                                  /tmp/ccELukx5.ltrans1.ltrans.o
                                                  /tmp/ccELukx5.ltrans0.ltrans.o
mixTable                                          obj/main/NAZE/flight/mixer.o (symbol from plugin)
                                                  obj/main/NAZE/fc/fc_core.o (symbol from plugin)
mixerConfig_Copy                                  /tmp/ccELukx5.ltrans7.ltrans.o
                                                  obj/main/NAZE/flight/mixer.o (symbol from plugin)
                                                  /tmp/ccELukx5.ltrans21.ltrans.o
                                                  obj/main/NAZE/fc/cli.o (symbol from plugin)
mixerConfig_Registry                              /tmp/ccELukx5.ltrans7.ltrans.o
                                                  obj/main/NAZE/flight/mixer.o (symbol from plugin)
mixerConfig_System                                /tmp/ccELukx5.ltrans7.ltrans.o
                                                  obj/main/NAZE/flight/mixer.o (symbol from plugin)
                                                  /tmp/ccELukx5.ltrans21.ltrans.o
                                                  /tmp/ccELukx5.ltrans17.ltrans.o
                                                  /tmp/ccELukx5.ltrans15.ltrans.o
                                                  /tmp/ccELukx5.ltrans4.ltrans.o
                                                  /tmp/ccELukx5.ltrans3.ltrans.o
                                                  /tmp/ccELukx5.ltrans2.ltrans.o
                                                  /tmp/ccELukx5.ltrans1.ltrans.o
                                                  /tmp/ccELukx5.ltrans0.ltrans.o
                                                  obj/main/NAZE/flight/servos.o (symbol from plugin)
                                                  obj/main/NAZE/fc/fc_msp.o (symbol from plugin)
                                                  obj/main/NAZE/fc/fc_core.o (symbol from plugin)
                                                  obj/main/NAZE/fc/config.o (symbol from plugin)
                                                  obj/main/NAZE/fc/cli.o (symbol from plugin)
                                                  obj/main/NAZE/blackbox/blackbox.o (symbol from plugin)
mixerIsOutputSaturated                            obj/main/NAZE/flight/mixer.o (symbol from plugin)
                                                  obj/main/NAZE/flight/pid.o (symbol from plugin)
mixerLoadMix                                      obj/main/NAZE/flight/mixer.o (symbol from plugin)
                                                  obj/main/NAZE/fc/cli.o (symbol from plugin)
mixerNames.lto_priv.340                           /tmp/ccELukx5.ltrans21.ltrans.o
                                                  /tmp/ccELukx5.ltrans17.ltrans.o
                                                  /tmp/ccELukx5.ltrans16.ltrans.o
mixerResetDisarmedMotors                          /tmp/ccELukx5.ltrans7.ltrans.o
                                                  obj/main/NAZE/flight/mixer.o (symbol from plugin)
                                                  /tmp/ccELukx5.ltrans17.ltrans.o
                                                  /tmp/ccELukx5.ltrans0.ltrans.o
                                                  obj/main/NAZE/fc/cli.o (symbol from plugin)
mixerUpdateStateFlags                             /tmp/ccELukx5.ltrans7.ltrans.o
                                                  obj/main/NAZE/flight/mixer.o (symbol from plugin)
                                                  /tmp/ccELukx5.ltrans2.ltrans.o
                                                  /tmp/ccELukx5.ltrans0.ltrans.o
                                                  obj/main/NAZE/fc/fc_msp.o (symbol from plugin)
                                                  obj/main/NAZE/fc/fc_init.o (symbol from plugin)
mixerUsePWMIOConfiguration                        obj/main/NAZE/flight/mixer.o (symbol from plugin)
                                                  obj/main/NAZE/fc/fc_init.o (symbol from plugin)
mixerUsesServos.lto_priv.420                      /tmp/ccELukx5.ltrans1.ltrans.o
                                                  /tmp/ccELukx5.ltrans0.ltrans.o
modeActivationConditions_CopyArray                /tmp/ccELukx5.ltrans7.ltrans.o
                                                  obj/main/NAZE/fc/rc_modes.o (symbol from plugin)
                                                  /tmp/ccELukx5.ltrans21.ltrans.o
                                                  obj/main/NAZE/fc/cli.o (symbol from plugin)
modeActivationConditions_Registry                 /tmp/ccELukx5.ltrans7.ltrans.o
                                                  obj/main/NAZE/fc/rc_modes.o (symbol from plugin)
modeActivationConditions_SystemArray              /tmp/ccELukx5.ltrans7.ltrans.o
                                                  obj/main/NAZE/fc/rc_modes.o (symbol from plugin)
                                                  /tmp/ccELukx5.ltrans21.ltrans.o
                                                  /tmp/ccELukx5.ltrans14.ltrans.o
                                                  /tmp/ccELukx5.ltrans4.ltrans.o
                                                  /tmp/ccELukx5.ltrans3.ltrans.o
                                                  /tmp/ccELukx5.ltrans2.ltrans.o
                                                  /tmp/ccELukx5.ltrans0.ltrans.o
                                                  obj/main/NAZE/rx/rx.o (symbol from plugin)
                                                  obj/main/NAZE/fc/fc_msp.o (symbol from plugin)
                                                  obj/main/NAZE/fc/cli.o (symbol from plugin)
modeActivationOperatorConfig_Copy                 obj/main/NAZE/fc/rc_modes.o (symbol from plugin)
modeActivationOperatorConfig_Registry             /tmp/ccELukx5.ltrans4.ltrans.o
                                                  obj/main/NAZE/fc/rc_modes.o (symbol from plugin)
modeActivationOperatorConfig_System               obj/main/NAZE/fc/rc_modes.o (symbol from plugin)
motor                                             /tmp/ccELukx5.ltrans7.ltrans.o
                                                  obj/main/NAZE/flight/mixer.o (symbol from plugin)
                                                  /tmp/ccELukx5.ltrans6.ltrans.o
                                                  /tmp/ccELukx5.ltrans3.ltrans.o
                                                  /tmp/ccELukx5.ltrans1.ltrans.o
                                                  obj/main/NAZE/flight/servos.o (symbol from plugin)
                                                  obj/main/NAZE/fc/fc_msp.o (symbol from plugin)
                                                  obj/main/NAZE/blackbox/blackbox.o (symbol from plugin)
motorConfig_Copy                                  obj/main/NAZE/flight/mixer.o (symbol from plugin)
motorConfig_Registry                              /tmp/ccELukx5.ltrans7.ltrans.o
                                                  obj/main/NAZE/flight/mixer.o (symbol from plugin)
motorConfig_System                                /tmp/ccELukx5.ltrans7.ltrans.o
                                                  obj/main/NAZE/flight/mixer.o (symbol from plugin)
                                                  /tmp/ccELukx5.ltrans28.ltrans.o
                                                  /tmp/ccELukx5.ltrans23.ltrans.o
                                                  /tmp/ccELukx5.ltrans21.ltrans.o
                                                  /tmp/ccELukx5.ltrans13.ltrans.o
                                                  /tmp/ccELukx5.ltrans6.ltrans.o
                                                  /tmp/ccELukx5.ltrans3.ltrans.o
                                                  /tmp/ccELukx5.ltrans2.ltrans.o
                                                  /tmp/ccELukx5.ltrans1.ltrans.o
                                                  /tmp/ccELukx5.ltrans0.ltrans.o
                                                  obj/main/NAZE/flight/pid.o (symbol from plugin)
                                                  obj/main/NAZE/flight/failsafe.o (symbol from plugin)
                                                  obj/main/NAZE/fc/rc_curves.o (symbol from plugin)
                                                  obj/main/NAZE/fc/fc_msp.o (symbol from plugin)
                                                  obj/main/NAZE/fc/fc_init.o (symbol from plugin)
                                                  obj/main/NAZE/fc/fc_core.o (symbol from plugin)
                                                  obj/main/NAZE/fc/config.o (symbol from plugin)
                                                  obj/main/NAZE/navigation/navigation_multicopter.o (symbol from plugin)
                                                  obj/main/NAZE/navigation/navigation_fw_launch.o (symbol from plugin)
                                                  obj/main/NAZE/navigation/navigation_fixedwing.o (symbol from plugin)
                                                  obj/main/NAZE/blackbox/blackbox.o (symbol from plugin)
motorControlEnable                                /tmp/ccELukx5.ltrans1.ltrans.o
                                                  obj/main/NAZE/fc/fc_core.o (symbol from plugin)
                                                  /tmp/ccELukx5.ltrans0.ltrans.o
                                                  obj/main/NAZE/fc/fc_init.o (symbol from plugin)
motorCount.lto_priv.177                           /tmp/ccELukx5.ltrans9.ltrans.o
                                                  /tmp/ccELukx5.ltrans29.ltrans.o
                                                  /tmp/ccELukx5.ltrans23.ltrans.o
                                                  /tmp/ccELukx5.ltrans17.ltrans.o
                                                  /tmp/ccELukx5.ltrans15.ltrans.o
                                                  /tmp/ccELukx5.ltrans7.ltrans.o
                                                  /tmp/ccELukx5.ltrans6.ltrans.o
                                                  /tmp/ccELukx5.ltrans1.ltrans.o
                                                  /tmp/ccELukx5.ltrans0.ltrans.o
motorLimitReached.lto_priv.268                    /tmp/ccELukx5.ltrans9.ltrans.o
                                                  /tmp/ccELukx5.ltrans1.ltrans.o
motor_disarmed                                    /tmp/ccELukx5.ltrans7.ltrans.o
                                                  obj/main/NAZE/flight/mixer.o (symbol from plugin)
                                                  /tmp/ccELukx5.ltrans17.ltrans.o
                                                  /tmp/ccELukx5.ltrans2.ltrans.o
                                                  /tmp/ccELukx5.ltrans1.ltrans.o
                                                  obj/main/NAZE/fc/fc_msp.o (symbol from plugin)
                                                  obj/main/NAZE/fc/cli.o (symbol from plugin)
motors.lto_priv.188                               /tmp/ccELukx5.ltrans7.ltrans.o
                                                  /tmp/ccELukx5.ltrans29.ltrans.o
                                                  /tmp/ccELukx5.ltrans17.ltrans.o
                                                  /tmp/ccELukx5.ltrans8.ltrans.o
                                                  /tmp/ccELukx5.ltrans0.ltrans.o
mpu6050AccDetect                                  obj/main/NAZE/drivers/accgyro/accgyro_mpu6050.o (symbol from plugin)
                                                  obj/main/NAZE/sensors/acceleration.o (symbol from plugin)
mpu6050AccInit.lto_priv.385                       /tmp/ccELukx5.ltrans5.ltrans.o
                                                  /tmp/ccELukx5.ltrans0.ltrans.o
mpu6050GyroDetect                                 obj/main/NAZE/drivers/accgyro/accgyro_mpu6050.o (symbol from plugin)
                                                  obj/main/NAZE/sensors/gyro.o (symbol from plugin)
mpu6050GyroInit.lto_priv.403                      /tmp/ccELukx5.ltrans5.ltrans.o
                                                  /tmp/ccELukx5.ltrans0.ltrans.o
mpu6500AccDetect                                  obj/main/NAZE/drivers/accgyro/accgyro_mpu6500.o (symbol from plugin)
                                                  obj/main/NAZE/sensors/acceleration.o (symbol from plugin)
mpu6500AccInit                                    /tmp/ccELukx5.ltrans5.ltrans.o
                                                  obj/main/NAZE/drivers/accgyro/accgyro_mpu6500.o (symbol from plugin)
                                                  /tmp/ccELukx5.ltrans0.ltrans.o
mpu6500GyroDetect                                 obj/main/NAZE/drivers/accgyro/accgyro_mpu6500.o (symbol from plugin)
                                                  obj/main/NAZE/sensors/gyro.o (symbol from plugin)
mpu6500GyroInit                                   /tmp/ccELukx5.ltrans5.ltrans.o
                                                  obj/main/NAZE/drivers/accgyro/accgyro_mpu6500.o (symbol from plugin)
                                                  /tmp/ccELukx5.ltrans0.ltrans.o
mpuAccRead                                        /tmp/ccELukx5.ltrans5.ltrans.o
                                                  obj/main/NAZE/drivers/accgyro/accgyro_mpu.o (symbol from plugin)
                                                  /tmp/ccELukx5.ltrans0.ltrans.o
                                                  obj/main/NAZE/drivers/accgyro/accgyro_mpu6500.o (symbol from plugin)
                                                  obj/main/NAZE/drivers/accgyro/accgyro_mpu6050.o (symbol from plugin)
mpuCheckDataReady                                 /tmp/ccELukx5.ltrans5.ltrans.o
                                                  obj/main/NAZE/drivers/accgyro/accgyro_mpu.o (symbol from plugin)
                                                  /tmp/ccELukx5.ltrans0.ltrans.o
                                                  obj/main/NAZE/drivers/accgyro/accgyro_mpu6500.o (symbol from plugin)
                                                  obj/main/NAZE/drivers/accgyro/accgyro_mpu6050.o (symbol from plugin)
mpuDetect                                         obj/main/NAZE/drivers/accgyro/accgyro_mpu.o (symbol from plugin)
                                                  obj/main/NAZE/sensors/gyro.o (symbol from plugin)
mpuGyroInit                                       obj/main/NAZE/drivers/accgyro/accgyro_mpu.o (symbol from plugin)
                                                  obj/main/NAZE/drivers/accgyro/accgyro_mpu6500.o (symbol from plugin)
                                                  obj/main/NAZE/drivers/accgyro/accgyro_mpu6050.o (symbol from plugin)
mpuGyroRead                                       /tmp/ccELukx5.ltrans5.ltrans.o
                                                  obj/main/NAZE/drivers/accgyro/accgyro_mpu.o (symbol from plugin)
                                                  /tmp/ccELukx5.ltrans0.ltrans.o
                                                  obj/main/NAZE/drivers/accgyro/accgyro_mpu6500.o (symbol from plugin)
                                                  obj/main/NAZE/drivers/accgyro/accgyro_mpu6050.o (symbol from plugin)
mpuGyroSetIsrUpdate                               obj/main/NAZE/drivers/accgyro/accgyro_mpu.o (symbol from plugin)
mpuReadRegisterI2C                                /tmp/ccELukx5.ltrans5.ltrans.o
                                                  obj/main/NAZE/drivers/accgyro/accgyro_mpu.o (symbol from plugin)
                                                  /tmp/ccELukx5.ltrans0.ltrans.o
mpuResetFn                                        obj/main/NAZE/drivers/accgyro/accgyro_mpu.o (symbol from plugin)
                                                  obj/main/NAZE/sensors/gyro.o (symbol from plugin)
mpuWriteRegisterI2C                               /tmp/ccELukx5.ltrans5.ltrans.o
                                                  obj/main/NAZE/drivers/accgyro/accgyro_mpu.o (symbol from plugin)
                                                  /tmp/ccELukx5.ltrans0.ltrans.o
ms5611_calculate.lto_priv.390                     /tmp/ccELukx5.ltrans5.ltrans.o
                                                  /tmp/ccELukx5.ltrans0.ltrans.o
ms56xxDetect                                      obj/main/NAZE/drivers/barometer/barometer_ms56xx.o (symbol from plugin)
                                                  obj/main/NAZE/sensors/barometer.o (symbol from plugin)
ms56xx_c.lto_priv.489                             /tmp/ccELukx5.ltrans0.ltrans.o
                                                  /tmp/ccELukx5.ltrans5.ltrans.o
ms56xx_get_up.lto_priv.389                        /tmp/ccELukx5.ltrans5.ltrans.o
                                                  /tmp/ccELukx5.ltrans0.ltrans.o
ms56xx_get_ut.lto_priv.387                        /tmp/ccELukx5.ltrans5.ltrans.o
                                                  /tmp/ccELukx5.ltrans0.ltrans.o
ms56xx_start_up.lto_priv.388                      /tmp/ccELukx5.ltrans5.ltrans.o
                                                  /tmp/ccELukx5.ltrans0.ltrans.o
ms56xx_start_ut.lto_priv.386                      /tmp/ccELukx5.ltrans5.ltrans.o
                                                  /tmp/ccELukx5.ltrans0.ltrans.o
mspFcInit                                         obj/main/NAZE/fc/fc_msp.o (symbol from plugin)
                                                  obj/main/NAZE/fc/fc_init.o (symbol from plugin)
mspFcProcessCommand                               obj/main/NAZE/fc/fc_msp.o (symbol from plugin)
                                                  obj/main/NAZE/fc/fc_tasks.o (symbol from plugin)
mspFcProcessOutCommand.lto_priv.235               /tmp/ccELukx5.ltrans3.ltrans.o
                                                  /tmp/ccELukx5.ltrans2.ltrans.o
mspPorts.lto_priv.199                             /tmp/ccELukx5.ltrans18.ltrans.o
                                                  /tmp/ccELukx5.ltrans2.ltrans.o
                                                  /tmp/ccELukx5.ltrans0.ltrans.o
mspRebootFn.lto_priv.182                          /tmp/ccELukx5.ltrans29.ltrans.o
                                                  /tmp/ccELukx5.ltrans3.ltrans.o
mspSerialAllocatePorts                            /tmp/ccELukx5.ltrans18.ltrans.o
                                                  obj/main/NAZE/msp/msp_serial.o (symbol from plugin)
                                                  /tmp/ccELukx5.ltrans4.ltrans.o
                                                  /tmp/ccELukx5.ltrans1.ltrans.o
                                                  /tmp/ccELukx5.ltrans0.ltrans.o
                                                  obj/main/NAZE/fc/fc_core.o (symbol from plugin)
                                                  obj/main/NAZE/blackbox/blackbox_io.o (symbol from plugin)
mspSerialInit                                     obj/main/NAZE/msp/msp_serial.o (symbol from plugin)
                                                  obj/main/NAZE/fc/fc_init.o (symbol from plugin)
mspSerialProcess                                  obj/main/NAZE/msp/msp_serial.o (symbol from plugin)
                                                  obj/main/NAZE/fc/fc_tasks.o (symbol from plugin)
mspSerialPush                                     obj/main/NAZE/msp/msp_serial.o (symbol from plugin)
mspSerialReleasePortIfAllocated                   /tmp/ccELukx5.ltrans18.ltrans.o
                                                  obj/main/NAZE/msp/msp_serial.o (symbol from plugin)
                                                  /tmp/ccELukx5.ltrans15.ltrans.o
                                                  /tmp/ccELukx5.ltrans4.ltrans.o
                                                  obj/main/NAZE/fc/fc_core.o (symbol from plugin)
                                                  obj/main/NAZE/blackbox/blackbox_io.o (symbol from plugin)
mspSerialTxBytesFree                              obj/main/NAZE/msp/msp_serial.o (symbol from plugin)
mwArm                                             /tmp/ccELukx5.ltrans15.ltrans.o
                                                  obj/main/NAZE/fc/fc_core.o (symbol from plugin)
                                                  /tmp/ccELukx5.ltrans4.ltrans.o
                                                  obj/main/NAZE/fc/rc_controls.o (symbol from plugin)
mwDisarm                                          /tmp/ccELukx5.ltrans15.ltrans.o
                                                  obj/main/NAZE/fc/fc_core.o (symbol from plugin)
                                                  /tmp/ccELukx5.ltrans12.ltrans.o
                                                  /tmp/ccELukx5.ltrans4.ltrans.o
                                                  obj/main/NAZE/flight/failsafe.o (symbol from plugin)
                                                  obj/main/NAZE/fc/rc_controls.o (symbol from plugin)
                                                  obj/main/NAZE/navigation/navigation.o (symbol from plugin)
nanf                                              /usr/bin/../lib/gcc/arm-none-eabi/4.9.3/../../../../arm-none-eabi/lib/armv7-m/libm.a(lib_a-sf_nan.o)
                                                  /usr/bin/../lib/gcc/arm-none-eabi/4.9.3/../../../../arm-none-eabi/lib/armv7-m/libm.a(lib_a-ef_pow.o)
navAccNEU                                         /tmp/ccELukx5.ltrans1.ltrans.o
                                                  obj/main/NAZE/navigation/navigation.o (symbol from plugin)
                                                  /tmp/ccELukx5.ltrans6.ltrans.o
                                                  obj/main/NAZE/navigation/navigation_pos_estimator.o (symbol from plugin)
                                                  obj/main/NAZE/blackbox/blackbox.o (symbol from plugin)
navActualHeading                                  obj/main/NAZE/navigation/navigation.o (symbol from plugin)
navActualSurface                                  /tmp/ccELukx5.ltrans1.ltrans.o
                                                  obj/main/NAZE/navigation/navigation.o (symbol from plugin)
                                                  /tmp/ccELukx5.ltrans6.ltrans.o
                                                  obj/main/NAZE/blackbox/blackbox.o (symbol from plugin)
navActualVelocity                                 /tmp/ccELukx5.ltrans25.ltrans.o
                                                  obj/main/NAZE/navigation/navigation.o (symbol from plugin)
                                                  /tmp/ccELukx5.ltrans6.ltrans.o
                                                  obj/main/NAZE/blackbox/blackbox.o (symbol from plugin)
navConfig_Copy                                    obj/main/NAZE/navigation/navigation.o (symbol from plugin)
navConfig_Registry                                /tmp/ccELukx5.ltrans3.ltrans.o
                                                  obj/main/NAZE/navigation/navigation.o (symbol from plugin)
navConfig_System                                  /tmp/ccELukx5.ltrans3.ltrans.o
                                                  obj/main/NAZE/navigation/navigation.o (symbol from plugin)
                                                  /tmp/ccELukx5.ltrans28.ltrans.o
                                                  /tmp/ccELukx5.ltrans25.ltrans.o
                                                  /tmp/ccELukx5.ltrans21.ltrans.o
                                                  /tmp/ccELukx5.ltrans15.ltrans.o
                                                  /tmp/ccELukx5.ltrans13.ltrans.o
                                                  /tmp/ccELukx5.ltrans12.ltrans.o
                                                  /tmp/ccELukx5.ltrans2.ltrans.o
                                                  /tmp/ccELukx5.ltrans1.ltrans.o
                                                  obj/main/NAZE/fc/fc_msp.o (symbol from plugin)
                                                  obj/main/NAZE/fc/config.o (symbol from plugin)
                                                  obj/main/NAZE/navigation/navigation_multicopter.o (symbol from plugin)
                                                  obj/main/NAZE/navigation/navigation_fw_launch.o (symbol from plugin)
                                                  obj/main/NAZE/navigation/navigation_fixedwing.o (symbol from plugin)
navCurrentState                                   /tmp/ccELukx5.ltrans1.ltrans.o
                                                  obj/main/NAZE/navigation/navigation.o (symbol from plugin)
                                                  /tmp/ccELukx5.ltrans6.ltrans.o
                                                  obj/main/NAZE/blackbox/blackbox.o (symbol from plugin)
navDesiredHeading                                 obj/main/NAZE/navigation/navigation.o (symbol from plugin)
navDesiredVelocity                                /tmp/ccELukx5.ltrans28.ltrans.o
                                                  obj/main/NAZE/navigation/navigation.o (symbol from plugin)
                                                  /tmp/ccELukx5.ltrans6.ltrans.o
                                                  obj/main/NAZE/navigation/navigation_multicopter.o (symbol from plugin)
                                                  obj/main/NAZE/blackbox/blackbox.o (symbol from plugin)
navEPH                                            /tmp/ccELukx5.ltrans1.ltrans.o
                                                  obj/main/NAZE/navigation/navigation.o (symbol from plugin)
                                                  /tmp/ccELukx5.ltrans6.ltrans.o
                                                  obj/main/NAZE/navigation/navigation_pos_estimator.o (symbol from plugin)
                                                  obj/main/NAZE/blackbox/blackbox.o (symbol from plugin)
navEPV                                            /tmp/ccELukx5.ltrans1.ltrans.o
                                                  obj/main/NAZE/navigation/navigation.o (symbol from plugin)
                                                  /tmp/ccELukx5.ltrans6.ltrans.o
                                                  obj/main/NAZE/navigation/navigation_pos_estimator.o (symbol from plugin)
                                                  obj/main/NAZE/blackbox/blackbox.o (symbol from plugin)
navFSM.lto_priv.246                               /tmp/ccELukx5.ltrans9.ltrans.o
                                                  /tmp/ccELukx5.ltrans28.ltrans.o
                                                  /tmp/ccELukx5.ltrans25.ltrans.o
                                                  /tmp/ccELukx5.ltrans13.ltrans.o
                                                  /tmp/ccELukx5.ltrans12.ltrans.o
                                                  /tmp/ccELukx5.ltrans4.ltrans.o
                                                  /tmp/ccELukx5.ltrans1.ltrans.o
navFlags                                          /tmp/ccELukx5.ltrans1.ltrans.o
                                                  obj/main/NAZE/navigation/navigation.o (symbol from plugin)
                                                  /tmp/ccELukx5.ltrans6.ltrans.o
                                                  obj/main/NAZE/blackbox/blackbox.o (symbol from plugin)
navGetCurrentStateFlags                           obj/main/NAZE/navigation/navigation.o (symbol from plugin)
                                                  obj/main/NAZE/navigation/navigation_multicopter.o (symbol from plugin)
navIsCalibrationComplete                          obj/main/NAZE/navigation/navigation_pos_estimator.o (symbol from plugin)
                                                  obj/main/NAZE/fc/fc_core.o (symbol from plugin)
navLatestActualPosition                           /tmp/ccELukx5.ltrans25.ltrans.o
                                                  obj/main/NAZE/navigation/navigation.o (symbol from plugin)
                                                  /tmp/ccELukx5.ltrans6.ltrans.o
                                                  obj/main/NAZE/blackbox/blackbox.o (symbol from plugin)
navOnEnteringState_NAV_STATE_ALTHOLD_INITIALIZE.lto_priv.150 /tmp/ccELukx5.ltrans12.ltrans.o
                                                  /tmp/ccELukx5.ltrans9.ltrans.o
navOnEnteringState_NAV_STATE_ALTHOLD_IN_PROGRESS.lto_priv.151 /tmp/ccELukx5.ltrans12.ltrans.o
                                                  /tmp/ccELukx5.ltrans9.ltrans.o
navOnEnteringState_NAV_STATE_EMERGENCY_LANDING_FINISHED.lto_priv.172 /tmp/ccELukx5.ltrans25.ltrans.o
                                                  /tmp/ccELukx5.ltrans9.ltrans.o
navOnEnteringState_NAV_STATE_EMERGENCY_LANDING_INITIALIZE.lto_priv.170 /tmp/ccELukx5.ltrans25.ltrans.o
                                                  /tmp/ccELukx5.ltrans9.ltrans.o
navOnEnteringState_NAV_STATE_EMERGENCY_LANDING_IN_PROGRESS.lto_priv.171 /tmp/ccELukx5.ltrans25.ltrans.o
                                                  /tmp/ccELukx5.ltrans9.ltrans.o
navOnEnteringState_NAV_STATE_IDLE.lto_priv.149    /tmp/ccELukx5.ltrans12.ltrans.o
                                                  /tmp/ccELukx5.ltrans9.ltrans.o
navOnEnteringState_NAV_STATE_LAUNCH_INITIALIZE.lto_priv.173 /tmp/ccELukx5.ltrans25.ltrans.o
                                                  /tmp/ccELukx5.ltrans9.ltrans.o
navOnEnteringState_NAV_STATE_LAUNCH_IN_PROGRESS.lto_priv.175 /tmp/ccELukx5.ltrans25.ltrans.o
                                                  /tmp/ccELukx5.ltrans9.ltrans.o
navOnEnteringState_NAV_STATE_LAUNCH_WAIT.lto_priv.174 /tmp/ccELukx5.ltrans25.ltrans.o
                                                  /tmp/ccELukx5.ltrans9.ltrans.o
navOnEnteringState_NAV_STATE_POSHOLD_2D_INITIALIZE.lto_priv.152 /tmp/ccELukx5.ltrans12.ltrans.o
                                                  /tmp/ccELukx5.ltrans9.ltrans.o
navOnEnteringState_NAV_STATE_POSHOLD_2D_IN_PROGRESS.lto_priv.153 /tmp/ccELukx5.ltrans12.ltrans.o
                                                  /tmp/ccELukx5.ltrans9.ltrans.o
navOnEnteringState_NAV_STATE_POSHOLD_3D_INITIALIZE.lto_priv.154 /tmp/ccELukx5.ltrans12.ltrans.o
                                                  /tmp/ccELukx5.ltrans9.ltrans.o
navOnEnteringState_NAV_STATE_POSHOLD_3D_IN_PROGRESS.lto_priv.155 /tmp/ccELukx5.ltrans12.ltrans.o
                                                  /tmp/ccELukx5.ltrans9.ltrans.o
navOnEnteringState_NAV_STATE_RTH_CLIMB_TO_SAFE_ALT.lto_priv.157 /tmp/ccELukx5.ltrans12.ltrans.o
                                                  /tmp/ccELukx5.ltrans9.ltrans.o
navOnEnteringState_NAV_STATE_RTH_FINISHED.lto_priv.162 /tmp/ccELukx5.ltrans12.ltrans.o
                                                  /tmp/ccELukx5.ltrans9.ltrans.o
navOnEnteringState_NAV_STATE_RTH_FINISHING.lto_priv.161 /tmp/ccELukx5.ltrans12.ltrans.o
                                                  /tmp/ccELukx5.ltrans25.ltrans.o
                                                  /tmp/ccELukx5.ltrans9.ltrans.o
navOnEnteringState_NAV_STATE_RTH_HEAD_HOME.lto_priv.158 /tmp/ccELukx5.ltrans12.ltrans.o
                                                  /tmp/ccELukx5.ltrans9.ltrans.o
navOnEnteringState_NAV_STATE_RTH_HOVER_PRIOR_TO_LANDING.lto_priv.159 /tmp/ccELukx5.ltrans12.ltrans.o
                                                  /tmp/ccELukx5.ltrans9.ltrans.o
navOnEnteringState_NAV_STATE_RTH_INITIALIZE.lto_priv.156 /tmp/ccELukx5.ltrans12.ltrans.o
                                                  /tmp/ccELukx5.ltrans9.ltrans.o
navOnEnteringState_NAV_STATE_RTH_LANDING.lto_priv.160 /tmp/ccELukx5.ltrans12.ltrans.o
                                                  /tmp/ccELukx5.ltrans25.ltrans.o
                                                  /tmp/ccELukx5.ltrans9.ltrans.o
navOnEnteringState_NAV_STATE_WAYPOINT_FINISHED.lto_priv.168 /tmp/ccELukx5.ltrans25.ltrans.o
                                                  /tmp/ccELukx5.ltrans9.ltrans.o
navOnEnteringState_NAV_STATE_WAYPOINT_INITIALIZE.lto_priv.163 /tmp/ccELukx5.ltrans25.ltrans.o
                                                  /tmp/ccELukx5.ltrans9.ltrans.o
navOnEnteringState_NAV_STATE_WAYPOINT_IN_PROGRESS.lto_priv.165 /tmp/ccELukx5.ltrans25.ltrans.o
                                                  /tmp/ccELukx5.ltrans9.ltrans.o
navOnEnteringState_NAV_STATE_WAYPOINT_NEXT.lto_priv.167 /tmp/ccELukx5.ltrans25.ltrans.o
                                                  /tmp/ccELukx5.ltrans9.ltrans.o
navOnEnteringState_NAV_STATE_WAYPOINT_PRE_ACTION.lto_priv.164 /tmp/ccELukx5.ltrans25.ltrans.o
                                                  /tmp/ccELukx5.ltrans9.ltrans.o
navOnEnteringState_NAV_STATE_WAYPOINT_REACHED.lto_priv.166 /tmp/ccELukx5.ltrans25.ltrans.o
                                                  /tmp/ccELukx5.ltrans9.ltrans.o
navOnEnteringState_NAV_STATE_WAYPOINT_RTH_LAND.lto_priv.169 /tmp/ccELukx5.ltrans25.ltrans.o
                                                  /tmp/ccELukx5.ltrans9.ltrans.o
navPInit                                          obj/main/NAZE/navigation/navigation.o (symbol from plugin)
navPidApply2                                      obj/main/NAZE/navigation/navigation.o (symbol from plugin)
                                                  obj/main/NAZE/navigation/navigation_multicopter.o (symbol from plugin)
                                                  obj/main/NAZE/navigation/navigation_fixedwing.o (symbol from plugin)
navPidApply3                                      obj/main/NAZE/navigation/navigation.o (symbol from plugin)
                                                  obj/main/NAZE/navigation/navigation_fixedwing.o (symbol from plugin)
navPidApply3.constprop.65                         /tmp/ccELukx5.ltrans24.ltrans.o
                                                  /tmp/ccELukx5.ltrans28.ltrans.o
                                                  /tmp/ccELukx5.ltrans13.ltrans.o
                                                  /tmp/ccELukx5.ltrans1.ltrans.o
navPidInit                                        /tmp/ccELukx5.ltrans25.ltrans.o
                                                  obj/main/NAZE/navigation/navigation.o (symbol from plugin)
                                                  /tmp/ccELukx5.ltrans13.ltrans.o
navPidReset                                       obj/main/NAZE/navigation/navigation.o (symbol from plugin)
                                                  obj/main/NAZE/navigation/navigation_multicopter.o (symbol from plugin)
                                                  obj/main/NAZE/navigation/navigation_fixedwing.o (symbol from plugin)
navProcessFSMEvents.lto_priv.254                  /tmp/ccELukx5.ltrans25.ltrans.o
                                                  /tmp/ccELukx5.ltrans4.ltrans.o
                                                  /tmp/ccELukx5.ltrans1.ltrans.o
navTargetPosition                                 /tmp/ccELukx5.ltrans1.ltrans.o
                                                  obj/main/NAZE/navigation/navigation.o (symbol from plugin)
                                                  /tmp/ccELukx5.ltrans6.ltrans.o
                                                  obj/main/NAZE/blackbox/blackbox.o (symbol from plugin)
navTargetSurface                                  /tmp/ccELukx5.ltrans1.ltrans.o
                                                  obj/main/NAZE/navigation/navigation.o (symbol from plugin)
                                                  /tmp/ccELukx5.ltrans25.ltrans.o
                                                  /tmp/ccELukx5.ltrans6.ltrans.o
                                                  obj/main/NAZE/blackbox/blackbox.o (symbol from plugin)
navigationBlockArming                             obj/main/NAZE/navigation/navigation.o (symbol from plugin)
                                                  obj/main/NAZE/fc/fc_core.o (symbol from plugin)
navigationGetHeadingControlState                  obj/main/NAZE/navigation/navigation.o (symbol from plugin)
                                                  obj/main/NAZE/flight/pid.o (symbol from plugin)
navigationInit                                    obj/main/NAZE/navigation/navigation.o (symbol from plugin)
                                                  obj/main/NAZE/fc/fc_init.o (symbol from plugin)
navigationPositionEstimateIsHealthy               obj/main/NAZE/navigation/navigation.o (symbol from plugin)
                                                  obj/main/NAZE/fc/fc_core.o (symbol from plugin)
navigationRequiresAngleMode                       /tmp/ccELukx5.ltrans13.ltrans.o
                                                  obj/main/NAZE/navigation/navigation.o (symbol from plugin)
                                                  /tmp/ccELukx5.ltrans4.ltrans.o
                                                  obj/main/NAZE/fc/fc_core.o (symbol from plugin)
navigationRequiresThrottleTiltCompensation        obj/main/NAZE/navigation/navigation.o (symbol from plugin)
                                                  obj/main/NAZE/fc/fc_core.o (symbol from plugin)
navigationRequiresTurnAssistance                  obj/main/NAZE/navigation/navigation.o (symbol from plugin)
                                                  obj/main/NAZE/flight/pid.o (symbol from plugin)
navigationUsePIDs                                 /tmp/ccELukx5.ltrans13.ltrans.o
                                                  obj/main/NAZE/navigation/navigation.o (symbol from plugin)
                                                  /tmp/ccELukx5.ltrans21.ltrans.o
                                                  /tmp/ccELukx5.ltrans2.ltrans.o
                                                  /tmp/ccELukx5.ltrans0.ltrans.o
                                                  obj/main/NAZE/fc/fc_msp.o (symbol from plugin)
                                                  obj/main/NAZE/fc/config.o (symbol from plugin)
needRxSignalMaxDelayUs.lto_priv.371               /tmp/ccELukx5.ltrans30.ltrans.o
                                                  /tmp/ccELukx5.ltrans0.ltrans.o
nextArg.lto_priv.352                              /tmp/ccELukx5.ltrans14.ltrans.o
                                                  /tmp/ccELukx5.ltrans16.ltrans.o
normalizeV                                        obj/main/NAZE/common/maths.o (symbol from plugin)
nullFilterApply                                   /tmp/ccELukx5.ltrans22.ltrans.o
                                                  obj/main/NAZE/common/filter.o (symbol from plugin)
                                                  /tmp/ccELukx5.ltrans0.ltrans.o
                                                  obj/main/NAZE/sensors/gyro.o (symbol from plugin)
nullFrameStatus.lto_priv.369                      /tmp/ccELukx5.ltrans18.ltrans.o
                                                  /tmp/ccELukx5.ltrans0.ltrans.o
nullReadRawRC.lto_priv.368                        /tmp/ccELukx5.ltrans18.ltrans.o
                                                  /tmp/ccELukx5.ltrans0.ltrans.o
onNewGPSData                                      /tmp/ccELukx5.ltrans11.ltrans.o
                                                  obj/main/NAZE/navigation/navigation_pos_estimator.o (symbol from plugin)
                                                  /tmp/ccELukx5.ltrans26.ltrans.o
                                                  /tmp/ccELukx5.ltrans2.ltrans.o
                                                  obj/main/NAZE/fc/fc_msp.o (symbol from plugin)
                                                  obj/main/NAZE/io/gps.o (symbol from plugin)
onSerialRxPinChange                               obj/main/NAZE/drivers/serial_softserial.o (symbol from plugin)
onSerialTimer                                     obj/main/NAZE/drivers/serial_softserial.o (symbol from plugin)
openSerialPort                                    /tmp/ccELukx5.ltrans18.ltrans.o
                                                  obj/main/NAZE/io/serial.o (symbol from plugin)
                                                  /tmp/ccELukx5.ltrans15.ltrans.o
                                                  /tmp/ccELukx5.ltrans11.ltrans.o
                                                  /tmp/ccELukx5.ltrans0.ltrans.o
                                                  obj/main/NAZE/rx/spektrum.o (symbol from plugin)
                                                  obj/main/NAZE/rx/sbus.o (symbol from plugin)
                                                  obj/main/NAZE/msp/msp_serial.o (symbol from plugin)
                                                  obj/main/NAZE/io/rcsplit.o (symbol from plugin)
                                                  obj/main/NAZE/telemetry/ltm.o (symbol from plugin)
                                                  obj/main/NAZE/telemetry/frsky.o (symbol from plugin)
                                                  obj/main/NAZE/io/gps.o (symbol from plugin)
                                                  obj/main/NAZE/blackbox/blackbox_io.o (symbol from plugin)
openSoftSerial                                    /tmp/ccELukx5.ltrans5.ltrans.o
                                                  obj/main/NAZE/drivers/serial_softserial.o (symbol from plugin)
                                                  /tmp/ccELukx5.ltrans18.ltrans.o
                                                  obj/main/NAZE/io/serial.o (symbol from plugin)
ownerNames                                        obj/main/NAZE/drivers/io.o (symbol from plugin)
packBoxModeFlags.lto_priv.185                     /tmp/ccELukx5.ltrans29.ltrans.o
                                                  /tmp/ccELukx5.ltrans3.ltrans.o
parseRcChannels                                   /tmp/ccELukx5.ltrans18.ltrans.o
                                                  obj/main/NAZE/rx/rx.o (symbol from plugin)
                                                  /tmp/ccELukx5.ltrans21.ltrans.o
                                                  /tmp/ccELukx5.ltrans17.ltrans.o
                                                  obj/main/NAZE/fc/config.o (symbol from plugin)
                                                  obj/main/NAZE/fc/cli.o (symbol from plugin)
pca9685Initialize                                 obj/main/NAZE/drivers/io_pca9685.o (symbol from plugin)
                                                  obj/main/NAZE/io/pwmdriver_i2c.o (symbol from plugin)
pca9685setPWMFreq                                 obj/main/NAZE/drivers/io_pca9685.o (symbol from plugin)
                                                  obj/main/NAZE/io/pwmdriver_i2c.o (symbol from plugin)
pca9685setPWMOff                                  obj/main/NAZE/drivers/io_pca9685.o (symbol from plugin)
pca9685setPWMOn                                   obj/main/NAZE/drivers/io_pca9685.o (symbol from plugin)
pca9685setServoPulse                              obj/main/NAZE/drivers/io_pca9685.o (symbol from plugin)
                                                  obj/main/NAZE/io/pwmdriver_i2c.o (symbol from plugin)
pca9685sync                                       obj/main/NAZE/drivers/io_pca9685.o (symbol from plugin)
                                                  obj/main/NAZE/io/pwmdriver_i2c.o (symbol from plugin)
pgActivateProfile                                 /tmp/ccELukx5.ltrans8.ltrans.o
                                                  obj/main/NAZE/config/parameter_group.o (symbol from plugin)
                                                  /tmp/ccELukx5.ltrans21.ltrans.o
                                                  /tmp/ccELukx5.ltrans15.ltrans.o
                                                  obj/main/NAZE/fc/config.o (symbol from plugin)
pgFind                                            /tmp/ccELukx5.ltrans8.ltrans.o
                                                  obj/main/NAZE/config/parameter_group.o (symbol from plugin)
                                                  /tmp/ccELukx5.ltrans21.ltrans.o
                                                  /tmp/ccELukx5.ltrans16.ltrans.o
                                                  /tmp/ccELukx5.ltrans14.ltrans.o
                                                  obj/main/NAZE/fc/cli.o (symbol from plugin)
pgLoad                                            obj/main/NAZE/config/parameter_group.o (symbol from plugin)
                                                  obj/main/NAZE/config/config_eeprom.o (symbol from plugin)
pgReset                                           /tmp/ccELukx5.ltrans8.ltrans.o
                                                  obj/main/NAZE/config/parameter_group.o (symbol from plugin)
                                                  /tmp/ccELukx5.ltrans21.ltrans.o
                                                  obj/main/NAZE/config/config_eeprom.o (symbol from plugin)
pgResetAll                                        obj/main/NAZE/config/parameter_group.o (symbol from plugin)
                                                  obj/main/NAZE/fc/config.o (symbol from plugin)
pgResetCopy                                       obj/main/NAZE/config/parameter_group.o (symbol from plugin)
                                                  obj/main/NAZE/fc/config.o (symbol from plugin)
                                                  obj/main/NAZE/fc/cli.o (symbol from plugin)
pgResetCurrent                                    obj/main/NAZE/config/parameter_group.o (symbol from plugin)
                                                  obj/main/NAZE/fc/fc_msp.o (symbol from plugin)
pgResetFn_accelerometerConfig                     obj/main/NAZE/sensors/acceleration.o (symbol from plugin)
pgResetFn_controlRateProfiles                     obj/main/NAZE/fc/controlrate_profile.o (symbol from plugin)
pgResetFn_rxChannelRangeConfigs                   obj/main/NAZE/rx/rx.o (symbol from plugin)
pgResetFn_serialConfig                            /tmp/ccELukx5.ltrans9.ltrans.o
                                                  obj/main/NAZE/io/serial.o (symbol from plugin)
                                                  /tmp/ccELukx5.ltrans24.ltrans.o
pgResetFn_servoParams                             obj/main/NAZE/flight/servos.o (symbol from plugin)
pgResetInstance.lto_priv.237                      /tmp/ccELukx5.ltrans8.ltrans.o
                                                  /tmp/ccELukx5.ltrans21.ltrans.o
                                                  /tmp/ccELukx5.ltrans16.ltrans.o
                                                  /tmp/ccELukx5.ltrans2.ltrans.o
pgResetTemplate_adcChannelConfig                  /tmp/ccELukx5.ltrans5.ltrans.o
                                                  obj/main/NAZE/fc/config.o (symbol from plugin)
pgResetTemplate_armingConfig                      /tmp/ccELukx5.ltrans3.ltrans.o
                                                  obj/main/NAZE/fc/rc_controls.o (symbol from plugin)
pgResetTemplate_barometerConfig                   /tmp/ccELukx5.ltrans3.ltrans.o
                                                  obj/main/NAZE/sensors/barometer.o (symbol from plugin)
pgResetTemplate_batteryConfig                     /tmp/ccELukx5.ltrans3.ltrans.o
                                                  obj/main/NAZE/sensors/battery.o (symbol from plugin)
pgResetTemplate_blackboxConfig                    /tmp/ccELukx5.ltrans3.ltrans.o
                                                  obj/main/NAZE/blackbox/blackbox.o (symbol from plugin)
pgResetTemplate_compassConfig                     /tmp/ccELukx5.ltrans3.ltrans.o
                                                  obj/main/NAZE/sensors/compass.o (symbol from plugin)
pgResetTemplate_failsafeConfig                    /tmp/ccELukx5.ltrans7.ltrans.o
                                                  obj/main/NAZE/flight/failsafe.o (symbol from plugin)
pgResetTemplate_featureConfig                     /tmp/ccELukx5.ltrans3.ltrans.o
                                                  obj/main/NAZE/fc/config.o (symbol from plugin)
pgResetTemplate_flight3DConfig                    /tmp/ccELukx5.ltrans7.ltrans.o
                                                  obj/main/NAZE/flight/mixer.o (symbol from plugin)
pgResetTemplate_gpsConfig                         /tmp/ccELukx5.ltrans3.ltrans.o
                                                  obj/main/NAZE/io/gps.o (symbol from plugin)
pgResetTemplate_gyroConfig                        /tmp/ccELukx5.ltrans3.ltrans.o
                                                  obj/main/NAZE/sensors/gyro.o (symbol from plugin)
pgResetTemplate_imuConfig                         /tmp/ccELukx5.ltrans21.ltrans.o
                                                  obj/main/NAZE/flight/imu.o (symbol from plugin)
pgResetTemplate_mixerConfig                       /tmp/ccELukx5.ltrans7.ltrans.o
                                                  obj/main/NAZE/flight/mixer.o (symbol from plugin)
pgResetTemplate_motorConfig                       /tmp/ccELukx5.ltrans7.ltrans.o
                                                  obj/main/NAZE/flight/mixer.o (symbol from plugin)
pgResetTemplate_navConfig                         /tmp/ccELukx5.ltrans3.ltrans.o
                                                  obj/main/NAZE/navigation/navigation.o (symbol from plugin)
pgResetTemplate_pidAutotuneConfig                 /tmp/ccELukx5.ltrans5.ltrans.o
                                                  obj/main/NAZE/flight/pid_autotune.o (symbol from plugin)
pgResetTemplate_pidProfile                        /tmp/ccELukx5.ltrans9.ltrans.o
                                                  obj/main/NAZE/flight/pid.o (symbol from plugin)
pgResetTemplate_positionEstimationConfig          /tmp/ccELukx5.ltrans3.ltrans.o
                                                  obj/main/NAZE/navigation/navigation_pos_estimator.o (symbol from plugin)
pgResetTemplate_rcControlsConfig                  /tmp/ccELukx5.ltrans7.ltrans.o
                                                  obj/main/NAZE/fc/rc_controls.o (symbol from plugin)
pgResetTemplate_rxConfig                          /tmp/ccELukx5.ltrans18.ltrans.o
                                                  obj/main/NAZE/rx/rx.o (symbol from plugin)
pgResetTemplate_servoConfig                       /tmp/ccELukx5.ltrans3.ltrans.o
                                                  obj/main/NAZE/flight/servos.o (symbol from plugin)
pgResetTemplate_systemConfig                      /tmp/ccELukx5.ltrans3.ltrans.o
                                                  obj/main/NAZE/fc/config.o (symbol from plugin)
pgResetTemplate_telemetryConfig                   /tmp/ccELukx5.ltrans10.ltrans.o
                                                  obj/main/NAZE/telemetry/telemetry.o (symbol from plugin)
pgStore                                           obj/main/NAZE/config/parameter_group.o (symbol from plugin)
pidAngleToRcCommand                               /tmp/ccELukx5.ltrans9.ltrans.o
                                                  obj/main/NAZE/flight/pid.o (symbol from plugin)
                                                  /tmp/ccELukx5.ltrans13.ltrans.o
                                                  /tmp/ccELukx5.ltrans1.ltrans.o
                                                  obj/main/NAZE/flight/failsafe.o (symbol from plugin)
                                                  obj/main/NAZE/navigation/navigation_multicopter.o (symbol from plugin)
                                                  obj/main/NAZE/navigation/navigation_fw_launch.o (symbol from plugin)
                                                  obj/main/NAZE/navigation/navigation_fixedwing.o (symbol from plugin)
pidAutotuneConfig_Copy                            obj/main/NAZE/flight/pid_autotune.o (symbol from plugin)
pidAutotuneConfig_Registry                        /tmp/ccELukx5.ltrans5.ltrans.o
                                                  obj/main/NAZE/flight/pid_autotune.o (symbol from plugin)
pidAutotuneConfig_System                          obj/main/NAZE/flight/pid_autotune.o (symbol from plugin)
pidBank.lto_priv.176                              /tmp/ccELukx5.ltrans7.ltrans.o
                                                  /tmp/ccELukx5.ltrans9.ltrans.o
                                                  /tmp/ccELukx5.ltrans1.ltrans.o
pidBank.lto_priv.184                              /tmp/ccELukx5.ltrans29.ltrans.o
                                                  /tmp/ccELukx5.ltrans3.ltrans.o
pidBank.lto_priv.251                              /tmp/ccELukx5.ltrans7.ltrans.o
                                                  /tmp/ccELukx5.ltrans4.ltrans.o
pidBank.lto_priv.304                              /tmp/ccELukx5.ltrans6.ltrans.o
                                                  /tmp/ccELukx5.ltrans15.ltrans.o
pidBankMutable.lto_priv.236                       /tmp/ccELukx5.ltrans29.ltrans.o
                                                  /tmp/ccELukx5.ltrans2.ltrans.o
pidBankMutable.lto_priv.250                       /tmp/ccELukx5.ltrans7.ltrans.o
                                                  /tmp/ccELukx5.ltrans4.ltrans.o
pidController                                     /tmp/ccELukx5.ltrans9.ltrans.o
                                                  obj/main/NAZE/flight/pid.o (symbol from plugin)
                                                  /tmp/ccELukx5.ltrans1.ltrans.o
                                                  obj/main/NAZE/fc/fc_core.o (symbol from plugin)
pidGainsUpdateRequired.lto_priv.242               /tmp/ccELukx5.ltrans2.ltrans.o
                                                  /tmp/ccELukx5.ltrans4.ltrans.o
                                                  /tmp/ccELukx5.ltrans1.ltrans.o
pidHeadingHold                                    obj/main/NAZE/flight/pid.o (symbol from plugin)
pidInit                                           obj/main/NAZE/flight/pid.o (symbol from plugin)
                                                  obj/main/NAZE/fc/config.o (symbol from plugin)
pidProfile_CopyStorage.lto_priv.232               /tmp/ccELukx5.ltrans9.ltrans.o
pidProfile_ProfileCurrent                         /tmp/ccELukx5.ltrans9.ltrans.o
                                                  obj/main/NAZE/flight/pid.o (symbol from plugin)
                                                  /tmp/ccELukx5.ltrans29.ltrans.o
                                                  /tmp/ccELukx5.ltrans21.ltrans.o
                                                  /tmp/ccELukx5.ltrans13.ltrans.o
                                                  /tmp/ccELukx5.ltrans7.ltrans.o
                                                  /tmp/ccELukx5.ltrans6.ltrans.o
                                                  /tmp/ccELukx5.ltrans3.ltrans.o
                                                  /tmp/ccELukx5.ltrans2.ltrans.o
                                                  /tmp/ccELukx5.ltrans1.ltrans.o
                                                  obj/main/NAZE/flight/failsafe.o (symbol from plugin)
                                                  obj/main/NAZE/fc/rc_adjustments.o (symbol from plugin)
                                                  obj/main/NAZE/fc/fc_msp.o (symbol from plugin)
                                                  obj/main/NAZE/navigation/navigation_multicopter.o (symbol from plugin)
                                                  obj/main/NAZE/navigation/navigation_fw_launch.o (symbol from plugin)
                                                  obj/main/NAZE/navigation/navigation_fixedwing.o (symbol from plugin)
                                                  obj/main/NAZE/navigation/navigation.o (symbol from plugin)
                                                  obj/main/NAZE/blackbox/blackbox.o (symbol from plugin)
pidProfile_Registry                               /tmp/ccELukx5.ltrans9.ltrans.o
                                                  obj/main/NAZE/flight/pid.o (symbol from plugin)
                                                  /tmp/ccELukx5.ltrans2.ltrans.o
                                                  obj/main/NAZE/fc/fc_msp.o (symbol from plugin)
pidProfile_Storage.lto_priv.231                   /tmp/ccELukx5.ltrans9.ltrans.o
pidRateToRcCommand                                obj/main/NAZE/flight/pid.o (symbol from plugin)
                                                  obj/main/NAZE/flight/failsafe.o (symbol from plugin)
                                                  obj/main/NAZE/navigation/navigation_fixedwing.o (symbol from plugin)
pidRcCommandToRate                                obj/main/NAZE/flight/pid.o (symbol from plugin)
pidResetErrorAccumulators                         /tmp/ccELukx5.ltrans9.ltrans.o
                                                  obj/main/NAZE/flight/pid.o (symbol from plugin)
                                                  /tmp/ccELukx5.ltrans28.ltrans.o
                                                  /tmp/ccELukx5.ltrans4.ltrans.o
                                                  obj/main/NAZE/fc/fc_core.o (symbol from plugin)
                                                  obj/main/NAZE/navigation/navigation_fw_launch.o (symbol from plugin)
pidState.lto_priv.269                             /tmp/ccELukx5.ltrans9.ltrans.o
                                                  /tmp/ccELukx5.ltrans21.ltrans.o
                                                  /tmp/ccELukx5.ltrans1.ltrans.o
pitot                                             obj/main/NAZE/sensors/pitotmeter.o (symbol from plugin)
portConfig.lto_priv.365                           /tmp/ccELukx5.ltrans0.ltrans.o
                                                  /tmp/ccELukx5.ltrans11.ltrans.o
portConfig.lto_priv.366                           /tmp/ccELukx5.ltrans0.ltrans.o
                                                  /tmp/ccELukx5.ltrans11.ltrans.o
posControl                                        /tmp/ccELukx5.ltrans24.ltrans.o
                                                  obj/main/NAZE/navigation/navigation.o (symbol from plugin)
                                                  /tmp/ccELukx5.ltrans28.ltrans.o
                                                  /tmp/ccELukx5.ltrans25.ltrans.o
                                                  /tmp/ccELukx5.ltrans15.ltrans.o
                                                  /tmp/ccELukx5.ltrans13.ltrans.o
                                                  /tmp/ccELukx5.ltrans12.ltrans.o
                                                  /tmp/ccELukx5.ltrans11.ltrans.o
                                                  /tmp/ccELukx5.ltrans10.ltrans.o
                                                  /tmp/ccELukx5.ltrans9.ltrans.o
                                                  /tmp/ccELukx5.ltrans4.ltrans.o
                                                  /tmp/ccELukx5.ltrans3.ltrans.o
                                                  /tmp/ccELukx5.ltrans2.ltrans.o
                                                  /tmp/ccELukx5.ltrans1.ltrans.o
                                                  /tmp/ccELukx5.ltrans0.ltrans.o
                                                  obj/main/NAZE/navigation/navigation_pos_estimator.o (symbol from plugin)
                                                  obj/main/NAZE/navigation/navigation_multicopter.o (symbol from plugin)
                                                  obj/main/NAZE/navigation/navigation_fixedwing.o (symbol from plugin)
posEstimator.lto_priv.270                         /tmp/ccELukx5.ltrans10.ltrans.o
                                                  /tmp/ccELukx5.ltrans28.ltrans.o
                                                  /tmp/ccELukx5.ltrans15.ltrans.o
                                                  /tmp/ccELukx5.ltrans11.ltrans.o
                                                  /tmp/ccELukx5.ltrans1.ltrans.o
positionEstimationConfig_Copy                     obj/main/NAZE/navigation/navigation_pos_estimator.o (symbol from plugin)
positionEstimationConfig_Registry                 /tmp/ccELukx5.ltrans3.ltrans.o
                                                  obj/main/NAZE/navigation/navigation_pos_estimator.o (symbol from plugin)
positionEstimationConfig_System                   /tmp/ccELukx5.ltrans3.ltrans.o
                                                  obj/main/NAZE/navigation/navigation_pos_estimator.o (symbol from plugin)
                                                  /tmp/ccELukx5.ltrans11.ltrans.o
                                                  /tmp/ccELukx5.ltrans10.ltrans.o
                                                  /tmp/ccELukx5.ltrans2.ltrans.o
                                                  /tmp/ccELukx5.ltrans1.ltrans.o
                                                  obj/main/NAZE/fc/fc_msp.o (symbol from plugin)
powf                                              /usr/bin/../lib/gcc/arm-none-eabi/4.9.3/../../../../arm-none-eabi/lib/armv7-m/libm.a(lib_a-wf_pow.o)
                                                  /tmp/ccELukx5.ltrans10.ltrans.o
ppmAvoidPWMTimerClash                             obj/main/NAZE/drivers/rx_pwm.o (symbol from plugin)
ppmCountDivisor.lto_priv.418                      /tmp/ccELukx5.ltrans8.ltrans.o
                                                  /tmp/ccELukx5.ltrans0.ltrans.o
ppmDev                                            /tmp/ccELukx5.ltrans8.ltrans.o
                                                  obj/main/NAZE/drivers/rx_pwm.o (symbol from plugin)
                                                  /tmp/ccELukx5.ltrans0.ltrans.o
ppmEdgeCallback.lto_priv.416                      /tmp/ccELukx5.ltrans8.ltrans.o
                                                  /tmp/ccELukx5.ltrans0.ltrans.o
ppmFrameCount.lto_priv.355                        /tmp/ccELukx5.ltrans30.ltrans.o
                                                  /tmp/ccELukx5.ltrans8.ltrans.o
ppmISREvent                                       obj/main/NAZE/drivers/rx_pwm.o (symbol from plugin)
ppmInConfig                                       obj/main/NAZE/drivers/rx_pwm.o (symbol from plugin)
                                                  obj/main/NAZE/drivers/pwm_mapping.o (symbol from plugin)
ppmOverflowCallback.lto_priv.417                  /tmp/ccELukx5.ltrans8.ltrans.o
                                                  /tmp/ccELukx5.ltrans0.ltrans.o
ppmRead                                           obj/main/NAZE/drivers/rx_pwm.o (symbol from plugin)
                                                  obj/main/NAZE/rx/pwm.o (symbol from plugin)
ppmReadRawRC.lto_priv.373                         /tmp/ccELukx5.ltrans18.ltrans.o
                                                  /tmp/ccELukx5.ltrans0.ltrans.o
prepareForNextRxByte                              obj/main/NAZE/drivers/serial_softserial.o (symbol from plugin)
prepareForTakeoffOnReset.lto_priv.450             /tmp/ccELukx5.ltrans28.ltrans.o
                                                  /tmp/ccELukx5.ltrans13.ltrans.o
printAdjustmentRange.lto_priv.331                 /tmp/ccELukx5.ltrans16.ltrans.o
                                                  /tmp/ccELukx5.ltrans21.ltrans.o
printAux.lto_priv.332                             /tmp/ccELukx5.ltrans14.ltrans.o
                                                  /tmp/ccELukx5.ltrans21.ltrans.o
printMotorMix.lto_priv.337                        /tmp/ccELukx5.ltrans16.ltrans.o
                                                  /tmp/ccELukx5.ltrans21.ltrans.o
printRxRange.lto_priv.330                         /tmp/ccELukx5.ltrans16.ltrans.o
                                                  /tmp/ccELukx5.ltrans21.ltrans.o
printSerial.lto_priv.333                          /tmp/ccELukx5.ltrans14.ltrans.o
                                                  /tmp/ccELukx5.ltrans21.ltrans.o
                                                  /tmp/ccELukx5.ltrans16.ltrans.o
printServo.lto_priv.336                           /tmp/ccELukx5.ltrans16.ltrans.o
                                                  /tmp/ccELukx5.ltrans21.ltrans.o
printServoMix.lto_priv.334                        /tmp/ccELukx5.ltrans16.ltrans.o
                                                  /tmp/ccELukx5.ltrans21.ltrans.o
printfSerialPort.lto_priv.357                     /tmp/ccELukx5.ltrans2.ltrans.o
                                                  /tmp/ccELukx5.ltrans22.ltrans.o
printfSupportInit                                 obj/main/NAZE/common/printf.o (symbol from plugin)
                                                  obj/main/NAZE/fc/fc_init.o (symbol from plugin)
processChannelRangeArgs.lto_priv.353              /tmp/ccELukx5.ltrans14.ltrans.o
                                                  /tmp/ccELukx5.ltrans16.ltrans.o
processRcAdjustments                              obj/main/NAZE/fc/rc_adjustments.o (symbol from plugin)
                                                  obj/main/NAZE/fc/fc_core.o (symbol from plugin)
processRcStickPositions                           obj/main/NAZE/fc/rc_controls.o (symbol from plugin)
                                                  obj/main/NAZE/fc/fc_core.o (symbol from plugin)
processRx                                         obj/main/NAZE/fc/fc_core.o (symbol from plugin)
processRxState                                    obj/main/NAZE/drivers/serial_softserial.o (symbol from plugin)
processServoAutotrim                              obj/main/NAZE/flight/servos.o (symbol from plugin)
                                                  obj/main/NAZE/fc/fc_core.o (symbol from plugin)
processServoTilt                                  obj/main/NAZE/flight/servos.o (symbol from plugin)
                                                  obj/main/NAZE/fc/fc_core.o (symbol from plugin)
processTxState                                    obj/main/NAZE/drivers/serial_softserial.o (symbol from plugin)
pt1FilterApply                                    obj/main/NAZE/common/filter.o (symbol from plugin)
pt1FilterApply4                                   /tmp/ccELukx5.ltrans22.ltrans.o
                                                  obj/main/NAZE/common/filter.o (symbol from plugin)
                                                  /tmp/ccELukx5.ltrans28.ltrans.o
                                                  /tmp/ccELukx5.ltrans24.ltrans.o
                                                  /tmp/ccELukx5.ltrans13.ltrans.o
                                                  /tmp/ccELukx5.ltrans9.ltrans.o
                                                  /tmp/ccELukx5.ltrans1.ltrans.o
                                                  obj/main/NAZE/sensors/battery.o (symbol from plugin)
                                                  obj/main/NAZE/flight/pid.o (symbol from plugin)
                                                  obj/main/NAZE/navigation/navigation_multicopter.o (symbol from plugin)
                                                  obj/main/NAZE/navigation/navigation_fixedwing.o (symbol from plugin)
                                                  obj/main/NAZE/navigation/navigation.o (symbol from plugin)
pt1FilterInit                                     obj/main/NAZE/common/filter.o (symbol from plugin)
pt1FilterReset                                    obj/main/NAZE/common/filter.o (symbol from plugin)
                                                  obj/main/NAZE/flight/pid.o (symbol from plugin)
                                                  obj/main/NAZE/navigation/navigation_multicopter.o (symbol from plugin)
                                                  obj/main/NAZE/navigation/navigation_fixedwing.o (symbol from plugin)
pwmDisableMotors                                  obj/main/NAZE/drivers/pwm_output.o (symbol from plugin)
pwmDriverInitialize                               obj/main/NAZE/io/pwmdriver_i2c.o (symbol from plugin)
pwmDriverSetPulse                                 obj/main/NAZE/io/pwmdriver_i2c.o (symbol from plugin)
pwmDriverSync                                     obj/main/NAZE/io/pwmdriver_i2c.o (symbol from plugin)
pwmDrivers                                        obj/main/NAZE/io/pwmdriver_i2c.o (symbol from plugin)
pwmEdgeCallback.lto_priv.414                      /tmp/ccELukx5.ltrans8.ltrans.o
                                                  /tmp/ccELukx5.ltrans0.ltrans.o
pwmEnableMotors                                   obj/main/NAZE/drivers/pwm_output.o (symbol from plugin)
pwmGetOutputConfiguration                         obj/main/NAZE/drivers/pwm_mapping.o (symbol from plugin)
                                                  obj/main/NAZE/flight/mixer.o (symbol from plugin)
pwmICConfig                                       /tmp/ccELukx5.ltrans8.ltrans.o
                                                  obj/main/NAZE/drivers/rx_pwm.o (symbol from plugin)
                                                  /tmp/ccELukx5.ltrans0.ltrans.o
pwmInConfig                                       obj/main/NAZE/drivers/rx_pwm.o (symbol from plugin)
                                                  obj/main/NAZE/drivers/pwm_mapping.o (symbol from plugin)
pwmInit                                           obj/main/NAZE/drivers/pwm_mapping.o (symbol from plugin)
                                                  obj/main/NAZE/fc/fc_init.o (symbol from plugin)
pwmMotorConfig                                    obj/main/NAZE/drivers/pwm_output.o (symbol from plugin)
                                                  obj/main/NAZE/drivers/pwm_mapping.o (symbol from plugin)
pwmOutConfigMotor.lto_priv.434                    /tmp/ccELukx5.ltrans8.ltrans.o
                                                  /tmp/ccELukx5.ltrans0.ltrans.o
pwmOverflowCallback.lto_priv.415                  /tmp/ccELukx5.ltrans8.ltrans.o
                                                  /tmp/ccELukx5.ltrans0.ltrans.o
pwmRead                                           obj/main/NAZE/drivers/rx_pwm.o (symbol from plugin)
                                                  obj/main/NAZE/rx/pwm.o (symbol from plugin)
pwmReadRawRC.lto_priv.372                         /tmp/ccELukx5.ltrans18.ltrans.o
                                                  /tmp/ccELukx5.ltrans0.ltrans.o
pwmRxInit                                         obj/main/NAZE/drivers/rx_pwm.o (symbol from plugin)
                                                  obj/main/NAZE/fc/fc_init.o (symbol from plugin)
pwmServoConfig                                    obj/main/NAZE/drivers/pwm_output.o (symbol from plugin)
                                                  obj/main/NAZE/drivers/pwm_mapping.o (symbol from plugin)
pwmShutdownPulsesForAllMotors                     obj/main/NAZE/drivers/pwm_output.o (symbol from plugin)
                                                  obj/main/NAZE/flight/mixer.o (symbol from plugin)
pwmWriteBrushed.lto_priv.409                      /tmp/ccELukx5.ltrans8.ltrans.o
                                                  /tmp/ccELukx5.ltrans0.ltrans.o
pwmWriteMotor                                     obj/main/NAZE/drivers/pwm_output.o (symbol from plugin)
                                                  obj/main/NAZE/flight/mixer.o (symbol from plugin)
pwmWriteMultiShot.lto_priv.412                    /tmp/ccELukx5.ltrans8.ltrans.o
                                                  /tmp/ccELukx5.ltrans0.ltrans.o
pwmWriteOneShot125.lto_priv.410                   /tmp/ccELukx5.ltrans8.ltrans.o
                                                  /tmp/ccELukx5.ltrans0.ltrans.o
pwmWriteOneShot42.lto_priv.411                    /tmp/ccELukx5.ltrans8.ltrans.o
                                                  /tmp/ccELukx5.ltrans0.ltrans.o
pwmWriteServo                                     /tmp/ccELukx5.ltrans8.ltrans.o
                                                  obj/main/NAZE/drivers/pwm_output.o (symbol from plugin)
                                                  /tmp/ccELukx5.ltrans1.ltrans.o
                                                  obj/main/NAZE/flight/servos.o (symbol from plugin)
pwmWriteStandard.lto_priv.413                     /tmp/ccELukx5.ltrans8.ltrans.o
                                                  /tmp/ccELukx5.ltrans0.ltrans.o
qmc5883Detect                                     obj/main/NAZE/drivers/compass/compass_qmc5883l.o (symbol from plugin)
                                                  obj/main/NAZE/sensors/compass.o (symbol from plugin)
qmc5883Init.lto_priv.399                          /tmp/ccELukx5.ltrans6.ltrans.o
                                                  /tmp/ccELukx5.ltrans0.ltrans.o
qmc5883Read.lto_priv.400                          /tmp/ccELukx5.ltrans6.ltrans.o
                                                  /tmp/ccELukx5.ltrans0.ltrans.o
queueAdd.lto_priv.432                             /tmp/ccELukx5.ltrans18.ltrans.o
                                                  /tmp/ccELukx5.ltrans0.ltrans.o
quickMedianFilter3                                obj/main/NAZE/common/maths.o (symbol from plugin)
                                                  obj/main/NAZE/sensors/barometer.o (symbol from plugin)
quickMedianFilter5                                obj/main/NAZE/common/maths.o (symbol from plugin)
quickMedianFilter7                                obj/main/NAZE/common/maths.o (symbol from plugin)
quickMedianFilter9                                obj/main/NAZE/common/maths.o (symbol from plugin)
rMat.lto_priv.179                                 /tmp/ccELukx5.ltrans9.ltrans.o
                                                  /tmp/ccELukx5.ltrans13.ltrans.o
                                                  /tmp/ccELukx5.ltrans7.ltrans.o
                                                  /tmp/ccELukx5.ltrans1.ltrans.o
rangefinder                                       obj/main/NAZE/sensors/rangefinder.o (symbol from plugin)
rateLimitFilterApply4                             obj/main/NAZE/common/filter.o (symbol from plugin)
                                                  obj/main/NAZE/flight/servos.o (symbol from plugin)
                                                  obj/main/NAZE/flight/pid.o (symbol from plugin)
rateLimitFilterInit                               obj/main/NAZE/common/filter.o (symbol from plugin)
rcChannelLetters                                  /tmp/ccELukx5.ltrans18.ltrans.o
                                                  obj/main/NAZE/rx/rx.o (symbol from plugin)
                                                  /tmp/ccELukx5.ltrans21.ltrans.o
                                                  /tmp/ccELukx5.ltrans17.ltrans.o
                                                  obj/main/NAZE/fc/cli.o (symbol from plugin)
rcCommand                                         /tmp/ccELukx5.ltrans9.ltrans.o
                                                  obj/main/NAZE/fc/rc_controls.o (symbol from plugin)
                                                  /tmp/ccELukx5.ltrans28.ltrans.o
                                                  /tmp/ccELukx5.ltrans27.ltrans.o
                                                  /tmp/ccELukx5.ltrans13.ltrans.o
                                                  /tmp/ccELukx5.ltrans10.ltrans.o
                                                  /tmp/ccELukx5.ltrans6.ltrans.o
                                                  /tmp/ccELukx5.ltrans1.ltrans.o
                                                  obj/main/NAZE/sensors/battery.o (symbol from plugin)
                                                  obj/main/NAZE/flight/servos.o (symbol from plugin)
                                                  obj/main/NAZE/flight/pid.o (symbol from plugin)
                                                  obj/main/NAZE/flight/mixer.o (symbol from plugin)
                                                  obj/main/NAZE/flight/failsafe.o (symbol from plugin)
                                                  obj/main/NAZE/fc/fc_core.o (symbol from plugin)
                                                  obj/main/NAZE/telemetry/frsky.o (symbol from plugin)
                                                  obj/main/NAZE/navigation/navigation_multicopter.o (symbol from plugin)
                                                  obj/main/NAZE/navigation/navigation_fw_launch.o (symbol from plugin)
                                                  obj/main/NAZE/navigation/navigation_fixedwing.o (symbol from plugin)
                                                  obj/main/NAZE/blackbox/blackbox.o (symbol from plugin)
rcCommandAdjustedThrottle.lto_priv.460            /tmp/ccELukx5.ltrans1.ltrans.o
                                                  /tmp/ccELukx5.ltrans12.ltrans.o
rcControlsConfig_Copy                             obj/main/NAZE/fc/rc_controls.o (symbol from plugin)
rcControlsConfig_Registry                         /tmp/ccELukx5.ltrans7.ltrans.o
                                                  obj/main/NAZE/fc/rc_controls.o (symbol from plugin)
rcControlsConfig_System                           /tmp/ccELukx5.ltrans7.ltrans.o
                                                  obj/main/NAZE/fc/rc_controls.o (symbol from plugin)
                                                  /tmp/ccELukx5.ltrans13.ltrans.o
                                                  /tmp/ccELukx5.ltrans6.ltrans.o
                                                  /tmp/ccELukx5.ltrans3.ltrans.o
                                                  /tmp/ccELukx5.ltrans2.ltrans.o
                                                  /tmp/ccELukx5.ltrans1.ltrans.o
                                                  obj/main/NAZE/flight/mixer.o (symbol from plugin)
                                                  obj/main/NAZE/fc/fc_msp.o (symbol from plugin)
                                                  obj/main/NAZE/fc/fc_core.o (symbol from plugin)
                                                  obj/main/NAZE/navigation/navigation_multicopter.o (symbol from plugin)
                                                  obj/main/NAZE/navigation/navigation_fw_launch.o (symbol from plugin)
                                                  obj/main/NAZE/navigation/navigation_fixedwing.o (symbol from plugin)
                                                  obj/main/NAZE/blackbox/blackbox.o (symbol from plugin)
rcData                                            /tmp/ccELukx5.ltrans9.ltrans.o
                                                  obj/main/NAZE/rx/rx.o (symbol from plugin)
                                                  /tmp/ccELukx5.ltrans7.ltrans.o
                                                  /tmp/ccELukx5.ltrans4.ltrans.o
                                                  /tmp/ccELukx5.ltrans3.ltrans.o
                                                  /tmp/ccELukx5.ltrans1.ltrans.o
                                                  /tmp/ccELukx5.ltrans0.ltrans.o
                                                  obj/main/NAZE/flight/servos.o (symbol from plugin)
                                                  obj/main/NAZE/flight/mixer.o (symbol from plugin)
                                                  obj/main/NAZE/flight/failsafe.o (symbol from plugin)
                                                  obj/main/NAZE/fc/rc_modes.o (symbol from plugin)
                                                  obj/main/NAZE/fc/rc_controls.o (symbol from plugin)
                                                  obj/main/NAZE/fc/rc_adjustments.o (symbol from plugin)
                                                  obj/main/NAZE/fc/fc_msp.o (symbol from plugin)
                                                  obj/main/NAZE/fc/fc_core.o (symbol from plugin)
rcInvalidPulsPeriod                               /tmp/ccELukx5.ltrans4.ltrans.o
                                                  obj/main/NAZE/rx/rx.o (symbol from plugin)
                                                  /tmp/ccELukx5.ltrans0.ltrans.o
rcLookup                                          obj/main/NAZE/fc/rc_curves.o (symbol from plugin)
                                                  obj/main/NAZE/fc/fc_core.o (symbol from plugin)
rcLookupThrottle                                  obj/main/NAZE/fc/rc_curves.o (symbol from plugin)
                                                  obj/main/NAZE/fc/fc_core.o (symbol from plugin)
rcLookupThrottleMid                               obj/main/NAZE/fc/rc_curves.o (symbol from plugin)
                                                  obj/main/NAZE/navigation/navigation_multicopter.o (symbol from plugin)
rcModeActivationMask                              /tmp/ccELukx5.ltrans7.ltrans.o
                                                  obj/main/NAZE/fc/rc_modes.o (symbol from plugin)
                                                  /tmp/ccELukx5.ltrans23.ltrans.o
                                                  /tmp/ccELukx5.ltrans15.ltrans.o
                                                  /tmp/ccELukx5.ltrans6.ltrans.o
                                                  /tmp/ccELukx5.ltrans4.ltrans.o
                                                  obj/main/NAZE/blackbox/blackbox.o (symbol from plugin)
rcModeUpdate                                      obj/main/NAZE/fc/rc_modes.o (symbol from plugin)
rcRaw                                             obj/main/NAZE/rx/rx.o (symbol from plugin)
rcSampleIndex.lto_priv.370                        /tmp/ccELukx5.ltrans4.ltrans.o
                                                  /tmp/ccELukx5.ltrans0.ltrans.o
rcSplitInit                                       obj/main/NAZE/io/rcsplit.o (symbol from plugin)
rcSplitProcess                                    obj/main/NAZE/io/rcsplit.o (symbol from plugin)
rcSplitSerialPort                                 obj/main/NAZE/io/rcsplit.o (symbol from plugin)
rcStickPositions                                  obj/main/NAZE/fc/rc_controls.o (symbol from plugin)
readEEPROM                                        /tmp/ccELukx5.ltrans21.ltrans.o
                                                  obj/main/NAZE/fc/config.o (symbol from plugin)
                                                  /tmp/ccELukx5.ltrans15.ltrans.o
                                                  /tmp/ccELukx5.ltrans2.ltrans.o
                                                  /tmp/ccELukx5.ltrans0.ltrans.o
                                                  obj/main/NAZE/fc/fc_msp.o (symbol from plugin)
                                                  obj/main/NAZE/fc/fc_init.o (symbol from plugin)
registerExtiCallbackHandler                       obj/main/NAZE/drivers/system.o (symbol from plugin)
releaseSharedTelemetryPorts                       obj/main/NAZE/fc/fc_core.o (symbol from plugin)
requestedSensors                                  /tmp/ccELukx5.ltrans18.ltrans.o
                                                  obj/main/NAZE/sensors/initialisation.o (symbol from plugin)
                                                  /tmp/ccELukx5.ltrans0.ltrans.o
                                                  obj/main/NAZE/sensors/diagnostics.o (symbol from plugin)
                                                  obj/main/NAZE/sensors/compass.o (symbol from plugin)
                                                  obj/main/NAZE/sensors/acceleration.o (symbol from plugin)
                                                  obj/main/NAZE/sensors/barometer.o (symbol from plugin)
rescheduleTask                                    obj/main/NAZE/scheduler/scheduler.o (symbol from plugin)
                                                  obj/main/NAZE/fc/fc_tasks.o (symbol from plugin)
resetAdjustmentStates                             obj/main/NAZE/fc/rc_adjustments.o (symbol from plugin)
                                                  obj/main/NAZE/fc/config.o (symbol from plugin)
resetAllRxChannelRangeConfigurations              obj/main/NAZE/rx/rx.o (symbol from plugin)
                                                  obj/main/NAZE/fc/cli.o (symbol from plugin)
resetAltitudeController.lto_priv.453              /tmp/ccELukx5.ltrans13.ltrans.o
                                                  /tmp/ccELukx5.ltrans25.ltrans.o
                                                  /tmp/ccELukx5.ltrans12.ltrans.o
resetConfigs                                      /tmp/ccELukx5.ltrans21.ltrans.o
                                                  obj/main/NAZE/fc/config.o (symbol from plugin)
                                                  /tmp/ccELukx5.ltrans17.ltrans.o
                                                  /tmp/ccELukx5.ltrans2.ltrans.o
                                                  /tmp/ccELukx5.ltrans0.ltrans.o
                                                  obj/main/NAZE/fc/cli.o (symbol from plugin)
resetEEPROM                                       obj/main/NAZE/fc/config.o (symbol from plugin)
                                                  obj/main/NAZE/fc/fc_msp.o (symbol from plugin)
                                                  obj/main/NAZE/fc/cli.o (symbol from plugin)
resetFixedWingAltitudeController                  obj/main/NAZE/navigation/navigation_fixedwing.o (symbol from plugin)
                                                  obj/main/NAZE/navigation/navigation.o (symbol from plugin)
resetFixedWingHeadingController                   obj/main/NAZE/navigation/navigation_fixedwing.o (symbol from plugin)
                                                  obj/main/NAZE/navigation/navigation.o (symbol from plugin)
resetFixedWingLandingDetector                     obj/main/NAZE/navigation/navigation_fixedwing.o (symbol from plugin)
                                                  obj/main/NAZE/navigation/navigation.o (symbol from plugin)
resetFixedWingLaunchController                    obj/main/NAZE/navigation/navigation_fw_launch.o (symbol from plugin)
                                                  obj/main/NAZE/navigation/navigation.o (symbol from plugin)
resetFixedWingPositionController                  obj/main/NAZE/navigation/navigation_fixedwing.o (symbol from plugin)
                                                  obj/main/NAZE/navigation/navigation.o (symbol from plugin)
resetGCSFlags                                     /tmp/ccELukx5.ltrans13.ltrans.o
                                                  obj/main/NAZE/navigation/navigation.o (symbol from plugin)
                                                  /tmp/ccELukx5.ltrans12.ltrans.o
resetHeadingHoldTarget                            obj/main/NAZE/flight/pid.o (symbol from plugin)
                                                  obj/main/NAZE/flight/imu.o (symbol from plugin)
                                                  obj/main/NAZE/fc/fc_core.o (symbol from plugin)
resetLandingDetector                              /tmp/ccELukx5.ltrans25.ltrans.o
                                                  obj/main/NAZE/navigation/navigation.o (symbol from plugin)
                                                  /tmp/ccELukx5.ltrans12.ltrans.o
resetMulticopterAltitudeController                /tmp/ccELukx5.ltrans28.ltrans.o
                                                  obj/main/NAZE/navigation/navigation_multicopter.o (symbol from plugin)
                                                  /tmp/ccELukx5.ltrans13.ltrans.o
                                                  /tmp/ccELukx5.ltrans1.ltrans.o
                                                  obj/main/NAZE/navigation/navigation.o (symbol from plugin)
resetMulticopterHeadingController                 obj/main/NAZE/navigation/navigation_multicopter.o (symbol from plugin)
                                                  obj/main/NAZE/navigation/navigation.o (symbol from plugin)
resetMulticopterLandingDetector                   obj/main/NAZE/navigation/navigation_multicopter.o (symbol from plugin)
                                                  obj/main/NAZE/navigation/navigation.o (symbol from plugin)
resetMulticopterPositionController                /tmp/ccELukx5.ltrans28.ltrans.o
                                                  obj/main/NAZE/navigation/navigation_multicopter.o (symbol from plugin)
                                                  /tmp/ccELukx5.ltrans13.ltrans.o
                                                  /tmp/ccELukx5.ltrans1.ltrans.o
                                                  obj/main/NAZE/navigation/navigation.o (symbol from plugin)
resetNavigation                                   obj/main/NAZE/navigation/navigation.o (symbol from plugin)
resetPPMDataReceivedState                         obj/main/NAZE/drivers/rx_pwm.o (symbol from plugin)
                                                  obj/main/NAZE/rx/rx.o (symbol from plugin)
resetPositionController.lto_priv.455              /tmp/ccELukx5.ltrans13.ltrans.o
                                                  /tmp/ccELukx5.ltrans25.ltrans.o
                                                  /tmp/ccELukx5.ltrans12.ltrans.o
resetWaypointList                                 obj/main/NAZE/navigation/navigation.o (symbol from plugin)
resourceNames                                     obj/main/NAZE/drivers/io.o (symbol from plugin)
resumeRxSignal                                    /tmp/ccELukx5.ltrans18.ltrans.o
                                                  obj/main/NAZE/rx/rx.o (symbol from plugin)
                                                  /tmp/ccELukx5.ltrans21.ltrans.o
                                                  /tmp/ccELukx5.ltrans15.ltrans.o
                                                  obj/main/NAZE/fc/config.o (symbol from plugin)
rint                                              /usr/bin/../lib/gcc/arm-none-eabi/4.9.3/../../../../arm-none-eabi/lib/armv7-m/libm.a(lib_a-s_rint.o)
                                                  /usr/bin/../lib/gcc/arm-none-eabi/4.9.3/../../../../arm-none-eabi/lib/armv7-m/libm.a(lib_a-wf_pow.o)
rotateV                                           obj/main/NAZE/common/maths.o (symbol from plugin)
rssi                                              /tmp/ccELukx5.ltrans3.ltrans.o
                                                  obj/main/NAZE/rx/rx.o (symbol from plugin)
                                                  /tmp/ccELukx5.ltrans10.ltrans.o
                                                  /tmp/ccELukx5.ltrans6.ltrans.o
                                                  /tmp/ccELukx5.ltrans4.ltrans.o
                                                  obj/main/NAZE/fc/fc_msp.o (symbol from plugin)
                                                  obj/main/NAZE/telemetry/ltm.o (symbol from plugin)
                                                  obj/main/NAZE/blackbox/blackbox.o (symbol from plugin)
rssi_channel.lto_priv.380                         /tmp/ccELukx5.ltrans18.ltrans.o
                                                  /tmp/ccELukx5.ltrans0.ltrans.o
rxAreFlightChannelsValid                          obj/main/NAZE/rx/rx.o (symbol from plugin)
                                                  obj/main/NAZE/blackbox/blackbox.o (symbol from plugin)
rxChannelRangeConfigs_CopyArray                   /tmp/ccELukx5.ltrans18.ltrans.o
                                                  obj/main/NAZE/rx/rx.o (symbol from plugin)
                                                  /tmp/ccELukx5.ltrans21.ltrans.o
                                                  obj/main/NAZE/fc/cli.o (symbol from plugin)
rxChannelRangeConfigs_Registry                    /tmp/ccELukx5.ltrans18.ltrans.o
                                                  obj/main/NAZE/rx/rx.o (symbol from plugin)
rxChannelRangeConfigs_SystemArray                 /tmp/ccELukx5.ltrans18.ltrans.o
                                                  obj/main/NAZE/rx/rx.o (symbol from plugin)
                                                  /tmp/ccELukx5.ltrans21.ltrans.o
                                                  /tmp/ccELukx5.ltrans16.ltrans.o
                                                  /tmp/ccELukx5.ltrans4.ltrans.o
                                                  obj/main/NAZE/fc/cli.o (symbol from plugin)
rxConfig_Copy                                     /tmp/ccELukx5.ltrans18.ltrans.o
                                                  obj/main/NAZE/rx/rx.o (symbol from plugin)
                                                  /tmp/ccELukx5.ltrans21.ltrans.o
                                                  obj/main/NAZE/fc/cli.o (symbol from plugin)
rxConfig_Registry                                 /tmp/ccELukx5.ltrans18.ltrans.o
                                                  obj/main/NAZE/rx/rx.o (symbol from plugin)
rxConfig_System                                   /tmp/ccELukx5.ltrans18.ltrans.o
                                                  obj/main/NAZE/rx/rx.o (symbol from plugin)
                                                  /tmp/ccELukx5.ltrans21.ltrans.o
                                                  /tmp/ccELukx5.ltrans17.ltrans.o
                                                  /tmp/ccELukx5.ltrans15.ltrans.o
                                                  /tmp/ccELukx5.ltrans9.ltrans.o
                                                  /tmp/ccELukx5.ltrans7.ltrans.o
                                                  /tmp/ccELukx5.ltrans6.ltrans.o
                                                  /tmp/ccELukx5.ltrans4.ltrans.o
                                                  /tmp/ccELukx5.ltrans3.ltrans.o
                                                  /tmp/ccELukx5.ltrans2.ltrans.o
                                                  /tmp/ccELukx5.ltrans1.ltrans.o
                                                  /tmp/ccELukx5.ltrans0.ltrans.o
                                                  obj/main/NAZE/flight/servos.o (symbol from plugin)
                                                  obj/main/NAZE/flight/pid.o (symbol from plugin)
                                                  obj/main/NAZE/flight/mixer.o (symbol from plugin)
                                                  obj/main/NAZE/flight/failsafe.o (symbol from plugin)
                                                  obj/main/NAZE/fc/rc_controls.o (symbol from plugin)
                                                  obj/main/NAZE/fc/rc_adjustments.o (symbol from plugin)
                                                  obj/main/NAZE/fc/fc_msp.o (symbol from plugin)
                                                  obj/main/NAZE/fc/fc_core.o (symbol from plugin)
                                                  obj/main/NAZE/fc/cli.o (symbol from plugin)
                                                  obj/main/NAZE/blackbox/blackbox.o (symbol from plugin)
rxFlightChannelsValid.lto_priv.480                /tmp/ccELukx5.ltrans4.ltrans.o
                                                  /tmp/ccELukx5.ltrans6.ltrans.o
rxGetRefreshRate                                  obj/main/NAZE/rx/rx.o (symbol from plugin)
                                                  obj/main/NAZE/fc/fc_core.o (symbol from plugin)
rxInit                                            obj/main/NAZE/rx/rx.o (symbol from plugin)
                                                  obj/main/NAZE/fc/fc_init.o (symbol from plugin)
rxIsInFailsafeMode.lto_priv.259                   /tmp/ccELukx5.ltrans4.ltrans.o
                                                  /tmp/ccELukx5.ltrans30.ltrans.o
rxIsInFailsafeModeNotDataDriven.lto_priv.258      /tmp/ccELukx5.ltrans4.ltrans.o
                                                  /tmp/ccELukx5.ltrans30.ltrans.o
rxIsReceivingSignal                               obj/main/NAZE/rx/rx.o (symbol from plugin)
                                                  obj/main/NAZE/fc/rc_controls.o (symbol from plugin)
                                                  obj/main/NAZE/fc/rc_adjustments.o (symbol from plugin)
                                                  obj/main/NAZE/blackbox/blackbox.o (symbol from plugin)
rxPwmInit                                         obj/main/NAZE/rx/pwm.o (symbol from plugin)
                                                  obj/main/NAZE/rx/rx.o (symbol from plugin)
rxRuntimeConfig                                   /tmp/ccELukx5.ltrans9.ltrans.o
                                                  obj/main/NAZE/rx/rx.o (symbol from plugin)
                                                  /tmp/ccELukx5.ltrans30.ltrans.o
                                                  /tmp/ccELukx5.ltrans4.ltrans.o
                                                  /tmp/ccELukx5.ltrans3.ltrans.o
                                                  /tmp/ccELukx5.ltrans1.ltrans.o
                                                  /tmp/ccELukx5.ltrans0.ltrans.o
                                                  obj/main/NAZE/flight/servos.o (symbol from plugin)
                                                  obj/main/NAZE/fc/fc_msp.o (symbol from plugin)
rxRuntimeConfigPtr.lto_priv.374                   /tmp/ccELukx5.ltrans18.ltrans.o
                                                  /tmp/ccELukx5.ltrans0.ltrans.o
rxSignalReceived.lto_priv.256                     /tmp/ccELukx5.ltrans4.ltrans.o
                                                  /tmp/ccELukx5.ltrans30.ltrans.o
                                                  /tmp/ccELukx5.ltrans6.ltrans.o
rxSignalReceivedNotDataDriven.lto_priv.257        /tmp/ccELukx5.ltrans4.ltrans.o
                                                  /tmp/ccELukx5.ltrans30.ltrans.o
rxUpdateAt.lto_priv.260                           /tmp/ccELukx5.ltrans4.ltrans.o
                                                  /tmp/ccELukx5.ltrans30.ltrans.o
rxUpdateCheck                                     obj/main/NAZE/rx/rx.o (symbol from plugin)
                                                  obj/main/NAZE/fc/fc_core.o (symbol from plugin)
saveConfigAndNotify                               /tmp/ccELukx5.ltrans15.ltrans.o
                                                  obj/main/NAZE/fc/config.o (symbol from plugin)
                                                  /tmp/ccELukx5.ltrans27.ltrans.o
                                                  /tmp/ccELukx5.ltrans21.ltrans.o
                                                  /tmp/ccELukx5.ltrans4.ltrans.o
                                                  /tmp/ccELukx5.ltrans1.ltrans.o
                                                  obj/main/NAZE/sensors/compass.o (symbol from plugin)
                                                  obj/main/NAZE/sensors/acceleration.o (symbol from plugin)
                                                  obj/main/NAZE/flight/servos.o (symbol from plugin)
                                                  obj/main/NAZE/fc/rc_controls.o (symbol from plugin)
sbufAdvance                                       obj/main/NAZE/common/streambuf.o (symbol from plugin)
                                                  obj/main/NAZE/fc/fc_msp.o (symbol from plugin)
sbufBytesRemaining                                obj/main/NAZE/common/streambuf.o (symbol from plugin)
                                                  obj/main/NAZE/msp/msp_serial.o (symbol from plugin)
                                                  obj/main/NAZE/fc/fc_msp.o (symbol from plugin)
                                                  obj/main/NAZE/telemetry/ltm.o (symbol from plugin)
sbufConstPtr                                      obj/main/NAZE/common/streambuf.o (symbol from plugin)
sbufPtr                                           obj/main/NAZE/common/streambuf.o (symbol from plugin)
                                                  obj/main/NAZE/msp/msp_serial.o (symbol from plugin)
                                                  obj/main/NAZE/fc/fc_msp.o (symbol from plugin)
                                                  obj/main/NAZE/common/crc.o (symbol from plugin)
                                                  obj/main/NAZE/telemetry/ltm.o (symbol from plugin)
sbufReadData                                      obj/main/NAZE/common/streambuf.o (symbol from plugin)
sbufReadU16                                       /tmp/ccELukx5.ltrans22.ltrans.o
                                                  obj/main/NAZE/common/streambuf.o (symbol from plugin)
                                                  /tmp/ccELukx5.ltrans2.ltrans.o
                                                  obj/main/NAZE/fc/fc_msp.o (symbol from plugin)
sbufReadU32                                       /tmp/ccELukx5.ltrans22.ltrans.o
                                                  obj/main/NAZE/common/streambuf.o (symbol from plugin)
                                                  /tmp/ccELukx5.ltrans2.ltrans.o
                                                  obj/main/NAZE/fc/fc_msp.o (symbol from plugin)
sbufReadU8                                        /tmp/ccELukx5.ltrans22.ltrans.o
                                                  obj/main/NAZE/common/streambuf.o (symbol from plugin)
                                                  /tmp/ccELukx5.ltrans2.ltrans.o
                                                  obj/main/NAZE/fc/fc_msp.o (symbol from plugin)
                                                  obj/main/NAZE/telemetry/ltm.o (symbol from plugin)
sbufSwitchToReader                                obj/main/NAZE/common/streambuf.o (symbol from plugin)
                                                  obj/main/NAZE/msp/msp_serial.o (symbol from plugin)
                                                  obj/main/NAZE/telemetry/ltm.o (symbol from plugin)
sbufWriteData                                     /tmp/ccELukx5.ltrans22.ltrans.o
                                                  obj/main/NAZE/common/streambuf.o (symbol from plugin)
                                                  /tmp/ccELukx5.ltrans3.ltrans.o
                                                  obj/main/NAZE/msp/msp_serial.o (symbol from plugin)
                                                  obj/main/NAZE/fc/fc_msp.o (symbol from plugin)
sbufWriteString                                   obj/main/NAZE/common/streambuf.o (symbol from plugin)
sbufWriteU16                                      /tmp/ccELukx5.ltrans22.ltrans.o
                                                  obj/main/NAZE/common/streambuf.o (symbol from plugin)
                                                  /tmp/ccELukx5.ltrans10.ltrans.o
                                                  /tmp/ccELukx5.ltrans3.ltrans.o
                                                  /tmp/ccELukx5.ltrans2.ltrans.o
                                                  obj/main/NAZE/fc/fc_msp.o (symbol from plugin)
                                                  obj/main/NAZE/common/crc.o (symbol from plugin)
                                                  obj/main/NAZE/telemetry/ltm.o (symbol from plugin)
sbufWriteU16BigEndian                             obj/main/NAZE/common/streambuf.o (symbol from plugin)
sbufWriteU32                                      /tmp/ccELukx5.ltrans22.ltrans.o
                                                  obj/main/NAZE/common/streambuf.o (symbol from plugin)
                                                  /tmp/ccELukx5.ltrans10.ltrans.o
                                                  /tmp/ccELukx5.ltrans3.ltrans.o
                                                  /tmp/ccELukx5.ltrans2.ltrans.o
                                                  obj/main/NAZE/fc/fc_msp.o (symbol from plugin)
                                                  obj/main/NAZE/telemetry/ltm.o (symbol from plugin)
sbufWriteU32BigEndian                             obj/main/NAZE/common/streambuf.o (symbol from plugin)
sbufWriteU8                                       obj/main/NAZE/common/streambuf.o (symbol from plugin)
                                                  obj/main/NAZE/fc/fc_msp.o (symbol from plugin)
                                                  obj/main/NAZE/common/crc.o (symbol from plugin)
                                                  obj/main/NAZE/telemetry/ltm.o (symbol from plugin)
sbusChannelData.lto_priv.381                      /tmp/ccELukx5.ltrans18.ltrans.o
                                                  /tmp/ccELukx5.ltrans0.ltrans.o
sbusDataReceive.lto_priv.383                      /tmp/ccELukx5.ltrans18.ltrans.o
                                                  /tmp/ccELukx5.ltrans0.ltrans.o
sbusFrameStatus                                   /tmp/ccELukx5.ltrans18.ltrans.o
                                                  obj/main/NAZE/rx/sbus.o (symbol from plugin)
                                                  /tmp/ccELukx5.ltrans0.ltrans.o
sbusInit                                          obj/main/NAZE/rx/sbus.o (symbol from plugin)
                                                  obj/main/NAZE/rx/rx.o (symbol from plugin)
sbusReadRawRC.lto_priv.382                        /tmp/ccELukx5.ltrans18.ltrans.o
                                                  /tmp/ccELukx5.ltrans0.ltrans.o
scalbnf                                           /usr/bin/../lib/gcc/arm-none-eabi/4.9.3/../../../../arm-none-eabi/lib/armv7-m/libm.a(lib_a-sf_scalbn.o)
                                                  /usr/bin/../lib/gcc/arm-none-eabi/4.9.3/../../../../arm-none-eabi/lib/armv7-m/libm.a(lib_a-ef_pow.o)
scaleRange                                        obj/main/NAZE/common/maths.o (symbol from plugin)
                                                  obj/main/NAZE/rx/rx.o (symbol from plugin)
                                                  obj/main/NAZE/flight/servos.o (symbol from plugin)
scaleRangef                                       obj/main/NAZE/common/maths.o (symbol from plugin)
                                                  obj/main/NAZE/flight/pid.o (symbol from plugin)
                                                  obj/main/NAZE/navigation/navigation_fw_launch.o (symbol from plugin)
schedulePidGainsUpdate                            obj/main/NAZE/flight/pid.o (symbol from plugin)
                                                  obj/main/NAZE/fc/rc_adjustments.o (symbol from plugin)
                                                  obj/main/NAZE/fc/fc_msp.o (symbol from plugin)
scheduler                                         obj/main/NAZE/scheduler/scheduler.o (symbol from plugin)
                                                  obj/main/NAZE/main.o (symbol from plugin)
schedulerInit                                     obj/main/NAZE/scheduler/scheduler.o (symbol from plugin)
                                                  obj/main/NAZE/fc/fc_tasks.o (symbol from plugin)
schedulerResetTaskStatistics                      obj/main/NAZE/scheduler/scheduler.o (symbol from plugin)
                                                  obj/main/NAZE/sensors/gyro.o (symbol from plugin)
sectionTimes                                      obj/main/NAZE/build/debug.o (symbol from plugin)
selectMPUIntExtiConfigByHardwareRevision          obj/main/NAZE/hardware_revision.o (symbol from plugin)
selectNavEventFromBoxModeInput.lto_priv.255       /tmp/ccELukx5.ltrans13.ltrans.o
                                                  /tmp/ccELukx5.ltrans4.ltrans.o
                                                  /tmp/ccELukx5.ltrans1.ltrans.o
sendConfigMessageUBLOX.lto_priv.143               /tmp/ccELukx5.ltrans26.ltrans.o
                                                  /tmp/ccELukx5.ltrans24.ltrans.o
                                                  /tmp/ccELukx5.ltrans12.ltrans.o
sendDataHead.lto_priv.194                         /tmp/ccELukx5.ltrans11.ltrans.o
                                                  /tmp/ccELukx5.ltrans10.ltrans.o
sendFieldDefinition.lto_priv.279                  /tmp/ccELukx5.ltrans6.ltrans.o
                                                  /tmp/ccELukx5.ltrans1.ltrans.o
sendLatLong.lto_priv.195                          /tmp/ccELukx5.ltrans11.ltrans.o
                                                  /tmp/ccELukx5.ltrans10.ltrans.o
sendTelemetryTail.lto_priv.192                    /tmp/ccELukx5.ltrans11.ltrans.o
                                                  /tmp/ccELukx5.ltrans10.ltrans.o
send_buffer.lto_priv.463                          /tmp/ccELukx5.ltrans24.ltrans.o
                                                  /tmp/ccELukx5.ltrans26.ltrans.o
                                                  /tmp/ccELukx5.ltrans12.ltrans.o
sensorCalibrationPushSampleForOffsetCalculation   /tmp/ccELukx5.ltrans22.ltrans.o
                                                  obj/main/NAZE/common/maths.o (symbol from plugin)
                                                  /tmp/ccELukx5.ltrans27.ltrans.o
                                                  /tmp/ccELukx5.ltrans1.ltrans.o
                                                  obj/main/NAZE/sensors/compass.o (symbol from plugin)
                                                  obj/main/NAZE/sensors/acceleration.o (symbol from plugin)
sensorCalibrationPushSampleForScaleCalculation    obj/main/NAZE/common/maths.o (symbol from plugin)
                                                  obj/main/NAZE/sensors/acceleration.o (symbol from plugin)
sensorCalibrationResetState                       /tmp/ccELukx5.ltrans22.ltrans.o
                                                  obj/main/NAZE/common/maths.o (symbol from plugin)
                                                  /tmp/ccELukx5.ltrans27.ltrans.o
                                                  /tmp/ccELukx5.ltrans1.ltrans.o
                                                  obj/main/NAZE/sensors/compass.o (symbol from plugin)
                                                  obj/main/NAZE/sensors/acceleration.o (symbol from plugin)
sensorCalibrationSolveForOffset                   /tmp/ccELukx5.ltrans22.ltrans.o
                                                  obj/main/NAZE/common/maths.o (symbol from plugin)
                                                  /tmp/ccELukx5.ltrans27.ltrans.o
                                                  /tmp/ccELukx5.ltrans1.ltrans.o
                                                  obj/main/NAZE/sensors/compass.o (symbol from plugin)
                                                  obj/main/NAZE/sensors/acceleration.o (symbol from plugin)
sensorCalibrationSolveForScale                    obj/main/NAZE/common/maths.o (symbol from plugin)
                                                  obj/main/NAZE/sensors/acceleration.o (symbol from plugin)
sensorCalibration_BackwardSubstitution            obj/main/NAZE/common/maths.o (symbol from plugin)
sensorCalibration_ForwardSubstitution             obj/main/NAZE/common/maths.o (symbol from plugin)
sensorCalibration_SolveLGS.lto_priv.288           /tmp/ccELukx5.ltrans22.ltrans.o
                                                  /tmp/ccELukx5.ltrans1.ltrans.o
sensors                                           obj/main/NAZE/fc/runtime_config.o (symbol from plugin)
                                                  obj/main/NAZE/sensors/diagnostics.o (symbol from plugin)
                                                  obj/main/NAZE/flight/imu.o (symbol from plugin)
                                                  obj/main/NAZE/fc/fc_msp.o (symbol from plugin)
                                                  obj/main/NAZE/fc/fc_tasks.o (symbol from plugin)
                                                  obj/main/NAZE/fc/fc_core.o (symbol from plugin)
                                                  obj/main/NAZE/telemetry/ltm.o (symbol from plugin)
                                                  obj/main/NAZE/telemetry/frsky.o (symbol from plugin)
                                                  obj/main/NAZE/navigation/navigation_pos_estimator.o (symbol from plugin)
                                                  obj/main/NAZE/blackbox/blackbox.o (symbol from plugin)
sensorsAutodetect                                 obj/main/NAZE/sensors/initialisation.o (symbol from plugin)
                                                  obj/main/NAZE/fc/fc_init.o (symbol from plugin)
sensorsClear                                      obj/main/NAZE/fc/runtime_config.o (symbol from plugin)
                                                  obj/main/NAZE/sensors/compass.o (symbol from plugin)
                                                  obj/main/NAZE/sensors/barometer.o (symbol from plugin)
                                                  obj/main/NAZE/io/gps.o (symbol from plugin)
sensorsMask                                       obj/main/NAZE/fc/runtime_config.o (symbol from plugin)
                                                  obj/main/NAZE/fc/cli.o (symbol from plugin)
sensorsSet                                        /tmp/ccELukx5.ltrans7.ltrans.o
                                                  obj/main/NAZE/fc/runtime_config.o (symbol from plugin)
                                                  /tmp/ccELukx5.ltrans27.ltrans.o
                                                  /tmp/ccELukx5.ltrans26.ltrans.o
                                                  /tmp/ccELukx5.ltrans2.ltrans.o
                                                  /tmp/ccELukx5.ltrans0.ltrans.o
                                                  obj/main/NAZE/sensors/gyro.o (symbol from plugin)
                                                  obj/main/NAZE/sensors/compass.o (symbol from plugin)
                                                  obj/main/NAZE/sensors/acceleration.o (symbol from plugin)
                                                  obj/main/NAZE/fc/fc_msp.o (symbol from plugin)
                                                  obj/main/NAZE/sensors/barometer.o (symbol from plugin)
                                                  obj/main/NAZE/io/gps.o (symbol from plugin)
serialBeginWrite                                  obj/main/NAZE/drivers/serial.o (symbol from plugin)
                                                  obj/main/NAZE/msp/msp_serial.o (symbol from plugin)
serialConfig_Copy                                 /tmp/ccELukx5.ltrans24.ltrans.o
                                                  obj/main/NAZE/io/serial.o (symbol from plugin)
                                                  /tmp/ccELukx5.ltrans21.ltrans.o
                                                  obj/main/NAZE/fc/cli.o (symbol from plugin)
serialConfig_Registry                             /tmp/ccELukx5.ltrans24.ltrans.o
                                                  obj/main/NAZE/io/serial.o (symbol from plugin)
serialConfig_System                               /tmp/ccELukx5.ltrans24.ltrans.o
                                                  obj/main/NAZE/io/serial.o (symbol from plugin)
                                                  /tmp/ccELukx5.ltrans21.ltrans.o
                                                  /tmp/ccELukx5.ltrans18.ltrans.o
                                                  /tmp/ccELukx5.ltrans16.ltrans.o
                                                  /tmp/ccELukx5.ltrans9.ltrans.o
                                                  /tmp/ccELukx5.ltrans3.ltrans.o
                                                  /tmp/ccELukx5.ltrans2.ltrans.o
                                                  /tmp/ccELukx5.ltrans0.ltrans.o
                                                  obj/main/NAZE/fc/fc_msp.o (symbol from plugin)
                                                  obj/main/NAZE/fc/fc_init.o (symbol from plugin)
                                                  obj/main/NAZE/fc/config.o (symbol from plugin)
                                                  obj/main/NAZE/fc/cli.o (symbol from plugin)
                                                  obj/main/NAZE/io/gps.o (symbol from plugin)
serialEndWrite                                    obj/main/NAZE/drivers/serial.o (symbol from plugin)
                                                  obj/main/NAZE/msp/msp_serial.o (symbol from plugin)
serialEvaluateNonMspData                          obj/main/NAZE/io/serial.o (symbol from plugin)
                                                  obj/main/NAZE/msp/msp_serial.o (symbol from plugin)
serialFindPortConfiguration                       obj/main/NAZE/io/serial.o (symbol from plugin)
                                                  obj/main/NAZE/fc/fc_msp.o (symbol from plugin)
                                                  obj/main/NAZE/fc/cli.o (symbol from plugin)
serialGetAvailablePortCount                       obj/main/NAZE/io/serial.o (symbol from plugin)
serialGetBaudRate                                 obj/main/NAZE/drivers/serial.o (symbol from plugin)
serialInit                                        obj/main/NAZE/io/serial.o (symbol from plugin)
                                                  obj/main/NAZE/fc/fc_init.o (symbol from plugin)
serialInputPortConfig                             obj/main/NAZE/drivers/serial_softserial.o (symbol from plugin)
serialIsPortAvailable                             obj/main/NAZE/io/serial.o (symbol from plugin)
                                                  obj/main/NAZE/fc/fc_msp.o (symbol from plugin)
                                                  obj/main/NAZE/fc/cli.o (symbol from plugin)
serialPassthrough                                 obj/main/NAZE/io/serial.o (symbol from plugin)
serialPortIdentifiers                             /tmp/ccELukx5.ltrans9.ltrans.o
                                                  obj/main/NAZE/io/serial.o (symbol from plugin)
                                                  /tmp/ccELukx5.ltrans0.ltrans.o
serialPortUsageList.lto_priv.144                  /tmp/ccELukx5.ltrans24.ltrans.o
                                                  /tmp/ccELukx5.ltrans18.ltrans.o
                                                  /tmp/ccELukx5.ltrans14.ltrans.o
                                                  /tmp/ccELukx5.ltrans3.ltrans.o
                                                  /tmp/ccELukx5.ltrans0.ltrans.o
serialPrint                                       obj/main/NAZE/drivers/serial.o (symbol from plugin)
                                                  obj/main/NAZE/io/gps_ublox.o (symbol from plugin)
serialRead                                        /tmp/ccELukx5.ltrans19.ltrans.o
                                                  obj/main/NAZE/drivers/serial.o (symbol from plugin)
                                                  /tmp/ccELukx5.ltrans17.ltrans.o
                                                  /tmp/ccELukx5.ltrans12.ltrans.o
                                                  /tmp/ccELukx5.ltrans2.ltrans.o
                                                  obj/main/NAZE/msp/msp_serial.o (symbol from plugin)
                                                  obj/main/NAZE/io/serial.o (symbol from plugin)
                                                  obj/main/NAZE/fc/cli.o (symbol from plugin)
                                                  obj/main/NAZE/io/gps_ublox.o (symbol from plugin)
                                                  obj/main/NAZE/io/gps.o (symbol from plugin)
serialRemovePort                                  obj/main/NAZE/io/serial.o (symbol from plugin)
serialRxBytesWaiting                              /tmp/ccELukx5.ltrans19.ltrans.o
                                                  obj/main/NAZE/drivers/serial.o (symbol from plugin)
                                                  /tmp/ccELukx5.ltrans17.ltrans.o
                                                  /tmp/ccELukx5.ltrans12.ltrans.o
                                                  /tmp/ccELukx5.ltrans2.ltrans.o
                                                  obj/main/NAZE/msp/msp_serial.o (symbol from plugin)
                                                  obj/main/NAZE/io/serial.o (symbol from plugin)
                                                  obj/main/NAZE/fc/cli.o (symbol from plugin)
                                                  obj/main/NAZE/io/gps_ublox.o (symbol from plugin)
                                                  obj/main/NAZE/io/gps.o (symbol from plugin)
serialRxInit                                      obj/main/NAZE/rx/rx.o (symbol from plugin)
serialSetBaudRate                                 obj/main/NAZE/drivers/serial.o (symbol from plugin)
                                                  obj/main/NAZE/io/gps_ublox.o (symbol from plugin)
                                                  obj/main/NAZE/io/gps.o (symbol from plugin)
serialSetMode                                     /tmp/ccELukx5.ltrans19.ltrans.o
                                                  obj/main/NAZE/drivers/serial.o (symbol from plugin)
                                                  /tmp/ccELukx5.ltrans18.ltrans.o
                                                  /tmp/ccELukx5.ltrans17.ltrans.o
                                                  obj/main/NAZE/io/serial.o (symbol from plugin)
                                                  obj/main/NAZE/io/gps.o (symbol from plugin)
serialTxBytesFree                                 /tmp/ccELukx5.ltrans19.ltrans.o
                                                  obj/main/NAZE/drivers/serial.o (symbol from plugin)
                                                  /tmp/ccELukx5.ltrans8.ltrans.o
                                                  /tmp/ccELukx5.ltrans2.ltrans.o
                                                  /tmp/ccELukx5.ltrans1.ltrans.o
                                                  obj/main/NAZE/msp/msp_serial.o (symbol from plugin)
                                                  obj/main/NAZE/blackbox/blackbox_io.o (symbol from plugin)
serialUART1                                       obj/main/NAZE/drivers/serial_uart_stm32f10x.o (symbol from plugin)
                                                  obj/main/NAZE/drivers/serial_uart.o (symbol from plugin)
serialUART2                                       obj/main/NAZE/drivers/serial_uart_stm32f10x.o (symbol from plugin)
                                                  obj/main/NAZE/drivers/serial_uart.o (symbol from plugin)
serialWrite                                       /tmp/ccELukx5.ltrans8.ltrans.o
                                                  obj/main/NAZE/drivers/serial.o (symbol from plugin)
                                                  /tmp/ccELukx5.ltrans26.ltrans.o
                                                  /tmp/ccELukx5.ltrans22.ltrans.o
                                                  /tmp/ccELukx5.ltrans17.ltrans.o
                                                  /tmp/ccELukx5.ltrans12.ltrans.o
                                                  /tmp/ccELukx5.ltrans11.ltrans.o
                                                  obj/main/NAZE/io/serial.o (symbol from plugin)
                                                  obj/main/NAZE/common/printf.o (symbol from plugin)
                                                  obj/main/NAZE/telemetry/frsky.o (symbol from plugin)
                                                  obj/main/NAZE/io/gps.o (symbol from plugin)
                                                  obj/main/NAZE/blackbox/blackbox_io.o (symbol from plugin)
serialWriteBuf                                    /tmp/ccELukx5.ltrans8.ltrans.o
                                                  obj/main/NAZE/drivers/serial.o (symbol from plugin)
                                                  /tmp/ccELukx5.ltrans26.ltrans.o
                                                  /tmp/ccELukx5.ltrans19.ltrans.o
                                                  /tmp/ccELukx5.ltrans11.ltrans.o
                                                  /tmp/ccELukx5.ltrans2.ltrans.o
                                                  obj/main/NAZE/msp/msp_serial.o (symbol from plugin)
                                                  obj/main/NAZE/io/rcsplit.o (symbol from plugin)
                                                  obj/main/NAZE/telemetry/ltm.o (symbol from plugin)
                                                  obj/main/NAZE/io/gps_ublox.o (symbol from plugin)
serialWriteBufShim                                /tmp/ccELukx5.ltrans19.ltrans.o
                                                  obj/main/NAZE/drivers/serial.o (symbol from plugin)
                                                  /tmp/ccELukx5.ltrans2.ltrans.o
                                                  obj/main/NAZE/fc/cli.o (symbol from plugin)
serialize16.lto_priv.193                          /tmp/ccELukx5.ltrans11.ltrans.o
                                                  /tmp/ccELukx5.ltrans10.ltrans.o
servo                                             /tmp/ccELukx5.ltrans3.ltrans.o
                                                  obj/main/NAZE/flight/servos.o (symbol from plugin)
                                                  /tmp/ccELukx5.ltrans6.ltrans.o
                                                  /tmp/ccELukx5.ltrans1.ltrans.o
                                                  /tmp/ccELukx5.ltrans0.ltrans.o
                                                  obj/main/NAZE/fc/fc_msp.o (symbol from plugin)
                                                  obj/main/NAZE/blackbox/blackbox.o (symbol from plugin)
servoConfig_Copy                                  obj/main/NAZE/flight/servos.o (symbol from plugin)
servoConfig_Registry                              /tmp/ccELukx5.ltrans3.ltrans.o
                                                  obj/main/NAZE/flight/servos.o (symbol from plugin)
servoConfig_System                                /tmp/ccELukx5.ltrans3.ltrans.o
                                                  obj/main/NAZE/flight/servos.o (symbol from plugin)
                                                  /tmp/ccELukx5.ltrans2.ltrans.o
                                                  /tmp/ccELukx5.ltrans1.ltrans.o
                                                  /tmp/ccELukx5.ltrans0.ltrans.o
                                                  obj/main/NAZE/fc/fc_msp.o (symbol from plugin)
                                                  obj/main/NAZE/fc/fc_init.o (symbol from plugin)
                                                  obj/main/NAZE/fc/fc_core.o (symbol from plugin)
servoDirection                                    obj/main/NAZE/flight/servos.o (symbol from plugin)
servoMetadata.lto_priv.422                        /tmp/ccELukx5.ltrans1.ltrans.o
                                                  /tmp/ccELukx5.ltrans0.ltrans.o
servoMixer                                        obj/main/NAZE/flight/servos.o (symbol from plugin)
                                                  obj/main/NAZE/fc/fc_core.o (symbol from plugin)
servoMixerAirplane.lto_priv.431                   /tmp/ccELukx5.ltrans16.ltrans.o
servoMixerFlyingWing.lto_priv.430                 /tmp/ccELukx5.ltrans16.ltrans.o
servoMixerLoadMix                                 obj/main/NAZE/flight/servos.o (symbol from plugin)
                                                  obj/main/NAZE/fc/cli.o (symbol from plugin)
servoMixerTri.lto_priv.429                        /tmp/ccELukx5.ltrans16.ltrans.o
servoMixers                                       /tmp/ccELukx5.ltrans16.ltrans.o
                                                  obj/main/NAZE/flight/servos.o (symbol from plugin)
                                                  /tmp/ccELukx5.ltrans0.ltrans.o
servoOutputEnabled.lto_priv.421                   /tmp/ccELukx5.ltrans1.ltrans.o
                                                  /tmp/ccELukx5.ltrans0.ltrans.o
servoParams_CopyArray                             /tmp/ccELukx5.ltrans9.ltrans.o
                                                  obj/main/NAZE/flight/servos.o (symbol from plugin)
                                                  /tmp/ccELukx5.ltrans21.ltrans.o
                                                  obj/main/NAZE/fc/cli.o (symbol from plugin)
servoParams_Registry                              /tmp/ccELukx5.ltrans9.ltrans.o
                                                  obj/main/NAZE/flight/servos.o (symbol from plugin)
servoParams_SystemArray                           /tmp/ccELukx5.ltrans9.ltrans.o
                                                  obj/main/NAZE/flight/servos.o (symbol from plugin)
                                                  /tmp/ccELukx5.ltrans21.ltrans.o
                                                  /tmp/ccELukx5.ltrans16.ltrans.o
                                                  /tmp/ccELukx5.ltrans3.ltrans.o
                                                  /tmp/ccELukx5.ltrans2.ltrans.o
                                                  /tmp/ccELukx5.ltrans1.ltrans.o
                                                  /tmp/ccELukx5.ltrans0.ltrans.o
                                                  obj/main/NAZE/fc/fc_msp.o (symbol from plugin)
                                                  obj/main/NAZE/fc/cli.o (symbol from plugin)
servoRuleCount.lto_priv.264                       /tmp/ccELukx5.ltrans9.ltrans.o
                                                  /tmp/ccELukx5.ltrans1.ltrans.o
                                                  /tmp/ccELukx5.ltrans0.ltrans.o
servos.lto_priv.408                               /tmp/ccELukx5.ltrans8.ltrans.o
                                                  /tmp/ccELukx5.ltrans0.ltrans.o
servosInit                                        obj/main/NAZE/flight/servos.o (symbol from plugin)
                                                  obj/main/NAZE/fc/fc_init.o (symbol from plugin)
setBeeperOffMask                                  obj/main/NAZE/fc/config.o (symbol from plugin)
                                                  obj/main/NAZE/fc/cli.o (symbol from plugin)
setConfigProfile                                  /tmp/ccELukx5.ltrans15.ltrans.o
                                                  obj/main/NAZE/fc/config.o (symbol from plugin)
                                                  /tmp/ccELukx5.ltrans21.ltrans.o
                                                  /tmp/ccELukx5.ltrans17.ltrans.o
                                                  obj/main/NAZE/fc/cli.o (symbol from plugin)
setConfigProfileAndWriteEEPROM                    /tmp/ccELukx5.ltrans15.ltrans.o
                                                  obj/main/NAZE/fc/config.o (symbol from plugin)
                                                  /tmp/ccELukx5.ltrans17.ltrans.o
                                                  /tmp/ccELukx5.ltrans4.ltrans.o
                                                  /tmp/ccELukx5.ltrans2.ltrans.o
                                                  obj/main/NAZE/fc/rc_controls.o (symbol from plugin)
                                                  obj/main/NAZE/fc/fc_msp.o (symbol from plugin)
                                                  obj/main/NAZE/fc/cli.o (symbol from plugin)
setControlRateProfile                             obj/main/NAZE/fc/controlrate_profile.o (symbol from plugin)
                                                  obj/main/NAZE/fc/config.o (symbol from plugin)
setDesiredPosition                                /tmp/ccELukx5.ltrans25.ltrans.o
                                                  obj/main/NAZE/navigation/navigation.o (symbol from plugin)
                                                  /tmp/ccELukx5.ltrans13.ltrans.o
                                                  /tmp/ccELukx5.ltrans12.ltrans.o
                                                  /tmp/ccELukx5.ltrans2.ltrans.o
                                                  /tmp/ccELukx5.ltrans1.ltrans.o
                                                  obj/main/NAZE/navigation/navigation_multicopter.o (symbol from plugin)
setDesiredSurfaceOffset                           /tmp/ccELukx5.ltrans25.ltrans.o
                                                  obj/main/NAZE/navigation/navigation.o (symbol from plugin)
                                                  /tmp/ccELukx5.ltrans12.ltrans.o
setHomePosition                                   /tmp/ccELukx5.ltrans25.ltrans.o
                                                  obj/main/NAZE/navigation/navigation.o (symbol from plugin)
                                                  /tmp/ccELukx5.ltrans12.ltrans.o
                                                  /tmp/ccELukx5.ltrans2.ltrans.o
                                                  /tmp/ccELukx5.ltrans1.ltrans.o
setPreferredBeeperOffMask                         obj/main/NAZE/fc/config.o (symbol from plugin)
                                                  obj/main/NAZE/fc/cli.o (symbol from plugin)
setPrintfSerialPort                               obj/main/NAZE/common/printf.o (symbol from plugin)
                                                  obj/main/NAZE/fc/cli.o (symbol from plugin)
setTaskEnabled                                    /tmp/ccELukx5.ltrans18.ltrans.o
                                                  obj/main/NAZE/scheduler/scheduler.o (symbol from plugin)
                                                  /tmp/ccELukx5.ltrans0.ltrans.o
                                                  obj/main/NAZE/fc/fc_tasks.o (symbol from plugin)
setTxSignal                                       obj/main/NAZE/drivers/serial_softserial.o (symbol from plugin)
setWaypoint                                       obj/main/NAZE/navigation/navigation.o (symbol from plugin)
                                                  obj/main/NAZE/fc/fc_msp.o (symbol from plugin)
setupAltitudeController.lto_priv.456              /tmp/ccELukx5.ltrans13.ltrans.o
                                                  /tmp/ccELukx5.ltrans25.ltrans.o
                                                  /tmp/ccELukx5.ltrans12.ltrans.o
setupFixedWingAltitudeController                  obj/main/NAZE/navigation/navigation_fixedwing.o (symbol from plugin)
                                                  obj/main/NAZE/navigation/navigation.o (symbol from plugin)
setupMulticopterAltitudeController                obj/main/NAZE/navigation/navigation_multicopter.o (symbol from plugin)
                                                  obj/main/NAZE/navigation/navigation.o (symbol from plugin)
shortGitRevision                                  /tmp/ccELukx5.ltrans3.ltrans.o
                                                  obj/main/NAZE/build/version.o (symbol from plugin)
                                                  obj/main/NAZE/fc/fc_msp.o (symbol from plugin)
                                                  obj/main/NAZE/fc/cli.o (symbol from plugin)
                                                  obj/main/NAZE/blackbox/blackbox.o (symbol from plugin)
shouldResetReferenceAltitude.lto_priv.196         /tmp/ccELukx5.ltrans11.ltrans.o
                                                  /tmp/ccELukx5.ltrans10.ltrans.o
sin_approx                                        /tmp/ccELukx5.ltrans22.ltrans.o
                                                  obj/main/NAZE/common/maths.o (symbol from plugin)
                                                  /tmp/ccELukx5.ltrans24.ltrans.o
                                                  /tmp/ccELukx5.ltrans21.ltrans.o
                                                  /tmp/ccELukx5.ltrans18.ltrans.o
                                                  /tmp/ccELukx5.ltrans13.ltrans.o
                                                  /tmp/ccELukx5.ltrans12.ltrans.o
                                                  /tmp/ccELukx5.ltrans9.ltrans.o
                                                  /tmp/ccELukx5.ltrans7.ltrans.o
                                                  /tmp/ccELukx5.ltrans1.ltrans.o
                                                  obj/main/NAZE/sensors/boardalignment.o (symbol from plugin)
                                                  obj/main/NAZE/flight/pid.o (symbol from plugin)
                                                  obj/main/NAZE/flight/imu.o (symbol from plugin)
                                                  obj/main/NAZE/fc/fc_core.o (symbol from plugin)
                                                  obj/main/NAZE/common/filter.o (symbol from plugin)
                                                  obj/main/NAZE/navigation/navigation_fixedwing.o (symbol from plugin)
                                                  obj/main/NAZE/navigation/navigation.o (symbol from plugin)
skipRxSamples.lto_priv.247                        /tmp/ccELukx5.ltrans18.ltrans.o
                                                  /tmp/ccELukx5.ltrans4.ltrans.o
sl_isalnum                                        obj/main/NAZE/common/string_light.o (symbol from plugin)
                                                  obj/main/NAZE/fc/cli.o (symbol from plugin)
sl_isdigit                                        obj/main/NAZE/common/string_light.o (symbol from plugin)
                                                  obj/main/NAZE/common/gps_conversion.o (symbol from plugin)
sl_islower                                        obj/main/NAZE/common/string_light.o (symbol from plugin)
sl_isupper                                        obj/main/NAZE/common/string_light.o (symbol from plugin)
sl_strcasecmp                                     obj/main/NAZE/common/string_light.o (symbol from plugin)
                                                  obj/main/NAZE/fc/cli.o (symbol from plugin)
sl_strncasecmp                                    /tmp/ccELukx5.ltrans8.ltrans.o
                                                  obj/main/NAZE/common/string_light.o (symbol from plugin)
                                                  /tmp/ccELukx5.ltrans17.ltrans.o
                                                  /tmp/ccELukx5.ltrans16.ltrans.o
                                                  /tmp/ccELukx5.ltrans2.ltrans.o
                                                  obj/main/NAZE/fc/settings.o (symbol from plugin)
                                                  obj/main/NAZE/fc/cli.o (symbol from plugin)
sl_tolower                                        obj/main/NAZE/common/string_light.o (symbol from plugin)
sl_toupper                                        obj/main/NAZE/common/string_light.o (symbol from plugin)
                                                  obj/main/NAZE/fc/cli.o (symbol from plugin)
smallAngleCosZ.lto_priv.384                       /tmp/ccELukx5.ltrans7.ltrans.o
                                                  /tmp/ccELukx5.ltrans0.ltrans.o
softLpfFilter.lto_priv.402                        /tmp/ccELukx5.ltrans1.ltrans.o
                                                  /tmp/ccELukx5.ltrans0.ltrans.o
softLpfFilterApplyFn.lto_priv.401                 /tmp/ccELukx5.ltrans1.ltrans.o
                                                  /tmp/ccELukx5.ltrans0.ltrans.o
softSerialLoopbackPort                            obj/main/NAZE/drivers/serial_softserial.o (symbol from plugin)
softSerialPorts                                   obj/main/NAZE/drivers/serial_softserial.o (symbol from plugin)
softSerialReadByte                                obj/main/NAZE/drivers/serial_softserial.o (symbol from plugin)
softSerialRxBytesWaiting                          obj/main/NAZE/drivers/serial_softserial.o (symbol from plugin)
softSerialSetBaudRate                             obj/main/NAZE/drivers/serial_softserial.o (symbol from plugin)
softSerialSetMode                                 obj/main/NAZE/drivers/serial_softserial.o (symbol from plugin)
softSerialTxBytesFree                             obj/main/NAZE/drivers/serial_softserial.o (symbol from plugin)
softSerialVTable                                  obj/main/NAZE/drivers/serial_softserial.o (symbol from plugin)
softSerialWriteByte                               obj/main/NAZE/drivers/serial_softserial.o (symbol from plugin)
specifiedConditionCountPerMode.lto_priv.243       /tmp/ccELukx5.ltrans7.ltrans.o
                                                  /tmp/ccELukx5.ltrans4.ltrans.o
spekHiRes.lto_priv.377                            /tmp/ccELukx5.ltrans18.ltrans.o
                                                  /tmp/ccELukx5.ltrans0.ltrans.o
spek_chan_mask.lto_priv.376                       /tmp/ccELukx5.ltrans18.ltrans.o
                                                  /tmp/ccELukx5.ltrans0.ltrans.o
spek_chan_shift.lto_priv.375                      /tmp/ccELukx5.ltrans18.ltrans.o
                                                  /tmp/ccELukx5.ltrans0.ltrans.o
spektrumDataReceive.lto_priv.379                  /tmp/ccELukx5.ltrans18.ltrans.o
                                                  /tmp/ccELukx5.ltrans0.ltrans.o
spektrumFrameStatus                               /tmp/ccELukx5.ltrans18.ltrans.o
                                                  obj/main/NAZE/rx/spektrum.o (symbol from plugin)
                                                  /tmp/ccELukx5.ltrans0.ltrans.o
spektrumInit                                      obj/main/NAZE/rx/spektrum.o (symbol from plugin)
                                                  obj/main/NAZE/rx/rx.o (symbol from plugin)
spektrumReadRawRC.lto_priv.378                    /tmp/ccELukx5.ltrans18.ltrans.o
                                                  /tmp/ccELukx5.ltrans0.ltrans.o
spiDeviceByInstance                               obj/main/NAZE/drivers/bus_spi.o (symbol from plugin)
spiGetErrorCounter                                obj/main/NAZE/drivers/bus_spi.o (symbol from plugin)
spiHardwareMap.lto_priv.404                       /tmp/ccELukx5.ltrans24.ltrans.o
                                                  /tmp/ccELukx5.ltrans0.ltrans.o
spiInit                                           obj/main/NAZE/drivers/bus_spi.o (symbol from plugin)
                                                  obj/main/NAZE/fc/fc_init.o (symbol from plugin)
spiInitDevice                                     obj/main/NAZE/drivers/bus_spi.o (symbol from plugin)
spiIsBusBusy                                      obj/main/NAZE/drivers/bus_spi.o (symbol from plugin)
spiResetErrorCounter                              obj/main/NAZE/drivers/bus_spi.o (symbol from plugin)
spiSetDivisor                                     obj/main/NAZE/drivers/bus_spi.o (symbol from plugin)
                                                  obj/main/NAZE/drivers/flash_m25p16.o (symbol from plugin)
spiTimeoutUserCallback                            obj/main/NAZE/drivers/bus_spi.o (symbol from plugin)
spiTransfer                                       obj/main/NAZE/drivers/bus_spi.o (symbol from plugin)
                                                  obj/main/NAZE/hardware_revision.o (symbol from plugin)
                                                  obj/main/NAZE/drivers/flash_m25p16.o (symbol from plugin)
spiTransfer.constprop.91                          /tmp/ccELukx5.ltrans24.ltrans.o
                                                  /tmp/ccELukx5.ltrans6.ltrans.o
                                                  /tmp/ccELukx5.ltrans0.ltrans.o
spiTransferByte                                   obj/main/NAZE/drivers/bus_spi.o (symbol from plugin)
                                                  obj/main/NAZE/hardware_revision.o (symbol from plugin)
                                                  obj/main/NAZE/drivers/flash_m25p16.o (symbol from plugin)
spiTransferByte.constprop.89                      /tmp/ccELukx5.ltrans24.ltrans.o
                                                  /tmp/ccELukx5.ltrans6.ltrans.o
                                                  /tmp/ccELukx5.ltrans0.ltrans.o
sqrtf                                             /usr/bin/../lib/gcc/arm-none-eabi/4.9.3/../../../../arm-none-eabi/lib/armv7-m/libm.a(lib_a-wf_sqrt.o)
                                                  /tmp/ccELukx5.ltrans28.ltrans.o
                                                  /tmp/ccELukx5.ltrans25.ltrans.o
                                                  /tmp/ccELukx5.ltrans13.ltrans.o
                                                  /tmp/ccELukx5.ltrans11.ltrans.o
                                                  /tmp/ccELukx5.ltrans7.ltrans.o
                                                  /tmp/ccELukx5.ltrans1.ltrans.o
stackHighMem                                      obj/main/NAZE/drivers/stack_check.o (symbol from plugin)
                                                  obj/main/NAZE/fc/cli.o (symbol from plugin)
stackTotalSize                                    obj/main/NAZE/drivers/stack_check.o (symbol from plugin)
                                                  obj/main/NAZE/fc/cli.o (symbol from plugin)
stateFlags                                        /tmp/ccELukx5.ltrans9.ltrans.o
                                                  obj/main/NAZE/fc/runtime_config.o (symbol from plugin)
                                                  /tmp/ccELukx5.ltrans29.ltrans.o
                                                  /tmp/ccELukx5.ltrans28.ltrans.o
                                                  /tmp/ccELukx5.ltrans27.ltrans.o
                                                  /tmp/ccELukx5.ltrans26.ltrans.o
                                                  /tmp/ccELukx5.ltrans25.ltrans.o
                                                  /tmp/ccELukx5.ltrans21.ltrans.o
                                                  /tmp/ccELukx5.ltrans15.ltrans.o
                                                  /tmp/ccELukx5.ltrans13.ltrans.o
                                                  /tmp/ccELukx5.ltrans12.ltrans.o
                                                  /tmp/ccELukx5.ltrans11.ltrans.o
                                                  /tmp/ccELukx5.ltrans10.ltrans.o
                                                  /tmp/ccELukx5.ltrans7.ltrans.o
                                                  /tmp/ccELukx5.ltrans6.ltrans.o
                                                  /tmp/ccELukx5.ltrans4.ltrans.o
                                                  /tmp/ccELukx5.ltrans3.ltrans.o
                                                  /tmp/ccELukx5.ltrans2.ltrans.o
                                                  /tmp/ccELukx5.ltrans1.ltrans.o
                                                  /tmp/ccELukx5.ltrans0.ltrans.o
                                                  obj/main/NAZE/sensors/compass.o (symbol from plugin)
                                                  obj/main/NAZE/sensors/acceleration.o (symbol from plugin)
                                                  obj/main/NAZE/io/pwmdriver_i2c.o (symbol from plugin)
                                                  obj/main/NAZE/io/beeper.o (symbol from plugin)
                                                  obj/main/NAZE/flight/pid.o (symbol from plugin)
                                                  obj/main/NAZE/flight/mixer.o (symbol from plugin)
                                                  obj/main/NAZE/flight/imu.o (symbol from plugin)
                                                  obj/main/NAZE/flight/failsafe.o (symbol from plugin)
                                                  obj/main/NAZE/fc/rc_controls.o (symbol from plugin)
                                                  obj/main/NAZE/fc/rc_adjustments.o (symbol from plugin)
                                                  obj/main/NAZE/fc/fc_msp.o (symbol from plugin)
                                                  obj/main/NAZE/fc/fc_core.o (symbol from plugin)
                                                  obj/main/NAZE/telemetry/ltm.o (symbol from plugin)
                                                  obj/main/NAZE/telemetry/frsky.o (symbol from plugin)
                                                  obj/main/NAZE/navigation/navigation_pos_estimator.o (symbol from plugin)
                                                  obj/main/NAZE/navigation/navigation_fw_launch.o (symbol from plugin)
                                                  obj/main/NAZE/navigation/navigation.o (symbol from plugin)
                                                  obj/main/NAZE/io/gps.o (symbol from plugin)
                                                  obj/main/NAZE/blackbox/blackbox.o (symbol from plugin)
stopMotors                                        /tmp/ccELukx5.ltrans7.ltrans.o
                                                  obj/main/NAZE/flight/mixer.o (symbol from plugin)
                                                  /tmp/ccELukx5.ltrans29.ltrans.o
                                                  /tmp/ccELukx5.ltrans17.ltrans.o
                                                  obj/main/NAZE/fc/fc_msp.o (symbol from plugin)
                                                  obj/main/NAZE/fc/fc_hardfaults.o (symbol from plugin)
                                                  obj/main/NAZE/fc/cli.o (symbol from plugin)
stopPwmAllMotors                                  obj/main/NAZE/flight/mixer.o (symbol from plugin)
                                                  obj/main/NAZE/fc/fc_msp.o (symbol from plugin)
                                                  obj/main/NAZE/fc/cli.o (symbol from plugin)
strcat                                            /usr/bin/../lib/gcc/arm-none-eabi/4.9.3/../../../../arm-none-eabi/lib/armv7-m/libg_nano.a(lib_a-strcat.o)
                                                  /tmp/ccELukx5.ltrans22.ltrans.o
strchr                                            /usr/bin/../lib/gcc/arm-none-eabi/4.9.3/../../../../arm-none-eabi/lib/armv7-m/libg_nano.a(lib_a-strchr.o)
                                                  /tmp/ccELukx5.ltrans18.ltrans.o
                                                  /tmp/ccELukx5.ltrans17.ltrans.o
                                                  /tmp/ccELukx5.ltrans16.ltrans.o
                                                  /tmp/ccELukx5.ltrans14.ltrans.o
                                                  /tmp/ccELukx5.ltrans2.ltrans.o
strcpy                                            /usr/bin/../lib/gcc/arm-none-eabi/4.9.3/../../../../arm-none-eabi/lib/armv7-m/libg_nano.a(lib_a-strcpy.o)
                                                  /tmp/ccELukx5.ltrans7.ltrans.o
strlen                                            /usr/bin/../lib/gcc/arm-none-eabi/4.9.3/../../../../arm-none-eabi/lib/armv7-m/libg_nano.a(lib_a-strlen.o)
                                                  /tmp/ccELukx5.ltrans26.ltrans.o
                                                  /tmp/ccELukx5.ltrans22.ltrans.o
                                                  /tmp/ccELukx5.ltrans17.ltrans.o
                                                  /tmp/ccELukx5.ltrans16.ltrans.o
                                                  /tmp/ccELukx5.ltrans7.ltrans.o
                                                  /tmp/ccELukx5.ltrans6.ltrans.o
                                                  /tmp/ccELukx5.ltrans3.ltrans.o
                                                  /tmp/ccELukx5.ltrans2.ltrans.o
strncmp                                           /usr/bin/../lib/gcc/arm-none-eabi/4.9.3/../../../../arm-none-eabi/lib/armv7-m/libg_nano.a(lib_a-strncmp.o)
                                                  /tmp/ccELukx5.ltrans17.ltrans.o
strncpy                                           /usr/bin/../lib/gcc/arm-none-eabi/4.9.3/../../../../arm-none-eabi/lib/armv7-m/libg_nano.a(lib_a-strncpy.o)
                                                  /tmp/ccELukx5.ltrans22.ltrans.o
                                                  /tmp/ccELukx5.ltrans17.ltrans.o
strspn                                            /usr/bin/../lib/gcc/arm-none-eabi/4.9.3/../../../../arm-none-eabi/lib/armv7-m/libg_nano.a(lib_a-strspn.o)
                                                  /tmp/ccELukx5.ltrans17.ltrans.o
strstr                                            /usr/bin/../lib/gcc/arm-none-eabi/4.9.3/../../../../arm-none-eabi/lib/armv7-m/libg_nano.a(lib_a-strstr.o)
                                                  /tmp/ccELukx5.ltrans17.ltrans.o
strtok                                            /usr/bin/../lib/gcc/arm-none-eabi/4.9.3/../../../../arm-none-eabi/lib/armv7-m/libc_nano.a(lib_a-strtok.o)
                                                  /tmp/ccELukx5.ltrans16.ltrans.o
                                                  obj/main/NAZE/fc/cli.o (symbol from plugin)
strtok_r                                          /usr/bin/../lib/gcc/arm-none-eabi/4.9.3/../../../../arm-none-eabi/lib/armv7-m/libc_nano.a(lib_a-strtok_r.o)
                                                  /tmp/ccELukx5.ltrans17.ltrans.o
                                                  obj/main/NAZE/fc/cli.o (symbol from plugin)
suspendRxSignal                                   /tmp/ccELukx5.ltrans18.ltrans.o
                                                  obj/main/NAZE/rx/rx.o (symbol from plugin)
                                                  /tmp/ccELukx5.ltrans21.ltrans.o
                                                  /tmp/ccELukx5.ltrans15.ltrans.o
                                                  obj/main/NAZE/fc/config.o (symbol from plugin)
suspendRxSignalUntil.lto_priv.248                 /tmp/ccELukx5.ltrans18.ltrans.o
                                                  /tmp/ccELukx5.ltrans4.ltrans.o
switchStates                                      obj/main/NAZE/io/rcsplit.o (symbol from plugin)
swithNavigationFlightModes                        obj/main/NAZE/navigation/navigation.o (symbol from plugin)
sysTickUptime.lto_priv.146                        /tmp/ccELukx5.ltrans18.ltrans.o
                                                  /tmp/ccELukx5.ltrans27.ltrans.o
                                                  /tmp/ccELukx5.ltrans26.ltrans.o
                                                  /tmp/ccELukx5.ltrans25.ltrans.o
                                                  /tmp/ccELukx5.ltrans19.ltrans.o
                                                  /tmp/ccELukx5.ltrans17.ltrans.o
                                                  /tmp/ccELukx5.ltrans15.ltrans.o
                                                  /tmp/ccELukx5.ltrans12.ltrans.o
                                                  /tmp/ccELukx5.ltrans10.ltrans.o
                                                  /tmp/ccELukx5.ltrans9.ltrans.o
                                                  /tmp/ccELukx5.ltrans7.ltrans.o
                                                  /tmp/ccELukx5.ltrans6.ltrans.o
                                                  /tmp/ccELukx5.ltrans4.ltrans.o
                                                  /tmp/ccELukx5.ltrans1.ltrans.o
                                                  /tmp/ccELukx5.ltrans0.ltrans.o
systemBeep                                        /tmp/ccELukx5.ltrans19.ltrans.o
                                                  obj/main/NAZE/drivers/sound_beeper.o (symbol from plugin)
                                                  /tmp/ccELukx5.ltrans14.ltrans.o
                                                  /tmp/ccELukx5.ltrans9.ltrans.o
                                                  /tmp/ccELukx5.ltrans0.ltrans.o
                                                  obj/main/NAZE/io/beeper.o (symbol from plugin)
                                                  obj/main/NAZE/fc/fc_init.o (symbol from plugin)
                                                  obj/main/NAZE/drivers/system.o (symbol from plugin)
systemBeepToggle                                  obj/main/NAZE/drivers/sound_beeper.o (symbol from plugin)
systemClockSetup                                  obj/main/NAZE/drivers/system_stm32f10x.o (symbol from plugin)
                                                  obj/main/NAZE/fc/fc_init.o (symbol from plugin)
systemConfig_Copy                                 /tmp/ccELukx5.ltrans3.ltrans.o
                                                  obj/main/NAZE/fc/config.o (symbol from plugin)
                                                  /tmp/ccELukx5.ltrans21.ltrans.o
                                                  obj/main/NAZE/fc/cli.o (symbol from plugin)
systemConfig_Registry                             /tmp/ccELukx5.ltrans3.ltrans.o
                                                  obj/main/NAZE/fc/config.o (symbol from plugin)
systemConfig_System                               /tmp/ccELukx5.ltrans3.ltrans.o
                                                  obj/main/NAZE/fc/config.o (symbol from plugin)
                                                  /tmp/ccELukx5.ltrans21.ltrans.o
                                                  /tmp/ccELukx5.ltrans17.ltrans.o
                                                  /tmp/ccELukx5.ltrans15.ltrans.o
                                                  /tmp/ccELukx5.ltrans14.ltrans.o
                                                  /tmp/ccELukx5.ltrans6.ltrans.o
                                                  /tmp/ccELukx5.ltrans1.ltrans.o
                                                  /tmp/ccELukx5.ltrans0.ltrans.o
                                                  obj/main/NAZE/fc/fc_init.o (symbol from plugin)
                                                  obj/main/NAZE/fc/fc_core.o (symbol from plugin)
                                                  obj/main/NAZE/fc/cli.o (symbol from plugin)
                                                  obj/main/NAZE/blackbox/blackbox.o (symbol from plugin)
systemInit                                        obj/main/NAZE/drivers/system_stm32f10x.o (symbol from plugin)
                                                  obj/main/NAZE/fc/fc_init.o (symbol from plugin)
systemReset                                       obj/main/NAZE/drivers/system_stm32f10x.o (symbol from plugin)
                                                  obj/main/NAZE/fc/fc_msp.o (symbol from plugin)
                                                  obj/main/NAZE/fc/cli.o (symbol from plugin)
                                                  obj/main/NAZE/drivers/system.o (symbol from plugin)
systemResetToBootloader                           obj/main/NAZE/drivers/system_stm32f10x.o (symbol from plugin)
                                                  obj/main/NAZE/io/serial.o (symbol from plugin)
                                                  obj/main/NAZE/fc/cli.o (symbol from plugin)
systemState                                       /tmp/ccELukx5.ltrans29.ltrans.o
                                                  obj/main/NAZE/fc/fc_init.o (symbol from plugin)
                                                  /tmp/ccELukx5.ltrans0.ltrans.o
                                                  obj/main/NAZE/fc/fc_hardfaults.o (symbol from plugin)
systemTimekeepingSetup.lto_priv.435               /tmp/ccELukx5.ltrans5.ltrans.o
                                                  /tmp/ccELukx5.ltrans0.ltrans.o
table_acc_hardware                                /tmp/ccELukx5.ltrans17.ltrans.o
                                                  obj/main/NAZE/fc/settings.o (symbol from plugin)
                                                  obj/main/NAZE/fc/cli.o (symbol from plugin)
table_alignment                                   /tmp/ccELukx5.ltrans17.ltrans.o
                                                  obj/main/NAZE/fc/settings.o (symbol from plugin)
table_aux_operator                                /tmp/ccELukx5.ltrans17.ltrans.o
                                                  obj/main/NAZE/fc/settings.o (symbol from plugin)
table_baro_hardware                               /tmp/ccELukx5.ltrans17.ltrans.o
                                                  obj/main/NAZE/fc/settings.o (symbol from plugin)
                                                  obj/main/NAZE/fc/cli.o (symbol from plugin)
table_blackbox_device                             /tmp/ccELukx5.ltrans17.ltrans.o
                                                  obj/main/NAZE/fc/settings.o (symbol from plugin)
table_current_sensor                              /tmp/ccELukx5.ltrans17.ltrans.o
                                                  obj/main/NAZE/fc/settings.o (symbol from plugin)
table_debug_modes                                 /tmp/ccELukx5.ltrans17.ltrans.o
                                                  obj/main/NAZE/fc/settings.o (symbol from plugin)
table_failsafe_procedure                          /tmp/ccELukx5.ltrans17.ltrans.o
                                                  obj/main/NAZE/fc/settings.o (symbol from plugin)
table_frsky_unit                                  /tmp/ccELukx5.ltrans17.ltrans.o
                                                  obj/main/NAZE/fc/settings.o (symbol from plugin)
table_gimbal_mode                                 /tmp/ccELukx5.ltrans17.ltrans.o
                                                  obj/main/NAZE/fc/settings.o (symbol from plugin)
table_gps_dyn_model                               /tmp/ccELukx5.ltrans17.ltrans.o
                                                  obj/main/NAZE/fc/settings.o (symbol from plugin)
table_gps_provider                                /tmp/ccELukx5.ltrans17.ltrans.o
                                                  obj/main/NAZE/fc/settings.o (symbol from plugin)
table_gps_sbas_mode                               /tmp/ccELukx5.ltrans17.ltrans.o
                                                  obj/main/NAZE/fc/settings.o (symbol from plugin)
table_gyro_lpf                                    /tmp/ccELukx5.ltrans17.ltrans.o
                                                  obj/main/NAZE/fc/settings.o (symbol from plugin)
table_i2c_speed                                   /tmp/ccELukx5.ltrans17.ltrans.o
                                                  obj/main/NAZE/fc/settings.o (symbol from plugin)
table_ltm_rates                                   /tmp/ccELukx5.ltrans17.ltrans.o
                                                  obj/main/NAZE/fc/settings.o (symbol from plugin)
table_mag_hardware                                /tmp/ccELukx5.ltrans17.ltrans.o
                                                  obj/main/NAZE/fc/settings.o (symbol from plugin)
                                                  obj/main/NAZE/fc/cli.o (symbol from plugin)
table_motor_pwm_protocol                          /tmp/ccELukx5.ltrans17.ltrans.o
                                                  obj/main/NAZE/fc/settings.o (symbol from plugin)
table_nav_rth_alt_mode                            /tmp/ccELukx5.ltrans17.ltrans.o
                                                  obj/main/NAZE/fc/settings.o (symbol from plugin)
table_nav_user_control_mode                       /tmp/ccELukx5.ltrans17.ltrans.o
                                                  obj/main/NAZE/fc/settings.o (symbol from plugin)
table_off_on                                      /tmp/ccELukx5.ltrans17.ltrans.o
                                                  obj/main/NAZE/fc/settings.o (symbol from plugin)
table_reset_altitude                              /tmp/ccELukx5.ltrans17.ltrans.o
                                                  obj/main/NAZE/fc/settings.o (symbol from plugin)
table_serial_rx                                   /tmp/ccELukx5.ltrans17.ltrans.o
                                                  obj/main/NAZE/fc/settings.o (symbol from plugin)
tailAddress.lto_priv.464                          /tmp/ccELukx5.ltrans0.ltrans.o
                                                  /tmp/ccELukx5.ltrans26.ltrans.o
                                                  /tmp/ccELukx5.ltrans6.ltrans.o
targetName                                        /tmp/ccELukx5.ltrans21.ltrans.o
                                                  obj/main/NAZE/build/version.o (symbol from plugin)
                                                  obj/main/NAZE/fc/cli.o (symbol from plugin)
                                                  obj/main/NAZE/blackbox/blackbox.o (symbol from plugin)
taskGyro                                          obj/main/NAZE/fc/fc_core.o (symbol from plugin)
taskHandleSerial                                  /tmp/ccELukx5.ltrans2.ltrans.o
                                                  obj/main/NAZE/fc/fc_tasks.o (symbol from plugin)
                                                  /tmp/ccELukx5.ltrans18.ltrans.o
taskMainPidLoop                                   /tmp/ccELukx5.ltrans1.ltrans.o
                                                  obj/main/NAZE/fc/fc_core.o (symbol from plugin)
                                                  /tmp/ccELukx5.ltrans18.ltrans.o
                                                  obj/main/NAZE/fc/fc_tasks.o (symbol from plugin)
taskProcessGPS                                    /tmp/ccELukx5.ltrans27.ltrans.o
                                                  obj/main/NAZE/fc/fc_tasks.o (symbol from plugin)
                                                  /tmp/ccELukx5.ltrans18.ltrans.o
taskQueueArray.lto_priv.358                       /tmp/ccELukx5.ltrans18.ltrans.o
                                                  /tmp/ccELukx5.ltrans0.ltrans.o
taskQueueSize.lto_priv.361                        /tmp/ccELukx5.ltrans18.ltrans.o
                                                  /tmp/ccELukx5.ltrans0.ltrans.o
taskSystem                                        obj/main/NAZE/scheduler/scheduler.o (symbol from plugin)
                                                  obj/main/NAZE/fc/fc_tasks.o (symbol from plugin)
taskTelemetry                                     /tmp/ccELukx5.ltrans10.ltrans.o
                                                  obj/main/NAZE/fc/fc_tasks.o (symbol from plugin)
                                                  /tmp/ccELukx5.ltrans18.ltrans.o
taskUpdateBaro                                    /tmp/ccELukx5.ltrans10.ltrans.o
                                                  obj/main/NAZE/fc/fc_tasks.o (symbol from plugin)
                                                  /tmp/ccELukx5.ltrans18.ltrans.o
taskUpdateBattery                                 /tmp/ccELukx5.ltrans27.ltrans.o
                                                  obj/main/NAZE/fc/fc_tasks.o (symbol from plugin)
                                                  /tmp/ccELukx5.ltrans18.ltrans.o
taskUpdateCompass                                 /tmp/ccELukx5.ltrans27.ltrans.o
                                                  obj/main/NAZE/fc/fc_tasks.o (symbol from plugin)
                                                  /tmp/ccELukx5.ltrans18.ltrans.o
taskUpdateRxCheck                                 /tmp/ccELukx5.ltrans30.ltrans.o
                                                  obj/main/NAZE/fc/fc_core.o (symbol from plugin)
                                                  /tmp/ccELukx5.ltrans18.ltrans.o
                                                  obj/main/NAZE/fc/fc_tasks.o (symbol from plugin)
taskUpdateRxMain                                  /tmp/ccELukx5.ltrans4.ltrans.o
                                                  obj/main/NAZE/fc/fc_core.o (symbol from plugin)
                                                  /tmp/ccELukx5.ltrans18.ltrans.o
                                                  obj/main/NAZE/fc/fc_tasks.o (symbol from plugin)
telemetryCheckRxPortShared                        /tmp/ccELukx5.ltrans11.ltrans.o
                                                  obj/main/NAZE/telemetry/telemetry.o (symbol from plugin)
                                                  /tmp/ccELukx5.ltrans21.ltrans.o
                                                  /tmp/ccELukx5.ltrans0.ltrans.o
                                                  obj/main/NAZE/rx/spektrum.o (symbol from plugin)
                                                  obj/main/NAZE/rx/sbus.o (symbol from plugin)
                                                  obj/main/NAZE/io/serial.o (symbol from plugin)
                                                  obj/main/NAZE/telemetry/ltm.o (symbol from plugin)
                                                  obj/main/NAZE/telemetry/frsky.o (symbol from plugin)
telemetryCheckState                               obj/main/NAZE/telemetry/telemetry.o (symbol from plugin)
                                                  obj/main/NAZE/fc/fc_tasks.o (symbol from plugin)
                                                  obj/main/NAZE/fc/fc_core.o (symbol from plugin)
telemetryConfig_Copy                              obj/main/NAZE/telemetry/telemetry.o (symbol from plugin)
telemetryConfig_Registry                          /tmp/ccELukx5.ltrans10.ltrans.o
                                                  obj/main/NAZE/telemetry/telemetry.o (symbol from plugin)
telemetryConfig_System                            /tmp/ccELukx5.ltrans10.ltrans.o
                                                  obj/main/NAZE/telemetry/telemetry.o (symbol from plugin)
                                                  /tmp/ccELukx5.ltrans11.ltrans.o
                                                  /tmp/ccELukx5.ltrans4.ltrans.o
                                                  /tmp/ccELukx5.ltrans0.ltrans.o
                                                  obj/main/NAZE/fc/fc_msp.o (symbol from plugin)
                                                  obj/main/NAZE/fc/fc_core.o (symbol from plugin)
                                                  obj/main/NAZE/telemetry/ltm.o (symbol from plugin)
                                                  obj/main/NAZE/telemetry/frsky.o (symbol from plugin)
telemetryDetermineEnabledState                    obj/main/NAZE/telemetry/telemetry.o (symbol from plugin)
                                                  obj/main/NAZE/telemetry/ltm.o (symbol from plugin)
                                                  obj/main/NAZE/telemetry/frsky.o (symbol from plugin)
telemetryInit                                     obj/main/NAZE/telemetry/telemetry.o (symbol from plugin)
                                                  obj/main/NAZE/fc/fc_init.o (symbol from plugin)
telemetryProcess                                  obj/main/NAZE/telemetry/telemetry.o (symbol from plugin)
                                                  obj/main/NAZE/fc/fc_tasks.o (symbol from plugin)
telemetrySharedPort                               /tmp/ccELukx5.ltrans0.ltrans.o
                                                  obj/main/NAZE/telemetry/telemetry.o (symbol from plugin)
                                                  /tmp/ccELukx5.ltrans11.ltrans.o
                                                  obj/main/NAZE/rx/spektrum.o (symbol from plugin)
                                                  obj/main/NAZE/rx/sbus.o (symbol from plugin)
                                                  obj/main/NAZE/telemetry/ltm.o (symbol from plugin)
                                                  obj/main/NAZE/telemetry/frsky.o (symbol from plugin)
temporaryOutputState                              obj/main/NAZE/drivers/io_pca9685.o (symbol from plugin)
tfp_format                                        /tmp/ccELukx5.ltrans22.ltrans.o
                                                  obj/main/NAZE/common/printf.o (symbol from plugin)
                                                  /tmp/ccELukx5.ltrans26.ltrans.o
                                                  /tmp/ccELukx5.ltrans14.ltrans.o
                                                  obj/main/NAZE/fc/cli.o (symbol from plugin)
                                                  obj/main/NAZE/blackbox/blackbox_encoding.o (symbol from plugin)
tfp_printf                                        obj/main/NAZE/common/printf.o (symbol from plugin)
tfp_sprintf                                       obj/main/NAZE/common/printf.o (symbol from plugin)
ticks                                             obj/main/NAZE/drivers/system.o (symbol from plugin)
                                                  obj/main/NAZE/drivers/bus_i2c_stm32f10x.o (symbol from plugin)
ticks_diff_us                                     obj/main/NAZE/drivers/system.o (symbol from plugin)
                                                  obj/main/NAZE/drivers/bus_i2c_stm32f10x.o (symbol from plugin)
timerCCR                                          obj/main/NAZE/drivers/timer.o (symbol from plugin)
                                                  obj/main/NAZE/drivers/pwm_output.o (symbol from plugin)
timerChCCHandlerInit                              obj/main/NAZE/drivers/timer.o (symbol from plugin)
                                                  obj/main/NAZE/drivers/rx_pwm.o (symbol from plugin)
                                                  obj/main/NAZE/drivers/serial_softserial.o (symbol from plugin)
timerChCCR                                        obj/main/NAZE/drivers/timer.o (symbol from plugin)
timerChCCRHi                                      obj/main/NAZE/drivers/timer.o (symbol from plugin)
timerChCCRLo                                      obj/main/NAZE/drivers/timer.o (symbol from plugin)
timerChClearCCFlag                                obj/main/NAZE/drivers/timer.o (symbol from plugin)
timerChConfigCallbacks                            /tmp/ccELukx5.ltrans14.ltrans.o
                                                  obj/main/NAZE/drivers/timer.o (symbol from plugin)
                                                  /tmp/ccELukx5.ltrans5.ltrans.o
                                                  /tmp/ccELukx5.ltrans0.ltrans.o
                                                  obj/main/NAZE/drivers/rx_pwm.o (symbol from plugin)
                                                  obj/main/NAZE/drivers/serial_softserial.o (symbol from plugin)
timerChConfigCallbacksDual                        obj/main/NAZE/drivers/timer.o (symbol from plugin)
timerChConfigGPIO                                 obj/main/NAZE/drivers/timer.o (symbol from plugin)
timerChConfigIC                                   obj/main/NAZE/drivers/timer.o (symbol from plugin)
                                                  obj/main/NAZE/drivers/serial_softserial.o (symbol from plugin)
timerChConfigIC.constprop.120                     /tmp/ccELukx5.ltrans20.ltrans.o
                                                  /tmp/ccELukx5.ltrans5.ltrans.o
timerChConfigICDual                               obj/main/NAZE/drivers/timer.o (symbol from plugin)
timerChConfigOC                                   obj/main/NAZE/drivers/timer.o (symbol from plugin)
timerChICPolarity                                 obj/main/NAZE/drivers/timer.o (symbol from plugin)
timerChITConfig                                   obj/main/NAZE/drivers/timer.o (symbol from plugin)
timerChITConfigDualLo                             obj/main/NAZE/drivers/timer.o (symbol from plugin)
timerChInit                                       obj/main/NAZE/drivers/timer.o (symbol from plugin)
timerChOvrHandlerInit                             obj/main/NAZE/drivers/timer.o (symbol from plugin)
                                                  obj/main/NAZE/drivers/rx_pwm.o (symbol from plugin)
timerChannelInfo                                  obj/main/NAZE/drivers/timer.o (symbol from plugin)
timerClockDivisor                                 obj/main/NAZE/drivers/timer_stm32f10x.o (symbol from plugin)
                                                  obj/main/NAZE/drivers/timer.o (symbol from plugin)
timerConfig                                       /tmp/ccELukx5.ltrans14.ltrans.o
                                                  obj/main/NAZE/drivers/timer.o (symbol from plugin)
                                                  /tmp/ccELukx5.ltrans0.ltrans.o
timerConfigure                                    /tmp/ccELukx5.ltrans14.ltrans.o
                                                  obj/main/NAZE/drivers/timer.o (symbol from plugin)
                                                  /tmp/ccELukx5.ltrans5.ltrans.o
                                                  /tmp/ccELukx5.ltrans0.ltrans.o
                                                  obj/main/NAZE/drivers/rx_pwm.o (symbol from plugin)
                                                  obj/main/NAZE/drivers/serial_softserial.o (symbol from plugin)
timerDefinitions                                  /tmp/ccELukx5.ltrans14.ltrans.o
                                                  obj/main/NAZE/drivers/timer_stm32f10x.o (symbol from plugin)
                                                  /tmp/ccELukx5.ltrans0.ltrans.o
                                                  obj/main/NAZE/drivers/timer.o (symbol from plugin)
timerDmaSource                                    obj/main/NAZE/drivers/timer.o (symbol from plugin)
timerForceOverflow                                obj/main/NAZE/drivers/timer.o (symbol from plugin)
timerGetByTag                                     obj/main/NAZE/drivers/timer.o (symbol from plugin)
                                                  obj/main/NAZE/drivers/pwm_mapping.o (symbol from plugin)
                                                  obj/main/NAZE/drivers/serial_softserial.o (symbol from plugin)
timerGetByTag.constprop.119                       /tmp/ccELukx5.ltrans20.ltrans.o
                                                  /tmp/ccELukx5.ltrans5.ltrans.o
                                                  /tmp/ccELukx5.ltrans0.ltrans.o
timerGetPeriod                                    obj/main/NAZE/drivers/timer.o (symbol from plugin)
                                                  obj/main/NAZE/drivers/rx_pwm.o (symbol from plugin)
timerGetPeriodByPrescaler                         obj/main/NAZE/drivers/timer.o (symbol from plugin)
timerGetPrescalerByDesiredMhz                     obj/main/NAZE/drivers/timer.o (symbol from plugin)
timerHardware                                     /tmp/ccELukx5.ltrans20.ltrans.o
                                                  obj/main/NAZE/target.o (symbol from plugin)
                                                  /tmp/ccELukx5.ltrans0.ltrans.o
                                                  obj/main/NAZE/drivers/timer.o (symbol from plugin)
                                                  obj/main/NAZE/drivers/rx_pwm.o (symbol from plugin)
                                                  obj/main/NAZE/drivers/pwm_mapping.o (symbol from plugin)
timerInfo                                         obj/main/NAZE/drivers/timer.o (symbol from plugin)
timerInit                                         obj/main/NAZE/drivers/timer.o (symbol from plugin)
                                                  obj/main/NAZE/fc/fc_init.o (symbol from plugin)
timerInputIrq                                     obj/main/NAZE/drivers/timer.o (symbol from plugin)
timerNVICConfigure                                obj/main/NAZE/drivers/timer.o (symbol from plugin)
timerOCInit                                       obj/main/NAZE/drivers/timer.o (symbol from plugin)
                                                  obj/main/NAZE/drivers/pwm_output.o (symbol from plugin)
timerOCPreloadConfig                              obj/main/NAZE/drivers/timer.o (symbol from plugin)
                                                  obj/main/NAZE/drivers/pwm_output.o (symbol from plugin)
timerRCC                                          obj/main/NAZE/drivers/timer.o (symbol from plugin)
timerStart                                        obj/main/NAZE/drivers/timer.o (symbol from plugin)
                                                  obj/main/NAZE/fc/fc_init.o (symbol from plugin)
totalWaitingTasks.lto_priv.360                    /tmp/ccELukx5.ltrans18.ltrans.o
                                                  /tmp/ccELukx5.ltrans0.ltrans.o
totalWaitingTasksSamples.lto_priv.359             /tmp/ccELukx5.ltrans18.ltrans.o
                                                  /tmp/ccELukx5.ltrans0.ltrans.o
uartIrqCallback                                   obj/main/NAZE/drivers/serial_uart_stm32f10x.o (symbol from plugin)
uartOpen                                          /tmp/ccELukx5.ltrans19.ltrans.o
                                                  obj/main/NAZE/drivers/serial_uart.o (symbol from plugin)
                                                  /tmp/ccELukx5.ltrans18.ltrans.o
                                                  obj/main/NAZE/io/serial.o (symbol from plugin)
uartPort1.lto_priv.492                            /tmp/ccELukx5.ltrans19.ltrans.o
                                                  /tmp/ccELukx5.ltrans5.ltrans.o
uartPort2.lto_priv.491                            /tmp/ccELukx5.ltrans19.ltrans.o
                                                  /tmp/ccELukx5.ltrans5.ltrans.o
uartRead                                          obj/main/NAZE/drivers/serial_uart.o (symbol from plugin)
uartSetBaudRate                                   obj/main/NAZE/drivers/serial_uart.o (symbol from plugin)
uartSetMode                                       obj/main/NAZE/drivers/serial_uart.o (symbol from plugin)
uartStartTxDMA                                    obj/main/NAZE/drivers/serial_uart.o (symbol from plugin)
uartTotalRxBytesWaiting                           obj/main/NAZE/drivers/serial_uart.o (symbol from plugin)
uartTotalTxBytesFree                              obj/main/NAZE/drivers/serial_uart.o (symbol from plugin)
uartVTable                                        obj/main/NAZE/drivers/serial_uart.o (symbol from plugin)
                                                  obj/main/NAZE/drivers/serial_uart_stm32f10x.o (symbol from plugin)
uartWrite                                         obj/main/NAZE/drivers/serial_uart.o (symbol from plugin)
ubs_nav_fix_type                                  obj/main/NAZE/io/gps_ublox.o (symbol from plugin)
ubx_nav_status_bits                               obj/main/NAZE/io/gps_ublox.o (symbol from plugin)
ubx_protocol_bytes                                obj/main/NAZE/io/gps_ublox.o (symbol from plugin)
ug2864hsweg01InitI2C                              obj/main/NAZE/drivers/display_ug2864hsweg01.o (symbol from plugin)
ui2a                                              obj/main/NAZE/common/typeconversion.o (symbol from plugin)
                                                  obj/main/NAZE/common/printf.o (symbol from plugin)
uli2a                                             obj/main/NAZE/common/typeconversion.o (symbol from plugin)
                                                  obj/main/NAZE/common/printf.o (symbol from plugin)
updateActivatedModes                              obj/main/NAZE/fc/rc_modes.o (symbol from plugin)
                                                  obj/main/NAZE/fc/fc_core.o (symbol from plugin)
updateActualAltitudeAndClimbRate                  /tmp/ccELukx5.ltrans25.ltrans.o
                                                  obj/main/NAZE/navigation/navigation.o (symbol from plugin)
                                                  /tmp/ccELukx5.ltrans1.ltrans.o
                                                  obj/main/NAZE/navigation/navigation_pos_estimator.o (symbol from plugin)
updateActualHeading                               obj/main/NAZE/navigation/navigation.o (symbol from plugin)
                                                  obj/main/NAZE/navigation/navigation_pos_estimator.o (symbol from plugin)
updateActualHorizontalPositionAndVelocity         /tmp/ccELukx5.ltrans25.ltrans.o
                                                  obj/main/NAZE/navigation/navigation.o (symbol from plugin)
                                                  /tmp/ccELukx5.ltrans1.ltrans.o
                                                  obj/main/NAZE/navigation/navigation_pos_estimator.o (symbol from plugin)
updateActualSurfaceDistance                       obj/main/NAZE/navigation/navigation.o (symbol from plugin)
                                                  obj/main/NAZE/navigation/navigation_pos_estimator.o (symbol from plugin)
updateAdjustmentStates                            obj/main/NAZE/fc/rc_adjustments.o (symbol from plugin)
                                                  obj/main/NAZE/fc/fc_core.o (symbol from plugin)
updateAltitudeThrottleController_MC.lto_priv.282  /tmp/ccELukx5.ltrans28.ltrans.o
                                                  /tmp/ccELukx5.ltrans1.ltrans.o
updateAltitudeVelocityController_MC.lto_priv.283  /tmp/ccELukx5.ltrans28.ltrans.o
                                                  /tmp/ccELukx5.ltrans1.ltrans.o
updateArmingStatus.lto_priv.286                   /tmp/ccELukx5.ltrans15.ltrans.o
                                                  /tmp/ccELukx5.ltrans1.ltrans.o
updateBoardAlignment                              obj/main/NAZE/sensors/boardalignment.o (symbol from plugin)
                                                  obj/main/NAZE/fc/config.o (symbol from plugin)
updateCRC.lto_priv.306                            /tmp/ccELukx5.ltrans8.ltrans.o
                                                  /tmp/ccELukx5.ltrans15.ltrans.o
updateClimbRateToAltitudeController               /tmp/ccELukx5.ltrans25.ltrans.o
                                                  obj/main/NAZE/navigation/navigation.o (symbol from plugin)
                                                  /tmp/ccELukx5.ltrans12.ltrans.o
                                                  /tmp/ccELukx5.ltrans1.ltrans.o
                                                  obj/main/NAZE/navigation/navigation_multicopter.o (symbol from plugin)
                                                  obj/main/NAZE/navigation/navigation_fixedwing.o (symbol from plugin)
updateEstimatedTopic.lto_priv.284                 /tmp/ccELukx5.ltrans11.ltrans.o
                                                  /tmp/ccELukx5.ltrans1.ltrans.o
updateFlightBehaviorModifiers                     obj/main/NAZE/navigation/navigation.o (symbol from plugin)
updateGpsIndicator                                obj/main/NAZE/io/gps.o (symbol from plugin)
                                                  obj/main/NAZE/fc/fc_tasks.o (symbol from plugin)
updateHardwareRevision                            obj/main/NAZE/hardware_revision.o (symbol from plugin)
                                                  obj/main/NAZE/fc/fc_init.o (symbol from plugin)
updateHeadingHoldTarget                           obj/main/NAZE/flight/pid.o (symbol from plugin)
                                                  obj/main/NAZE/fc/fc_msp.o (symbol from plugin)
                                                  obj/main/NAZE/navigation/navigation_multicopter.o (symbol from plugin)
                                                  obj/main/NAZE/navigation/navigation_fixedwing.o (symbol from plugin)
updateHomePosition                                obj/main/NAZE/navigation/navigation.o (symbol from plugin)
updateHomePositionCompatibility.lto_priv.285      /tmp/ccELukx5.ltrans25.ltrans.o
                                                  /tmp/ccELukx5.ltrans1.ltrans.o
updatePIDCoefficients                             obj/main/NAZE/flight/pid.o (symbol from plugin)
                                                  obj/main/NAZE/fc/fc_core.o (symbol from plugin)
updatePositionEstimator                           obj/main/NAZE/navigation/navigation_pos_estimator.o (symbol from plugin)
                                                  obj/main/NAZE/fc/fc_core.o (symbol from plugin)
updatePositionEstimator_BaroTopic                 obj/main/NAZE/navigation/navigation_pos_estimator.o (symbol from plugin)
                                                  obj/main/NAZE/fc/fc_tasks.o (symbol from plugin)
updatePositionVelocityController_MC.lto_priv.281  /tmp/ccELukx5.ltrans28.ltrans.o
                                                  /tmp/ccELukx5.ltrans1.ltrans.o
updateRSSI                                        obj/main/NAZE/rx/rx.o (symbol from plugin)
                                                  obj/main/NAZE/fc/fc_core.o (symbol from plugin)
updateUsedModeActivationConditionFlags            /tmp/ccELukx5.ltrans7.ltrans.o
                                                  obj/main/NAZE/fc/rc_modes.o (symbol from plugin)
                                                  /tmp/ccELukx5.ltrans21.ltrans.o
                                                  /tmp/ccELukx5.ltrans2.ltrans.o
                                                  obj/main/NAZE/fc/fc_msp.o (symbol from plugin)
                                                  obj/main/NAZE/fc/config.o (symbol from plugin)
updateWaypointsAndNavigationMode                  obj/main/NAZE/navigation/navigation.o (symbol from plugin)
                                                  obj/main/NAZE/fc/fc_core.o (symbol from plugin)
usTicks.lto_priv.354                              /tmp/ccELukx5.ltrans20.ltrans.o
                                                  /tmp/ccELukx5.ltrans19.ltrans.o
                                                  /tmp/ccELukx5.ltrans5.ltrans.o
usedTimers                                        obj/main/NAZE/drivers/timer.o (symbol from plugin)
validateAndFixConfig                              obj/main/NAZE/fc/config.o (symbol from plugin)
validateNavConfig                                 obj/main/NAZE/fc/config.o (symbol from plugin)
validateRTHSanityChecker                          /tmp/ccELukx5.ltrans25.ltrans.o
                                                  obj/main/NAZE/navigation/navigation.o (symbol from plugin)
                                                  /tmp/ccELukx5.ltrans12.ltrans.o
vbat                                              /tmp/ccELukx5.ltrans3.ltrans.o
                                                  obj/main/NAZE/sensors/battery.o (symbol from plugin)
                                                  obj/main/NAZE/fc/fc_msp.o (symbol from plugin)
                                                  obj/main/NAZE/fc/cli.o (symbol from plugin)
                                                  obj/main/NAZE/telemetry/ltm.o (symbol from plugin)
                                                  obj/main/NAZE/telemetry/frsky.o (symbol from plugin)
vbatLatestADC                                     /tmp/ccELukx5.ltrans15.ltrans.o
                                                  obj/main/NAZE/sensors/battery.o (symbol from plugin)
                                                  obj/main/NAZE/blackbox/blackbox.o (symbol from plugin)
vbatReference.lto_priv.475                        /tmp/ccELukx5.ltrans15.ltrans.o
                                                  /tmp/ccELukx5.ltrans23.ltrans.o
                                                  /tmp/ccELukx5.ltrans6.ltrans.o
waitForSerialPortToFinishTransmitting             /tmp/ccELukx5.ltrans18.ltrans.o
                                                  obj/main/NAZE/io/serial.o (symbol from plugin)
                                                  /tmp/ccELukx5.ltrans17.ltrans.o
                                                  /tmp/ccELukx5.ltrans2.ltrans.o
                                                  obj/main/NAZE/msp/msp_serial.o (symbol from plugin)
                                                  obj/main/NAZE/fc/cli.o (symbol from plugin)
                                                  obj/main/NAZE/io/gps.o (symbol from plugin)
warningLedDisable                                 obj/main/NAZE/io/statusindicator.o (symbol from plugin)
                                                  obj/main/NAZE/io/beeper.o (symbol from plugin)
                                                  obj/main/NAZE/fc/fc_core.o (symbol from plugin)
warningLedEnable                                  obj/main/NAZE/io/statusindicator.o (symbol from plugin)
                                                  obj/main/NAZE/io/beeper.o (symbol from plugin)
warningLedFlash                                   obj/main/NAZE/io/statusindicator.o (symbol from plugin)
                                                  obj/main/NAZE/fc/fc_core.o (symbol from plugin)
warningLedRefresh                                 /tmp/ccELukx5.ltrans18.ltrans.o
                                                  obj/main/NAZE/io/statusindicator.o (symbol from plugin)
                                                  /tmp/ccELukx5.ltrans15.ltrans.o
                                                  /tmp/ccELukx5.ltrans9.ltrans.o
                                                  obj/main/NAZE/io/beeper.o (symbol from plugin)
warningLedResetTimer                              obj/main/NAZE/io/statusindicator.o (symbol from plugin)
warningLedState.lto_priv.147                      /tmp/ccELukx5.ltrans18.ltrans.o
                                                  /tmp/ccELukx5.ltrans15.ltrans.o
                                                  /tmp/ccELukx5.ltrans9.ltrans.o
warningLedTimer.lto_priv.302                      /tmp/ccELukx5.ltrans18.ltrans.o
                                                  /tmp/ccELukx5.ltrans15.ltrans.o
warningLedUpdate                                  obj/main/NAZE/io/statusindicator.o (symbol from plugin)
                                                  obj/main/NAZE/fc/fc_core.o (symbol from plugin)
wrap_18000                                        /tmp/ccELukx5.ltrans22.ltrans.o
                                                  obj/main/NAZE/common/maths.o (symbol from plugin)
                                                  /tmp/ccELukx5.ltrans28.ltrans.o
                                                  /tmp/ccELukx5.ltrans25.ltrans.o
                                                  /tmp/ccELukx5.ltrans13.ltrans.o
                                                  /tmp/ccELukx5.ltrans12.ltrans.o
                                                  obj/main/NAZE/navigation/navigation_multicopter.o (symbol from plugin)
                                                  obj/main/NAZE/navigation/navigation_fixedwing.o (symbol from plugin)
                                                  obj/main/NAZE/navigation/navigation.o (symbol from plugin)
wrap_36000                                        obj/main/NAZE/common/maths.o (symbol from plugin)
                                                  obj/main/NAZE/navigation/navigation.o (symbol from plugin)
writeAllMotors                                    obj/main/NAZE/flight/mixer.o (symbol from plugin)
writeConfigToEEPROM                               obj/main/NAZE/config/config_eeprom.o (symbol from plugin)
                                                  obj/main/NAZE/fc/config.o (symbol from plugin)
writeEEPROM                                       /tmp/ccELukx5.ltrans15.ltrans.o
                                                  obj/main/NAZE/fc/config.o (symbol from plugin)
                                                  /tmp/ccELukx5.ltrans17.ltrans.o
                                                  /tmp/ccELukx5.ltrans2.ltrans.o
                                                  /tmp/ccELukx5.ltrans0.ltrans.o
                                                  obj/main/NAZE/sensors/initialisation.o (symbol from plugin)
                                                  obj/main/NAZE/fc/fc_msp.o (symbol from plugin)
                                                  obj/main/NAZE/fc/cli.o (symbol from plugin)
writeGPSFrame.lto_priv.476                        /tmp/ccELukx5.ltrans6.ltrans.o
                                                  /tmp/ccELukx5.ltrans23.ltrans.o
writeMotors                                       /tmp/ccELukx5.ltrans7.ltrans.o
                                                  obj/main/NAZE/flight/mixer.o (symbol from plugin)
                                                  /tmp/ccELukx5.ltrans1.ltrans.o
                                                  obj/main/NAZE/fc/fc_core.o (symbol from plugin)
writeServos                                       obj/main/NAZE/flight/servos.o (symbol from plugin)
                                                  obj/main/NAZE/fc/fc_core.o (symbol from plugin)
writeSlowFrameIfNeeded.lto_priv.478               /tmp/ccELukx5.ltrans6.ltrans.o
                                                  /tmp/ccELukx5.ltrans23.ltrans.o
write_word.lto_priv.307                           /tmp/ccELukx5.ltrans8.ltrans.o
                                                  /tmp/ccELukx5.ltrans15.ltrans.o
xmitState.lto_priv.295                            /tmp/ccELukx5.ltrans1.ltrans.o
                                                  /tmp/ccELukx5.ltrans15.ltrans.o
                                                  /tmp/ccELukx5.ltrans6.ltrans.o
zigzagEncode                                      obj/main/NAZE/common/encoding.o (symbol from plugin)
                                                  obj/main/NAZE/blackbox/blackbox_encoding.o (symbol from plugin)
